Od:_glClearStencil
Lpo:_UInt16_System_IConvertible_ToChar_m2096055221_AdjustorThunk
pLm:_Array_TrueForAll_TisRuntimeObject_m1084992726_gshared
JTd:__ZN5physx2Gu19gjkLocalPenetrationINS0_8CapsuleVENS0_17ShrunkConvexHullVEEEjRKT_RKT0_RKNS_6shdfnd3aos6FloatVERNSB_5Vec3VESG_SG_RSC_PhSI_Rhb
Che:__ZN5physx2Sc27ConstraintProjectionManager29removeFromPendingGroupUpdatesERNS0_13ConstraintSimE
bNg:__ZN6il2cpp2vm5Array13GetByteLengthEP11Il2CppArray
Ujp:_Array_InternalArray__set_Item_TisDateTime_t3738529785_m1331437427_gshared
LHq:_KeyBuilder_get_Rng_m3373220441
Kji:__ZL102Image_t2670269651_CustomAttributesCacheGenerator_Image_t2670269651____eventAlphaThreshold_PropertyInfoP21CustomAttributesCache
psn:_UIPermission_Union_m4043158671
ohb:__Z30GetIntermediateRendererManagerv
M4j:_MonoMethodMessage_GetArg_m2932717642
E7g:_CILCompiler__cctor_m1680801731
VC:__ZN10StateRange8TransferI14SafeBinaryReadEEvRT_
$qq:_ConfigurationElementCollection_Reset_m2679515515
PYa:__Z21SourceMipLevelForBlitiiii
Ulb:__ZN31CanvasBatchIntermediateRenderer15AddAsRenderNodeER15RenderNodeQueueRK20DeprecatedSourceData
y0o:_Dictionary_2_Do_ICollectionCopyTo_TisInt32_t2950945753_m2590022749_gshared
Hmo:_TimeSpan_get_Hours_m550761902
TBo:_Dictionary_2_System_Collections_ICollection_CopyTo_m3676960040_gshared
Lrn:_StrongNameIdentityPermission_Match_m3829662664
Ibi:__ZL57ParticleSystem_t1800779281_CustomAttributesCacheGeneratorP21CustomAttributesCache
HLe:__ZNK5physx2Sc5Scene24getContactModifyCallbackEv
dG:__ZN11UnityEngine9Animation28GenericAnimationBindingCacheD2Ev
NOe:__ZN5physx2Sq10AABBPruner10addObjectsEPjPKNS_9PxBounds3EPKNS0_13PrunerPayloadEj
Bzq:_X509Store_LoadCrl_m1881903843
ZZo:_Array_Sort_TisUICharInfo_t75501106_TisUICharInfo_t75501106_m722747892_gshared
tH:__ZN15AnimationBinder13SetFloatValueERK20BoundCurveDeprecatedf
oHf:__ZN20TextRenderingPrivate21TextMeshGeneratorImpl24GetCursorIndexAtPositionERK5RectTIfERK8Vector2f
aCo:_Dictionary_2_InitArrays_m1767080630_gshared
Kc:invoke_viiiifiiiiif
Irc:__Z18RestoreRenderStateR20CameraRenderOldStateR17ShaderPassContext
c2b:__Z18Transfer_BlittableI18StreamedBinaryReadILb1EELb1E5RectTIfEEvRK29SerializationCommandArgumentsR31RuntimeSerializationCommandInfo
WZb:__Z18Transfer_BlittableI24GenerateTypeTreeTransferLb0E11ColorRGBA32EvRK29SerializationCommandArgumentsR31RuntimeSerializationCommandInfo
P6b:__Z25scripting_class_from_name17ScriptingImagePtrPKcS1_
DPm:_Array_InternalArray__IndexOf_TisKeyValuePair_2_t3699644050_m1021241249_gshared
vvg:__ZN14dense_hash_mapI10KeyWrapperINSt3__24pairIPK12PropertyInfoP11Il2CppClassEEEj17ReflectionMapHashIS8_ENS9_14EqualsComparerINS1_8equal_toIS8_EEEENS1_9allocatorINS2_IKS9_jEEEEE15set_deleted_keyERSH_
o8b:__Z29scripting_class_enum_basetype17ScriptingClassPtr
a2d:__ZN5physx6shdfnd8PoolBaseINS_2Sc10NPhaseCore16ClothListElementENS0_19ReflectionAllocatorIS4_EEE17releaseEmptySlabsEv
Iwp:_EqualityComparer_1__cctor_m2676307481_gshared
VKm:_Array_InternalArray__ICollection_Remove_TisColor_t2555686324_m1658001816_gshared
xDd:__ZN16PhysicsManager2D7RaycastERK3RayfiR12RaycastHit2D
YJo:_Enumerator_MoveNext_m3714175425_gshared
rxc:__ZN13TrailRenderer21PrepareDispatchUpdateER13RendererScene10MemLabelId
INi:__Z64RuntimeInvoker_RuntimeObject_Int32_t2950945753_Int16_t2552820387PFvvEPK10MethodInfoPvPS4_
FHi:_HttpWebRequest_DoPreAuthenticate_m1424851389
Qmf:__Z13RegisterClassI15CapsuleColliderEvv
h9l:_InternalEnumerator_1_get_Current_m1477715453_gshared
tZ:__ZN18StreamedBinaryReadILb0EE21TransferSTLStyleArrayI22OffsetPtrArrayTransferIN4math8ColliderEEEEvRT_17TransferMetaFlags
M7m:_RectTransform_GetWorldCorners_m3553547973
ycf:__ZN5physx7Cooking20loadTriangleMeshDescERKNS_18PxTriangleMeshDescERNS_19TriangleMeshBuilderE
Fxj:_GameManager_UpdateSystems_m1960998743
QUp:_Collection_1_System_Collections_IList_Remove_m1476284619_gshared
W8k:_MonoType_IsPrimitiveImpl_m2401722705
dln:_SHA1CryptoServiceProvider__ctor_m4195188793
d5d:__ZN5physx9NpFactory21releaseConnectorArrayEPNS_16NpConnectorArrayE
Dhk:_Graphic_get_defaultGraphicMaterial_m3107284931
scl:_DTDReader_TryExpandPERef_m4193837321
Txp:_EqualityComparer_1__cctor_m91487780_gshared
WAc:__Z13RegisterClassI12InputManagerEvv
Aab:__ZN17PersistentManager22CheckInstanceIDsLoadedEPii
lbl:_NumberFormatter_NumberToString_m264078176
WJm:_Array_InternalArray__ICollection_Remove_TisLink_t3209266973_m897088622_gshared
y7f:_Vector2_get_up_m2647420593
tWa:__ZN7ApiGLES17CopyBufferSubDataEjjlll
pjq:_XmlResolver_ResolveUri_m3051172150
Hcl:_DTDReader_ReadDefaultAttribute_m3222858293
pIi:_IPAddress_ToString_m1181734207
Nho:_StringBuilder_Append_m1965104174
TNc:__ZNK17AnimationCurveTplI8Vector3fE13EvaluateClampEfPNS1_5CacheE
q8c:__ZN5Unity9rapidjson15GenericDocumentINS0_4UTF8IcEE13JSONAllocatorS4_E11ParseStreamILj1ES3_NS0_25GenericInsituStringStreamIS3_EEEERS5_RT1_
Xwp:_EqualityComparer_1__cctor_m3766928733_gshared
Pjc:__ZN25CameraStackRenderingState20GetOrCreateBuiltinRTE24BuiltinRenderTextureTypeii17DepthBufferFormat19RenderTextureFormatj22RenderTextureReadWrite14VRTextureUsagei
VEq:_UnityAction_1_Invoke_m610765085_gshared
Kba:__ZN11AudioModule26SetDefaultMicrophoneDriverEPv
etk:_Kernel_modInverse_m652700340
bBb:__ZNK14Texture2DArray26CanReuploadDataToGfxDeviceEv
coc:__ZN17PrePassRenderLoop14RenderBasePassEP13RenderTextureRK14LightingLayersR13dynamic_arrayI16RenderObjectDataLj4EERbR10MinMaxAABB
yKc:__Z17GLLoadOrthoScriptv
Sxj:_GameObjectTracker__ctor_m374348853
x5c:__ZN5IMGUI18RepaintModalWindowER8GUIState
ALk:_InternalEnumerator_1_get_Current_m891406891_AdjustorThunk
ACq:_GUISkin_BuildStyleCache_m1553793917
R1f:_ActivateTrigger__ctor_m436930199
vua:__ZNK15dense_hashtableINSt3__24pairIKN9ShaderLab7Program23ShaderKeywordSetAndHashEPKNS2_10SubProgramEEES4_NS3_24ShaderKeywordHashFunctorEN14dense_hash_mapIS4_S8_SA_NS0_8equal_toIS4_EE13stl_allocatorIS9_L18MemLabelIdentifier67ELi16EEE9SelectKeyESD_SG_E23find_position_with_hashERS5_j
hCn:_CompareInfo_Finalize_m404687489
Mzb:__Z23SetSpriteMeshIndexCountP14SharedMeshDataj
Kjo:_UTF8Decoder_GetChars_m1236346907
Qal:_NumberFormatter_FormatGeneral_m1667527152
Nrb:__ZN7Texture13SetFilterModeEi
pxj:_GameManager_get_Stats_m907113567
Qqk:_XmlDocument_ReadAttributeNodeValue_m2172166588
HOg:__ZN6il2cpp8metadata13GenericMethod9GetMethodEPK19Il2CppGenericMethod
hv:__ZNSt3__26vectorIN4core12basic_stringIcNS1_20StringStorageDefaultIcEEEENS_9allocatorIS5_EEE7reserveEj
UZn:_Convert_ToChar_m1604365259
xll:_Default_SelectProperty_m1220817815
Xeq:_XmlNode_get_FirstChild_m1176889824
PZj:_RemotingConfiguration_IsRemotelyActivatedClientType_m4117048589
i6f:_Transform_TransformPoint_m226827784
uHg:__ZNSt3__26__treeINS_12__value_typeIjN6il2cpp2os17SocketHandleEntryEEENS_19__map_value_compareIjS5_NS_4lessIjEELb1EEENS_9allocatorIS5_EEE25__emplace_unique_key_argsIjJNS_4pairIKjS4_EEEEENSE_INS_15__tree_iteratorIS5_PNS_11__tree_nodeIS5_PvEEiEEbEERKT_DpOT0_
mQa:__ZN13GfxDeviceGLES11SetViewportERK5RectTIiE
Cxd:__Z19UpdateSingleRow2TplIL27ParticleSystemCurveEvalMode3ELS0_2EEvfRK11MinMaxCurveS3_RK23ParticleSystemParticlesPfbiii
Znk:_XmlAttribute_get_Prefix_m2826082668
ZNl:_BooleanConverter_GetStandardValues_m1729016193
gon:_EnvironmentPermission__ctor_m3571291367
m0c:__Z24Time_Get_Custom_PropTimev
xc:invoke_vifiiii
gHj:_TriggeredBehaviour_PlayAnim_OneShot__ctor_m350946181
d8q:__ZNK10__cxxabiv120__si_class_type_info27has_unambiguous_public_baseEPNS_19__dynamic_cast_infoEPvi
hf:_emscripten_glDepthRange
KQl:_PropertyDescriptorCollection_Clear_m3960872056
NDk:_SslStreamBase_BeginNegotiateHandshake_m4180435790
HOd:__ZN5physx2Gu24contactConvexHeightfieldERKNS0_13GeometryUnionES3_RKNS_11PxTransformES6_RKfRNS0_5CacheERNS0_13ContactBufferE
G6d:__ZN5physx6shdfnd5ArrayIPvNS0_19ReflectionAllocatorINS_2Cm5BlockIS2_Lj8EEEEEE15growAndPushBackERKS2_
Xtc:__ZNSt3__26vectorINS_4pairIN4core12basic_stringIcNS2_20StringStorageDefaultIcEEEES6_EE13stl_allocatorIS7_L18MemLabelIdentifier38ELi16EEE12__move_rangeEPS7_SC_SC_
wJa:__Z14resize_trimmedINSt3__26vectorIN9ShaderLab20SerializedSubProgram12UAVParameterENS0_9allocatorIS4_EEEEEvRT_j
K8c:__ZN5Unity9rapidjson13GenericReaderINS0_4UTF8IcEES3_13JSONAllocatorE11ParseObjectILj1ENS0_25GenericInsituStringStreamIS3_EENS0_15GenericDocumentIS3_S4_S4_EEEEvRT0_RT1_
wLc:__Z10DestripifyPKjjRNSt3__26vectorIj13stl_allocatorIjL18MemLabelIdentifier1ELi16EEEE
Fbk:_StandaloneInputModule_GetRawMoveVector_m2737091079
wOc:__ZN13BuildSettings34ConvertScenePathToDisplayScenePathERKN4core12basic_stringIcNS0_20StringStorageDefaultIcEEEE
sli:__ZL62Selectable_t3250028441_CustomAttributesCacheGenerator_m_ColorsP21CustomAttributesCache
N_n:_Convert_ToDateTime_m2616935982
mMc:__ZN17MemoryCacheReader10DirectReadEPvjj
dEk:_SslStreamBase_EndWrite_m4073224031
Ura:__ZNSt3__218__insertion_sort_3IRNS_6__lessI14ObjectLoadDataS2_EEPS2_EEvT0_S6_T_
DZo:_Array_Sort_TisCustomAttributeNamedArgument_t287865710_m3178168269_gshared
Fao:_RxInterpreter_GetGroupInfo_m2431803602
E8n:_Regex_GetGroupNamesArray_m3575729002
jYa:__ZN4crndL20crnd_default_reallocEPvjPjbS0_
V$k:_CStreamWriter_Write_m2594036893
p7q:__ZNSt3__212basic_stringIcNS_11char_traitsIcEENS_9allocatorIcEEEC2ERKS5_
QWe:__ZN5physx24PxsComputeAABBLocalSpaceERKNS_18PxcAABBDataDynamicERNS_9PxBounds3E
kBj:_PlatformGenerator_Patrol_Direct_RequestPatrolEnd_m190884031
CAb:__ZN18SpriteAtlasManager19AddRequestingSpriteE4PPtrI6SpriteE
xLc:__ZN16PackedQuatVector9PackQuatsEP11Quaternionfi
c$c:__Z33Texture_CUSTOM_Internal_GetHeightP12Il2CppObject
MHc:__Z20IsValidRealtimeLightRK15SharedLightData9LightTypej
j_n:_DateTime__ParseDateSeparator_m1803046501
JAo:_ValueCollection_System_Collections_ICollection_get_SyncRoot_m3381653267_gshared
J6k:_UnmanagedMemoryStream_Write_m930787521
Nqc:__ZN23ScriptableRenderContextC2Ev
eL:__ZN7mecanim9animation18ClipMuscleConstant8TransferI24GenerateTypeTreeTransferEEvRT_
gjk:_GridLayoutGroup_get_spacing_m2409263614
H8o:_LeanTween_isTweening_m4043119400
y8g:_DTDAttListDeclarationCollection_Add_m2745516726
dYn:_WindowsConsole_GetConsoleCP_m968475342
eBf:_UNITY_FT_Stream_GetChar
J$o:_Dictionary_2_Do_ICollectionCopyTo_TisRuntimeObject_m780251959_gshared
D2b:__Z18Transfer_BlittableI18StreamedBinaryReadILb1EELb1EdEvRK29SerializationCommandArgumentsR31RuntimeSerializationCommandInfo
Cv:__ZN15NavMeshSettings17MainThreadCleanupEv
wMh:__ZL119XmlSchemaAttribute_t2797257020_CustomAttributesCacheGenerator_XmlSchemaAttribute_t2797257020____FixedValue_PropertyInfoP21CustomAttributesCache
pPe:__ZN5physx6shdfnd8internal8HashBaseINS0_4PairIKNS_2Sq13PrunerPayloadEjEES5_NS0_4HashIS5_EENS1_11HashMapBaseIS5_jS9_NS0_9AllocatorEE6GetKeyESB_Lb1EE5eraseERS6_
w8b:__Z26BuildSerializationCacheFor17ScriptingClassPtrRb
t2a:__ZN7ApiGLES15BlitFramebufferEN2gl6HandleILNS0_10ObjectTypeE9EEENS0_15FramebufferReadES3_S3_iiiiiiiiNS0_15FramebufferTypeE
h7e:__ZN5physx13GuMeshFactory16createConvexMeshERNS_13PxInputStreamE
pjf:__ZN5physx6shdfnd8internal8HashBaseINS0_4PairIKPKcjEES5_NS0_4HashIS5_EENS1_11HashMapBaseIS5_jS9_NS_7profile26WrapperReflectionAllocatorIjEEE6GetKeyESD_Lb1EE6createERS6_Rb
t2i:__Z112RuntimeInvoker_RuntimeObject_RuntimeObject_RuntimeObject_RuntimeObject_RuntimeObject_RuntimeObject_RuntimeObjectPFvvEPK10MethodInfoPvPS4_
w8l:_InternalEnumerator_1_System_Collections_IEnumerator_get_Current_m3553395619_AdjustorThunk
WUf:_HandHeldCam__ctor_m1932100730
yqk:_XmlDocument_CreateDocumentType_m1835856254
tFl:_Array_SetValue_m3998268557
GNo:_Enumerator_MoveNext_m880141662_AdjustorThunk
AAk:_Context_EndSwitchingSecurityParameters_m4148956166
iwf:_otv_PairPos_validate
HHn:_Int32_CompareTo_m4284770383_AdjustorThunk
$P:__ZN7mecanim9animation14CopyHumanPosesEPKNS0_18AnimationNodeStateEPS1_RKNS_6bitsetILj83EEE
F$p:_ReadOnlyCollection_1_System_Collections_Generic_ICollectionU3CTU3E_Add_m668036029_gshared
D9g:_DTDContentModel_Choice_m3552554715
N9b:__Z9InitInputv
U_b:__Z29Transfer_Blittable_ArrayFieldI24GenerateTypeTreeTransfer11ColorRGBA32EvRT_R9ArrayInfoRK23StaticTransferFieldInfo
f7e:__ZNK5physx13GuMeshFactory15getConvexMeshesEPPNS_12PxConvexMeshEjj
Sqg:__ZN6il2cpp2gc19AppendOnlyGCHashMapINSt3__24pairIPK10MethodInfoP11Il2CppClassEEP22Il2CppReflectionMethod17ReflectionMapHashIS9_ENS2_8equal_toIS9_EEE3AddERKS9_SB_
wSb:__ZN16MemoryFileSystem6DeleteER13FileEntryDatab
_Wi:__Z81RuntimeInvoker_Void_t1185182177_RuntimeObject_Int64_t3736567304_Int32_t2950945753PFvvEPK10MethodInfoPvPS4_
sep:_Array_InternalArray__ICollection_Add_TisLink_t3209266973_m77922316_gshared
fZa:__ZL21BlitScaleStbImageImplRK14ImageReferenceRS_NS_10ColorSpaceE
Ile:__ZN5physx10NpMaterial17setStaticFrictionEf
vld:__Z9UpdateTplIL27ParticleSystemCurveEvalMode0EEvRK11MinMaxCurveS3_S3_R23ParticleSystemParticlesjjRKN4math8float3x3ERKNS6_7_float4E
JGe:__ZNK5physx7NpScene18getStaticStructureEv
rGd:__ZNSt3__26__sortIR31RayHitsByInverseDepthComparitorP12RaycastHit2DEEvT0_S5_T_
fGe:__ZNK5physx7NpScene19getFilterShaderDataEv
NVb:__Z29Transfer_Blittable_ArrayFieldI14SafeBinaryReadyEvRT_R9ArrayInfoRK23StaticTransferFieldInfo
w9:__ZN20SoundChannelInstance15setChannelGroupEPN4FMOD12ChannelGroupE
TOn:_KeyPairPersistence_Remove_m1876145547
Lge:__ZN5physx2Sc19ShapeInstancePairLL26onPoseChangedWhileSleepingEv
etd:__ZN12LightsModule13AwakeFromLoadEP14ParticleSystemRK27ParticleSystemReadOnlyState
YQe:__ZN5physx22PxcSweepCapsuleCapsuleERKNS_11PxsCCDShapeES2_PKNS_12PxsRigidBodyES5_RKNS_11PxTransformES8_S8_S8_fRNS_6PxVec3ESA_RNS_10PxcNpCacheERNS_18PxcNpThreadContextEf
zd:invoke_vifffii
DCg:__ZN6il2cpp2vm9Exception27RaiseNullReferenceExceptionEv
Mol:_MonoMethod__ctor_m3792454563
KYd:__ZNK5physx3Cct17CapsuleController21getHalfHeightInternalEv
qdb:__ZNK25MultiBlocksMemoryFileData5CloneEv
_Iq:_U24adaptorU24__GeneralBasicJSU24callable0U2460_33__U24ActionU240_Adapt_m1850617679
wKc:__ZN11MatrixStack3PopEv
JUg:_GC_add_ext_descriptor
hpg:__ZNK15dense_hashtableINSt3__24pairIK10KeyWrapperINS1_IPK14Il2CppAssemblyP11Il2CppClassEEEjEES9_17ReflectionMapHashIS8_EN14dense_hash_mapIS9_jSD_NS9_14EqualsComparerINS0_8equal_toIS8_EEEENS0_9allocatorISB_EEE9SelectKeyESI_SK_E23find_position_with_hashERSA_j
$1o:_LayoutGroup_SetProperty_TisSingle_t1397266774_m793506911_gshared
pVp:_Collection_1_CheckWritable_m1586584257_gshared
OSj:_CryptoConfig_CreateFromName_m1538277313
Djr:_glInvalidateFramebuffer__wrapper
$Nk:_InternalEnumerator_1_get_Current_m3073360606_gshared
l4d:__ZL30GeomOverlapCallback_CapsuleBoxRKN5physx10PxGeometryERKNS_11PxTransformES2_S5_PNS_2Gu12TriggerCacheE
B9q:dynCall_iiiiiiiiiiii
nyn:_DllNotFoundException__ctor_m3079838043
Rpf:__Z38Rigidbody_CUSTOM_INTERNAL_get_velocityP12Il2CppObjectP8Vector3f
p6q:_select
G7h:__ZL62g_UnityEngine_AIModule_Assembly_CustomAttributesCacheGeneratorP21CustomAttributesCache
YPo:_Enumerator_System_Collections_IEnumerator_Reset_m3951708793_gshared
rtq:_IgnoreSection_SerializeSection_m2598197920
lin:_XmlSchemaSequence_GetOptimizedParticle_m2174831162
gFm:_Selectable_set_interactable_m3105888815
emb:__ZL26KeywordSetToStringDontSortRKNSt3__26vectorIN4core12basic_stringIcNS1_20StringStorageDefaultIcEEEENS_9allocatorIS5_EEEERS5_
Z_a:__ZN6prcoreL17RemapGenericFloatI16TexFormatRGFloat17TexFormatRGBAHalfEEvPKNS_9InnerInfoE
Q1:__ZN12AudioManager22CreateFMODSoundFromWWWEP10IWWWStream15FMOD_SOUND_TYPE17FMOD_SOUND_FORMATjjbbP10SampleClip
HEc:__ZNK32RendererMaterialAnimationBinding15GenerateBindingERKN4core12basic_stringIcNS0_20StringStorageDefaultIcEEEEbRN11UnityEngine9Animation14GenericBindingE
rEp:_List_1_CheckCollection_m274117203_gshared
dgi:__ZL70EventSystem_t1003666588_CustomAttributesCacheGenerator_m_FirstSelectedP21CustomAttributesCache
$Wn:_ListKeys_Clear_m728790154
UNo:_LinkedList_1_Clear_m2711926805_gshared
ooa:__ZN8Remapper23GetOrGenerateInstanceIDERK26SerializedObjectIdentifier
vK:__ZN17AnimationCurveTplI8Vector3fEC2ERKS1_
Z$l:_PolicyLevel_ToXml_m1729327836
Oek:_ColorTween_get_startColor_m3792586410_AdjustorThunk
yb:invoke_iiiiiifffiiifii
Quj:_Example_DelayedInvokationUser_RepeatingMethod_m982091801
_Pi:__Z85RuntimeInvoker_Void_t1185182177_Int32_t2950945753_Int32_t2950945753_Int32_t2950945753PFvvEPK10MethodInfoPvPS4_
Pcj:__Z89RuntimeInvoker_Boolean_t97287965_Single_t1397266774_Single_t1397266774_Single_t1397266774PFvvEPK10MethodInfoPvPS4_
pOp:_Collection_1_IsSynchronized_m1913319808_gshared
b6g:_X509Chain__ctor_m2878811474
eiq:_XmlParserInput_ReadChar_m3809194942
Lem:_Enumerator_VerifyCurrent_m491260822_AdjustorThunk
bCk:_RecordProtocol_BeginReceiveRecord_m295321170
NVf:_RigidbodyFirstPersonController_get_Velocity_m2832770014
Xzb:__ZN6Sprite8TransferI24GenerateTypeTreeTransferEEvRT_
qgn:_XmlSchemaObject_warn_m2857459644
z1c:__Z48Register_UnityEngine_Transform_SetAsFirstSiblingv
kVk:_InternalEnumerator_1_System_Collections_IEnumerator_get_Current_m694606607_gshared
_zb:__ZN7SubMesh8TransferI24GenerateTypeTreeTransferEEvRT_
m5f:_Transform_INTERNAL_set_localPosition_m1936358505
aee:__ZNK5physx19NpArticulationJoint28getTwistLimitContactDistanceEv
eAg:__ZN6il2cpp6icalls8mscorlib6System7Runtime15InteropServices7Marshal17copy_to_unmanagedEP11Il2CppArrayiii
s3q:_NativeTypeAttribute__ctor_m133676646
aop:_Dictionary_2_TryGetValue_m2192132241_gshared
HNd:__ZN5physx3Cct10Controller6setPosERKNS_14PxExtendedVec3E
vlg:__ZN6il2cpp6icalls8mscorlib6SystemL16CheckMemberMatchI9FieldInfoNS_5utils10functional6FilterINSt3__212basic_stringIcNS8_11char_traitsIcEENS8_9allocatorIcEEEENS5_13VmStringUtils23CaseInsensitiveComparerEEEEEbPKT_PK11Il2CppClassSN_iRKT0_
OPd:__ZN5physx2GuL14testFaceNormalERKNS0_13PolygonalDataES3_PNS0_12SupportLocalES5_RKNS_6shdfnd3aos15PsMatTransformVESA_RKNS7_6FloatVERSB_RjRNS7_5Vec3VENS0_13FeatureStatusERSI_
Z$k:_DirectoryInfo__ctor_m126519516
SYk:_InternalEnumerator_1_get_Current_m2315302778_AdjustorThunk
PL:__ZN7mecanim5human9HumanGoal8TransferI18StreamedBinaryReadILb0EEEEvRT_
gGf:__ZNK20TextRenderingPrivate7GUIText22GetTypeVirtualInternalEv
DPc:__ZN9Transform23SetSiblingIndexInternalEib
p7l:_InternalEnumerator_1_get_Current_m1655128652_gshared
r4d:__ZL32GeomOverlapCallback_ConvexConvexRKN5physx10PxGeometryERKNS_11PxTransformES2_S5_PNS_2Gu12TriggerCacheE
S0e:__Z11CopyBuffersRN5physx13PxcNpWorkUnitERNS_18PxcNpThreadContextEb
U5q:___fseeko
MWn:_Enumerator_MoveNext_m635366482
bCl:_X509Extension_Equals_m1222951829
tO:__ZN7mecanim5human12HumanPoseSubERNS0_9HumanPoseERKS1_S4_
WGg:__ZN6il2cpp8metadata15GenericMetadata15GetGenericClassEiPK17Il2CppGenericInst
mUb:__Z18Transfer_BlittableI14SafeBinaryReadLb0E10Matrix4x4fEvRK29SerializationCommandArgumentsR31RuntimeSerializationCommandInfo
N7b:__Z24GetFixedBehaviourManagerv
l3m:_Object_DestroyObject_m1406874517
Zkg:__ZN6il2cpp2vm10ThreadPool4WaitEP17Il2CppAsyncResultPPv
iHm:_Text_UpdateGeometry_m3634850647
q5m:_Random_get_insideUnitSphere_m3252929179
Qtj:_EnemyShipMovement_AteAwake_m3978917849
u4q:_vfprintf
W5c:__ZN10GUIManager12AddGUIScriptER8ListNodeI13MonoBehaviourE
AWf:_ThirdPersonUserControl_FixedUpdate_m1986877370
nbh:_DTDObjectModel_set_InternalSubsetHasPEReference_m2678642332
GXn:_Stack_Clear_m2010200235
Osf:_cf2_getVStore
$9j:_PointerEventData_set_pointerPressRaycast_m1363193059
Lhc:__ZN20DynamicPropertySheetD0Ev
GCp:_List_1_get_Item_m718437397_gshared
wZj:_SafeHandle_Dispose_m4229010569
$tc:__ZN14SafeBinaryRead17RegisterConverterEPKcS1_PFbPvRS_E
U3h:__ZL77RuntimePlatform_t4159857903_CustomAttributesCacheGenerator_OSXDashboardPlayerP21CustomAttributesCache
Jya:__ZN35RegisterRuntimeInitializeAndCleanup8RegisterEPFvPvES2_iS0_
mmh:_XsdWildcard_ExamineAttributeWildcardIntersection_m2657110616
_C:__ZN7mecanim6memory16ChainedAllocator7ReserveEj
Eip:_Array_InternalArray__Insert_TisSingle_t1397266774_m3161726127_gshared
Cbk:_StandaloneInputModule_ProcessMouseEvent_m1568640827
lpb:__ZN20SphericalHarmonicsL215AddAmbientLightERK10ColorRGBAf
lzd:__ZN14ParticleSystem23UpdateLateTransformDataEv
aRe:__ZN5physx25PxcSweepConvexHeightfieldERKNS_11PxsCCDShapeES2_PKNS_12PxsRigidBodyES5_RKNS_11PxTransformES8_S8_S8_fRNS_6PxVec3ESA_RNS_10PxcNpCacheERNS_18PxcNpThreadContextEf
q8o:_LeanTween_cancel_m1020344705
$Oa:__ZN8Material26ResetAllCachedMaterialDataEP6Shader
_lh:_XsdValidatingReader_MoveToDefaultAttribute_m4268564530
PTi:__Z63RuntimeInvoker_Void_t1185182177_RuntimeObject_Int16_t2552820387PFvvEPK10MethodInfoPvPS4_
qBf:_UNITY_TT_Get_MM_Var
Oag:__ZN6il2cpp6icalls8mscorlib6System7Decimal13decimal2Int64EP19il2cpp_decimal_reprPx
o4n:_DateTimeOffset_CompareTo_m1350732322_AdjustorThunk
ba:invoke_diddi
Nfq:_XmlNodeListChildren_get_Count_m1121775181
cKf:__ZNK2UI6Canvas13GetRenderModeEv
lXm:_PersistentCall__ctor_m1217622171
cOm:_Array_compare_TisCustomAttributeTypedArgument_t2723150157_m1384644047_gshared
g6q:_unlink
Qxj:_GameManager_FSM_Update_Unloading_m3217633437
wMk:_InternalEnumerator_1_get_Current_m3361284138_AdjustorThunk
xTb:__Z18Transfer_BlittableI14SafeBinaryReadLb0EiEvRK29SerializationCommandArgumentsR31RuntimeSerializationCommandInfo
Zig:__ZN6il2cpp2vm13MetadataCache30GetPropertyDefinitionFromIndexEi
Ocm:_Enumerator_VerifyState_m1287616178_gshared
THq:_SymmetricTransform_Transform_m1683494363
Oye:__ZN5physx14NpRigidDynamic7releaseEv
OQf:__ZN22BaseUnityConnectClient17InitializeSessionERKN4core12basic_stringIcNS0_20StringStorageDefaultIcEEEES6_N19CloudServiceHandler13InitModeFlagsE
uKh:__ZL56KeyCollection_t4251528776_CustomAttributesCacheGeneratorP21CustomAttributesCache
G1i:__Z74RuntimeInvoker_RuntimeObject_Int32_t2950945753_RuntimeObject_RuntimeObjectPFvvEPK10MethodInfoPvPS4_
Uwn:_Decimal_op_Implicit_m1349849065
qNe:__ZN5physx6shdfnd8PoolBaseINS_21PxsBodyTransformVault13PxsBody2WorldENS0_19ReflectionAllocatorIS3_EEE15disposeElementsEv
wLp:_List_1_get_Item_m200663048_gshared
lE:__ZN15SerializeTraitsI9OffsetPtrIN7mecanim9animation23BlendDirectDataConstantEEE8TransferI24GenerateTypeTreeTransferEEvRS4_RT_
Jin:_XmlSchemaSet_AddGlobalComponents_m2268750022
gto:_Transform_1_Invoke_m3088361690_gshared
Ux:__ZNK14NavMeshManager23GetNavMeshBuildSettingsEi
MRc:__ZN13MonoBehaviour34StopCoroutineFromEnumeratorManagedE18ScriptingObjectPtr
QVd:__ZN5physx2Gu30computeCapsule_TriangleMeshMTDERKNS_22PxTriangleMeshGeometryERKNS_11PxTransformERNS0_8CapsuleVEffbRNS_10PxSweepHitE
cjq:_XmlTextWriter_Initialize_m3279439671
OLb:__ZN30RuntimeInitializeOnLoadManager8TransferI18StreamedBinaryReadILb0EEEEvRT_
t_n:_DateTimeOffset__ctor_m2084804982
Fxf:_UNITY_tt_face_load_pclt
_Qc:__ZL34GetComponentsImplementationRecurseILb1ELi0ELi2EEbR10GameObjectbRK17CompareParametersRK39GetComponentsImplementation_ReturnValue
K5e:__ZN5physx2Sc14ConstraintCore10breakApartEv
kJd:__ZN10ClipperLib7Clipper24InsertLocalMinimaIntoAELEx
K4a:__ZN20ComputeShaderVariantD2Ev
G$m:_Material_GetTexture_m3545614349
$So:_List_1_CheckIndex_m1157591368_gshared
jsd:__ZN16CustomDataModule8TransferI19StreamedBinaryWriteILb0EEEEvRT_
Rlk:_XmlSchemaTotalDigitsFacet_Read_m2720747555
_dh:_XdtUntypedAtomic__ctor_m3920464079
ghc:__ZNK6Camera18WorldToScreenPointERK8Vector3fPb
vzi:_ProxyElement_get_AutoDetect_m1058636068
gci:__ZL59ParticleRenderer_t1704730503_CustomAttributesCacheGeneratorP21CustomAttributesCache
gXe:__ZN5physx2Cm12DelegateTaskINS_10PxsContextEXadL_ZNS2_28mergeCMDiscreteUpdateResultsEPNS_10PxBaseTaskEEEE11runInternalEv
$9m:_SendMouseEvents_DoSendMouseEvents_m2140870850
Vbf:__ZN5physx19TriangleMeshBuilder10importMeshERKNS_18PxTriangleMeshDescERKNS_15PxCookingParamsEb
uXf:_CrossPlatformInputManager_SetAxis_m1144576044
$7n:_PatternCompiler_EmitJump_m3915926156
it:__ZN14NavMeshManager11RestoreTileEii
TVj:_PropertyInfo_SetValue_m2777755129
A9:__ZN11AudioSource19ApplyMinMaxDistanceERKNS_14ParameterCacheE12SoundChannel
sJm:_Array_InternalArray__ICollection_Contains_TisRaycastHit2D_t2279581989_m2733133723_gshared
rao:_RxCompiler_EmitInfo_m1901371564
qna:__ZNSt3__227__insertion_sort_incompleteIRPFbRKN18AwakeFromLoadQueue4ItemES4_EPS2_EEbT0_S9_T_
a4h:__ZL73RuntimePlatform_t4159857903_CustomAttributesCacheGenerator_MetroPlayerARMP21CustomAttributesCache
n_k:_InvalidOperationException__ctor_m1685032583
Zgg:__ZN14dense_hash_mapI10KeyWrapperIN6il2cpp5utils13dynamic_arrayIPK10Il2CppTypeLj4EEEEPFvvENS1_8metadata19Il2CppSignatureHashENS8_14EqualsComparerINSB_22Il2CppSignatureCompareEEENSt3__29allocatorINSG_4pairIKS8_SA_EEEEE15set_deleted_keyERSJ_
Mno:_TimeSpan_op_Subtraction_m3592306516
slj:__Z94RuntimeInvoker_RuntimeObject_Single_t1397266774_Single_t1397266774_RuntimeObject_RuntimeObjectPFvvEPK10MethodInfoPvPS4_
WIo:_EqualityComparer_1_System_Collections_IEqualityComparer_GetHashCode_m1517903420_gshared
rRb:__ZNK20LocalFileSystemPosix6ParentERK13FileEntryDataRN4core12basic_stringIcNS3_20StringStorageDefaultIcEEEE
Pre:__ZN5physx6shdfnd5ArrayINS_18PxClothFabricPhaseENS0_19ReflectionAllocatorIS2_EEE8recreateEj
xxb:__ZN26EnlightenSystemInformation8TransferI14SafeBinaryReadEEvRT_
zsd:__ZN13InitialModule5ResetEv
l4p:_ReadOnlyCollection_1_System_Collections_IList_Add_m3968477706_gshared
TKb:__ZN24GenerateTypeTreeTransfer8TransferINSt3__26vectorIN15ResourceManager10DependencyE13stl_allocatorIS4_L18MemLabelIdentifier52ELi16EEEEEEvRT_PKc17TransferMetaFlags
Z$q:_CanvasRenderer_SplitUIVertexStreams_m2753637362
faj:__Z119RuntimeInvoker_Void_t1185182177_RuntimeObject_Single_t1397266774_Single_t1397266774_SByte_t1669577662_Int32_t2950945753PFvvEPK10MethodInfoPvPS4_
qHe:__ZN5physx2Sq17SceneQueryManager11shiftOriginERKNS_6PxVec3E
mEb:__ZN12MeshRendererD0Ev
pda:__ZN12AudioManager35GetCurrentSpatializerDefinitionNameEv
UTd:__ZN5physx2Gu16sweepBoxTriangleERKNS_10PxTriangleERKNS_9PxBounds3ERKNS_6PxVec3ES9_RS7_SA_Rf
ucj:__Z69RuntimeInvoker_Void_t1185182177_Vector3_t3722313464_SByte_t1669577662PFvvEPK10MethodInfoPvPS4_
D$l:_NetCodeGroup_Copy_m2097688604
Yi:_utime
Fcf:__ZN5physx10writeChunkEaaaaRNS_14PxOutputStreamE
Ybo:_BalancingGroup_Compile_m2575117193
GV:__Z28SetExposedSkeletonTransformsRKN7mecanim9animation14AvatarConstantERKN11UnityEngine9Animation30AnimatorGenericBindingConstantERKNS_8skeleton13SkeletonPoseTIN4math4trsXEEERKNSA_INSB_7affineXEEERNS5_21AvatarBindingConstantEy
oog:__ZNSt3__26vectorIN6il2cpp2vm17TypeNameParseInfoENS_9allocatorIS3_EEE8allocateEj
hsj:_CheckCollisionMethods_CheckCollision_m1886232924
fZm:_GL_ClearWithSkybox_m2451836661
Q8:__ZN18AudioMixerSnapshot23VirtualRedirectTransferER19StreamedBinaryWriteILb0EE
c7n:_Mark_get_Index_m3048692661_AdjustorThunk
IWp:_Collection_1_IsValidItem_m638038382_gshared
Co:FUNCTION_TABLE_viiiiif
xam:_DefaultComparer_Compare_m3931992727_gshared
wp:FUNCTION_TABLE_viiiiii
_8l:_InternalEnumerator_1_System_Collections_IEnumerator_get_Current_m1847780851_AdjustorThunk
g8:__ZN5audio5mixer14EffectConstant8TransferI18StreamedBinaryReadILb0EEEEvRT_
hCq:_GUILayoutUtility_get_spaceStyle_m3392862907
T1l:_SecurityException_ToString_m3228070608
V8g:_DTDObjectModel_get_Empty_m2132593178
Cie:__ZN5physx2Sc9RigidCore13onShapeChangeERNS0_9ShapeCoreENS_7PxFlagsINS0_21ShapeChangeNotifyFlag4EnumEjEENS4_INS_11PxShapeFlag4EnumEhEE
sCl:_SmallXmlParser_Error_m3899025466
gX:__ZN7mecanim9animation22DestroyAvatarWorkspaceEPNS0_15AvatarWorkspaceERNS_6memory9AllocatorE
lw:__ZN12NavMeshAgent12AddToManagerEv
Hoo:_Type_type_is_assignable_from_m76737532
mwe:__ZN5physx6shdfnd5ArrayIPvNS0_15InlineAllocatorILj256ENS0_19ReflectionAllocatorINS_2Sc19ParticlePacketShapeEEEEEE15growAndPushBackERKS2_
Pfl:_XmlSchemaAny_get_AnyTypeContent_m1524638066
FTe:__ZN5physx17solveContactBlockEPKNS_23PxcSolverConstraintDescEjRNS_16PxcSolverContextE
Ocf:__ZN5physx6shdfnd10FoundationD2Ev
goc:__ZN15LightmapSTCacheC2ER13BatchRendererR15RenderLoopStats
aub:__ZN14PlayableOutput17SetSourcePlayableEP8Playable
GLb:__ZNSt3__26vectorIN4core12basic_stringIcNS1_20StringStorageDefaultIcEEEE13stl_allocatorIS5_L18MemLabelIdentifier13ELi16EEE8__appendEj
z1m:_Mesh_Internal_Create_m2853543051
_7:__ZN10AudioMixer8TransferI17RemapPPtrTransferEEvRT_
wW:__ZN7mecanim9animation29MotionOutputGetDeltaTransformEPKNS0_12MotionOutputE
yhl:_XmlSchemaCollectionEnumerator_MoveNext_m2114706089
Xrp:_Dictionary_2_System_Collections_IDictionary_Contains_m1258519976_gshared
b9p:_ReadOnlyCollection_1_System_Collections_Generic_ICollectionU3CTU3E_Add_m2369252587_gshared
HEd:__ZN24b2ChainAndCapsuleContact8EvaluateEP10b2ManifoldRK11b2TransformS4_
aFi:_FtpWebRequest__cctor_m699542155
GEi:_FtpDataStream_WriteInternal_m1021407502
K0c:__Z43Transform_CUSTOM_INTERNAL_get_localRotationP12Il2CppObjectP11Quaternionf
NNe:__ZN5physx2Sc10NPhaseCoreD2Ev
o6d:__ZN5physx2Sc7BodySim18onConstraintDetachEv
v4g:_X509Certificate2_GetValueAsString_m1348462142
jrn:_SiteIdentityPermission_set_Site_m1105079855
frn:_SecurityPermissionAttribute_set_SkipVerification_m4061350763
EFc:__ZZL23RegisterLightPropertiesR22GenericPropertyBindingEN20Wrapper_LightColorr013SetFloatValueEPvf
DNj:_ObjectReader_ReadObjectGraph_m340866276
Bj:_emscripten_glGetTexParameteriv
lGe:__ZN5physx7NpScene8simulateEfPNS_10PxBaseTaskEPvjb
hgq:_XmlNodeReader_get_IsEmptyElement_m1724206775
Pgr:_glGenTextures__wrapper
rXq:_UriTypeConverter_ConvertFrom_m3320288643
TJa:__ZN9ShaderLab20SerializedSubProgram14ConstantBufferaSERKS1_
aBc:__Z13RegisterClassI4MeshEvv
p8h:__ZL74SharedBetweenAnimatorsAttribute_t2857104338_CustomAttributesCacheGeneratorP21CustomAttributesCache
rrb:__ZN8PlayableD0Ev
Th:emscriptenWebGLGetBufferBinding
Epf:__ZN9Rigidbody5SleepEv
t3:__ZN12AudioManager8TransferI19StreamedBinaryWriteILb0EEEEvRT_
tgk:_Dropdown_Hide_m504034854
D6p:_ReadOnlyCollection_1_System_Collections_IList_RemoveAt_m214957151_gshared
aSi:__Z50RuntimeInvoker_Double_t594665363_Double_t594665363PFvvEPK10MethodInfoPvPS4_
t3b:__ZN18StreamedBinaryReadILb1EE21TransferSTLStyleArrayI13dynamic_arrayI11ColorRGBA32Lj4EEEEvRT_17TransferMetaFlags
Khk:_Graphic_SetLayoutDirty_m3972378721
Rgk:_U3CShowU3Ec__AnonStorey1_U3CU3Em__0_m2340880019
qfe:__ZN5physx18NpArticulationLink10clearForceENS_11PxForceMode4EnumE
Xeo:_ASCIIEncoding_GetString_m58523364
EQd:__ZN5physx2Gu30distanceSegmentTriangleSquaredERKNS_6PxVec3ES3_S3_S3_S3_PfS4_S4_
$Qb:__ZN22LocalFileSystemHandler9MakeLocalER13FileEntryDatab
FMn:_ASN1_DecodeTLV_m1200977460
pQg:__ZN6il2cpp2vm8Profiler10AllocationEP12Il2CppObjectP11Il2CppClass
n1p:_ReadOnlyCollection_1_System_Collections_Generic_ICollectionU3CTU3E_Add_m3377900538_gshared
wdo:_Uri_IsHexEncoding_m3290929897
nji:__ZL61Graphic_t1660335611_CustomAttributesCacheGenerator_m_MaterialP21CustomAttributesCache
NFf:__ZNSt3__23mapIN20TextRenderingPrivate7FontRefENS1_6OSFontENS_4lessIS2_EENS_9allocatorINS_4pairIKS2_S3_EEEEEixERS8_
JGa:__Z13FormatOrderedPKcz
DOn:_KeyPairPersistence_get_UseMachineKeyStore_m3206839918
zmg:__ZN6il2cpp2vm8basepathEPKc
a2g:_WebProxy_GetObjectData_m2475888157
uFm:_Selectable_IsPressed_m907486548
lDf:__ZN14SafeBinaryRead21TransferSTLStyleArrayI10vector_mapINSt3__24pairIttEEfN20TextRenderingPrivate8FontImpl14KerningCompareENS2_9allocatorINS3_IS4_fEEEEEEEvRT_17TransferMetaFlags
nzk:_TlsServerFinished__ctor_m1445633918
Igb:__ZN13dynamic_arrayI17SortingLayerEntryLj4EE6insertEPS0_jRKS0_
hPg:__ZN6il2cpp2vm6String21InitializeEmptyStringEP11Il2CppClass
W0g:_WebConnectionStream_CheckWriteOverflow_m962631185
Tnc:__ZN25DeferredRenderLoopScratchD0Ev
RQ:__ZN27AnimationLayerMixerPlayable14SetInputWeightEif
Lqp:_Dictionary_2_TryGetValue_m3495031886_gshared
P9n:_RxCompiler_GetMachineFactory_m3369675997
z0g:_WebConnectionGroup_GetConnection_m311125738
H2o:_Array_InternalArray__get_Item_TisKeyValuePair_2_t394687570_m3423013588_gshared
F9j:_PhysicsRaycaster_Raycast_m776323695
I6f:_UnityException__ctor_m1456865679
pO:__ZN7mecanim9animation17EvaluateHumanPoseERKNS0_18ClipMuscleConstantERKNS0_15ClipMuscleInputEPKfRKNS0_12MotionOutputERNS_5human9HumanPoseE
fPn:_PKCS1_Encrypt_v15_m1016948107
bJa:__ZN15dense_hashtableINSt3__24pairIKiN4core17string_with_labelILi1EEEEEi18SInt32HashFunctionN14dense_hash_mapIiS5_S7_NS0_8equal_toIiEE13stl_allocatorIS6_L18MemLabelIdentifier1ELi16EEE9SelectKeyESA_SD_E9copy_fromERKSG_j
Xll:_CustomAttributeNamedArgument_GetHashCode_m2317130892
oKb:__ZN15ResourceManagerD0Ev
Iua:__ZN22CreateGpuProgramOutputD2Ev
KZd:__ZNK5physx3Cct15ObstacleContext14getNbObstaclesEv
z9o:_LeanTween_moveMargin_m2754463346
aip:_Array_InternalArray__Insert_TisKeyValuePair_2_t3699644050_m3752538798_gshared
Vxd:__Z17UpdateSprites2TplIL27ParticleSystemCurveEvalMode2ELS0_3EEvfRK11MinMaxCurveS3_RK23ParticleSystemParticlesPf
F9e:__ZN5physx6shdfnd8PoolBaseINS_11NpAggregateENS0_19ReflectionAllocatorIS2_EEE12allocateSlabEv
JD:__ZN7mecanim9animation23BlendDirectDataConstant8TransferI14SafeBinaryReadEEvRT_
fln:_SHA1CryptoServiceProvider_Finalize_m1793183797
wRm:_AnimationCurve_get_keys_m1672862131
lKo:_HashSet_1_System_Collections_Generic_ICollectionU3CTU3E_CopyTo_m408073502_gshared
gxe:__ZN5physx7NpScene26removeFromParticleBaseListERNS_14PxParticleBaseE
Kiq:_XmlQualifiedName_op_Inequality_m3449274916
fOl:_CharConverter_CanConvertFrom_m2898499254
Wwe:__ZN5physx23NpParticleFluidReadData18getDataAccessFlagsEv
kQb:__ZN12HandlerChain4OpenER13FileEntryData14FilePermission16FileAutoBehavior
bsj:_CheckCollisionMethods_CheckCollision_m4213803495
Wqg:__ZN15dense_hashtableINSt3__24pairIK10KeyWrapperINS1_IPK10MethodInfoP11Il2CppClassEEEjEES9_17ReflectionMapHashIS8_EN14dense_hash_mapIS9_jSD_NS9_14EqualsComparerINS0_8equal_toIS8_EEEENS0_9allocatorISB_EEE9SelectKeyESI_SK_E6insertERKSB_
xjo:_UTF8Encoding_GetCharCount_m2272165989
Ydn:_XmlSchemaReader_RaiseInvalidElementError_m4265021746
jDj:_SpriteController_ChangeFrameTo_m3298482710
rFl:_Array_SetValue_m394135409
mra:__ZN14FileCacherReadD2Ev
mNb:__ZN13RendererScene23UpdatePreviousFrameDataEii
$_k:_BinaryWriter_Write_m973309864
d5l:_String_Remove_m562998446
HUc:__Z50Register_UnityEngine_CullingGroup_FinalizerFailurev
gEo:_Dictionary_2_ToTValue_m1614887080_gshared
WNb:__ZN27UnloadUnusedAssetsOperationD0Ev
o7q:__ZNKSt3__221__basic_string_commonILb1EE20__throw_out_of_rangeEv
FQe:__ZN5physx10PxsCCDPair12updateShapesEv
e0d:__ZNK5physx3Ext5JointINS_15PxDistanceJointENS_30PxDistanceJointGeneratedValuesEE16getInvMassScale1Ev
lpq:_ConfigurationProperty_get_IsKey_m3066172040
dTm:_Camera_get_hdr_m519996752
J3q:_UpdatedEventHandler_Invoke_m1320302085
Gin:_XmlSchemaSet_ClearGlobalComponents_m1816252391
IRi:__Z121RuntimeInvoker_Void_t1185182177_Int16_t2552820387_Int32_t2950945753_SByte_t1669577662_SByte_t1669577662_SByte_t1669577662PFvvEPK10MethodInfoPvPS4_
MMk:_InternalEnumerator_1_System_Collections_IEnumerator_get_Current_m1787482506_AdjustorThunk
smp:_Array_Sort_TisMoveDirection_t883568195_m1984224232_gshared
g1:__ZN9AudioClip23VirtualRedirectTransferER18StreamedBinaryReadILb0EE
UX:__ZN26AnimatorOverrideController23VirtualRedirectTransferER24GenerateTypeTreeTransfer
IYf:_StandaloneInput_SetButtonUp_m191088641
WKp:_List_1_AddEnumerable_m2724989594_gshared
Xse:__ZN5physx2Sc9ClothCore22removeCollisionCapsuleEj
n9i:__Z82RuntimeInvoker_Vector2_t2156229523_Vector2_t2156229523_RuntimeObject_RuntimeObjectPFvvEPK10MethodInfoPvPS4_
k6a:__ZN18GlslGpuProgramGLESC2ERK13dynamic_arrayIhLj1EER22CreateGpuProgramOutput
O3c:__Z70Register_UnityEngine_Playables_PlayableHandle_GetPlayableType_Injectedv
Ueh:_XsdEmptyValidationState__ctor_m2694895252
ewp:_EqualityComparer_1__cctor_m2587576321_gshared
w7d:__ZN5physx16PxsIslandManager25setArticulationLinkHandleEjPvRKNS_20PxsIslandManagerHookIjLj4294967295EEE
bl:_glCopyTexSubImage2D
Ekd:__ZNK21RotationBySpeedModule6UpdateERK27ParticleSystemReadOnlyStateRK19ParticleSystemStateR23ParticleSystemParticlesRKN4math7_float4Ejj
v0p:_ReadOnlyCollection_1_System_Collections_IList_Insert_m1104620799_gshared
N6f:_UnitySynchronizationContext_ExecuteTasks_m1310741010
ptc:__ZN18ScreenManagerWebGL13SetShowCursorEb
mdc:__ZN13DrawImmediateC2ER9GfxDevice
F4q:_frexp
o0n:_Convert_ToInt64_m2849840611
zrb:__ZN10GUIElement12AddToManagerEv
lhe:__ZN5physx6shdfnd5ArrayIPNS_3Scb5ShapeENS0_15InlineAllocatorILj16ENS0_19ReflectionAllocatorIS4_EEEEE15growAndPushBackERKS4_
iUb:__Z18Transfer_BlittableI14SafeBinaryReadLb0E5RectTIfEEvRK29SerializationCommandArgumentsR31RuntimeSerializationCommandInfo
Bbl:_NumberFormatter_NumberToString_m2562899600
qwf:_otv_u_C_x_Ox
YOo:_Enumerator_VerifyState_m1965038014_AdjustorThunk
PXa:__ZN18AsyncUploadManager19AsyncResourceUploadER9GfxDeviceii9TextureID
$Ua:__ZN14GfxContextGLES14GetFramebufferEv
$Xk:_InternalEnumerator_1_get_Current_m3137297323_gshared
e9o:_LeanTween_delayedCall_m2076315662
KZa:__ZN6prcoreL21CreateRemapAnyBlitterE13TextureFormatS0_
HNc:__ZN17AnimationCurveTplIfE16StripInvalidKeysEv
RHl:_Boolean_Equals_m535526264_AdjustorThunk
g4f:_WaypointList__ctor_m2673417506
vJm:_Array_InternalArray__ICollection_Contains_TisTouch_t1921856868_m354355717_gshared
jKf:__ZNK2UI6Canvas17GetSortingLayerIDEv
kQc:__ZL12HashLen0to16PKcj
EGd:__ZN14Raycast2DQuery8RunQueryEb
SAc:__Z13RegisterClassI17GlobalGameManagerEvv
Awa:__ZN8Renderer24SetupNewRendererForSceneEv
Boo:_Type_internal_from_name_m1721940673
Fxg:_il2cpp_type_get_class_or_element_class
JAn:_Environment_get_TickCount_m2088073110
F3j:_RemotingServices_GetMethodBaseFromName_m3194612939
kdd:__Z35Transfer_Blittable_FixedBufferFieldI8JSONReadtEvRK29SerializationCommandArgumentsR31RuntimeSerializationCommandInfo
a0e:__ZN5physx2Sc8ClothSim16addCollisionMeshEPKNS0_8ShapeSimE
xIc:__ZN14PlayableOutput6HandleEv
uzb:__ZNK6Sprite22GetTypeVirtualInternalEv
vUf:__ZN13RuntimeStaticINSt3__26vectorI23UnityVRDeviceDefinition13stl_allocatorIS2_L18MemLabelIdentifier90ELi16EEEELb0EE13StaticDestroyEPv
qp:FUNCTION_TABLE_iiiiiiiiiiiiii
d5e:__ZN5physx6shdfnd5ArrayIPKNS_10PxsCCDBodyENS0_19ReflectionAllocatorIS4_EEE8recreateEj
r5j:_ReturnMessage_GetArg_m3510565487
fhe:__ZN5physx6shdfnd4sortINS_2Cm19PreallocatingRegionENS0_4LessIS3_EENS0_19ReflectionAllocatorIS3_EEEEvPT_jRKT0_RKT1_j
jkm:_Enumerator_get_Current_m2925314856_AdjustorThunk
Mnb:__ZN11Tetrahedron8TransferI24GenerateTypeTreeTransferEEvRT_
hxf:_UNITY_tt_get_cmap_info
W_b:__Z29Transfer_Blittable_ArrayFieldI24GenerateTypeTreeTransfer5RectTIiEEvRT_R9ArrayInfoRK23StaticTransferFieldInfo
uob:__ZN16ReflectionProbes8ScheduleEN18ReflectionProbeJob7JobTypeEP15ReflectionProbei
y8:__ZN15AudioMixerGroup23VirtualRedirectTransferER18StreamedBinaryReadILb0EE
tKf:__ZN13dynamic_arrayIN2UI13UIInstructionELj4EE12emplace_backEv
ZHk:_ReturnCallback_2_Invoke_m128340005_gshared
vyn:_Double_System_IConvertible_ToChar_m285688079
fbb:__Z18IsDirectoryCreatedRKN4core12basic_stringIcNS_20StringStorageDefaultIcEEEE
J_l:_String_FormatHelper_m3913915042
hfh:_XsdBase64Binary_get_TypeCode_m4177753292
iJf:__ZN2UI13CanvasManagerD2Ev
Bzd:__ZZN14ParticleSystem15InitializeClassEvEN52PreLateUpdateParticleSystemBeginUpdateAllRegistrator7ForwardEv
e4j:_MethodDictionary_IsOverridenKey_m946843558
Vll:_CustomAttributeData_GetHashCode_m3727773664
oFf:_UNITY_FT_GlyphLoader_Done
rnq:_Configuration_get_RootSectionGroup_m1677073719
uff:__ZN19CharacterController12SetIsTriggerEb
wYf:_MobileInput_SetAxisZero_m4114279636
YGd:__ZN19OverlapPointQuery2D14InitializeAABBER6b2AABB
hyn:_StackTrace_get_FrameCount_m344690939
V1k:_FileStream_BeginRead_m2419864669
w6k:_UnexceptionalStreamWriter_Write_m363195622
mUe:__ZN5physx18ComputeSortedListsEPNS_2Cm10BitMapBaseINS_6shdfnd9AllocatorEEEjjPKjPPNS_8SapBox1DES7_PjSB_jRKNS_2Gu4AxesESB_RjSB_SG_RbSH_
DHm:_Array_get_swapper_TisRuntimeObject_m1378919517_gshared
jM:__ZN15SerializeTraitsIN4math4trsXEE8TransferI19StreamedBinaryWriteILb0EEEEvRS1_RT_
i2q:_Physics2D_Raycast_m1700114981
vwm:_Selectable_OnPointerDown_m1086067264
tCf:_psh_globals_new
igk:_Dropdown_SetupTemplate_m628218778
xFn:_Guid_Equals_m3683678873_AdjustorThunk
YIj:_TriggeredBehaviour_Sequencer_OnUpdatePlaying_m3374221851
Tjo:_Thread_GetCompressedStack_m2923422412
F9m:_SceneManager_add_sceneLoaded_m3678832055
r3g:_X509BasicConstraintsExtension_ToString_m1809935297
yPa:__ZN9GfxDevice20SetMaxBufferedFramesEi
zGf:__ZNK20TextRenderingPrivate8TextMesh22GetTypeVirtualInternalEv
aHq:_TweenRunner_1_StartTween_m1055628540_gshared
lzo:_ValueCollection_System_Collections_Generic_ICollectionU3CTValueU3E_Clear_m3688353539_gshared
NAd:__ZN10Collider2D19WakeAllBodyContactsEv
I1o:_GameObject_GetComponents_TisRuntimeObject_m1246177135_gshared
aar:dynCall_vdd
r7k:_MethodAccessException__ctor_m3542088436
uvc:__Z23ConvertIntegerToTypePtrIsEbPvR14SafeBinaryRead
Pwq:_SubjectAltNameExtension_get_DNSNames_m1496591094
ZCd:__ZN12b2MouseJoint11ShiftOriginERK6b2Vec2
xXl:_ConnectionManagementElementCollection_GetElementKey_m2780015538
u$k:_CStreamReader_Peek_m278635384
uce:__ZNK5physx14NpArticulation17releaseDriveCacheERNS_24PxArticulationDriveCacheE
TQl:_PropertyDescriptorCollection_System_Collections_IList_Insert_m3883125779
B8:__ZN15AudioMixerGroup23VirtualRedirectTransferER14SafeBinaryRead
ymi:__ZL60ContentSizeFitter_t3850442145_CustomAttributesCacheGeneratorP21CustomAttributesCache
wUn:_Hashtable_Contains_m2145146412
lWh:__ZL64UnmarshalledAttribute_t1517743549_CustomAttributesCacheGeneratorP21CustomAttributesCache
PLc:__ZN4Mesh24UpdateSubMeshVertexRangeEi
yse:__ZNK5physx2Sc9ClothCore25getSelfCollisionStiffnessEv
Sid:__Z13UpdateSizeTplIL27ParticleSystemCurveEvalMode3EEvRK11MinMaxCurveR23ParticleSystemParticlesbjj
wml:_TypeBuilder__ctor_m3644689907
sz:__ZN15NavMeshObstacle11UpdateStateEv
f$p:_ReadOnlyCollection_1_System_Collections_Generic_IListU3CTU3E_RemoveAt_m2646830706_gshared
MGn:_Int32_FindCurrency_m3541026887
D6n:_Interval_CompareTo_m3282557545
enc:__ZNK14RenderSettings19GetFlatAmbientColorEv
kZa:__ZN6prcoreL10inner_flipILj4EEEvPhS1_j
YIb:__ZN18StreamedBinaryReadILb0EE21TransferSTLStyleArrayI10vector_mapIPKN5Unity4TypeE7Hash128NSt3__24lessIS6_EENS8_9allocatorINS8_4pairIS6_S7_EEEEEEEvRT_17TransferMetaFlags
OS:__ZNK27StateMachineBehaviourPlayer15IsSenderEnabledEv
oXq:_UriTypeConverter_CanConvert_m4004296934
BAp:_RijndaelManagedTransform_TransformBlock_m1610137419
jkh:_XsdUnsignedInt_get_TypeCode_m1906451888
p1c:__Z40Register_UnityEngine_Transform_SetParentv
pkp:_Array_InternalArray__set_Item_TisSingle_t1397266774_m1986764072_gshared
phn:_XmlSchemaReader_get_AttributeCount_m3551802212
jBb:__ZN14Texture2DArray17UploadToGfxDeviceEv
ijh:_XsdNonNegativeInteger_ParseValueType_m3443638529
HPl:_EnumConverter_GetStandardValues_m4039038506
Tzq:_Event_set_displayIndex_m1342258734
a5:__Z14FMODMemoryFreePvjPKc
bpq:_ConfigurationElement_get_LockAllElementsExcept_m1213844953
qGn:_Int16_System_IConvertible_ToType_m3672347013
m9f:_NetFxCoreExtensions_GetMethodInfo_m444570327
soo:_Type_get_IsSystemType_m624798880
jlc:__Z14SetSHConstantsR13BatchRendererR17ShaderPassContextRK20SphericalHarmonicsL2b
Yv:__ZN12NavMeshAgent10SmartResetEv
gzf:_tt_cmap0_validate
lJl:_Char_System_IConvertible_ToDecimal_m3534906463
ttf:_cf2_glyphpath_moveTo
Tqk:_XmlElement_set_IsEmpty_m6933664
hKe:__ZN5physx3Scb4Body9syncStateEv
j8f:_Vector3_get_magnitude_m27958459_AdjustorThunk
KWj:_TypeDelegator_IsPointerImpl_m458295709
$Hd:__ZNK13BoxCollider2D22GetTypeVirtualInternalEv
Tan:_StackTraceUtility_SetProjectFolder_m830524047
Ege:__ZN5physx12PxsRigidBody23updatePoseDependenciesVERNS_10PxsContextE
pP:__ZN7mecanim23TransformValueArrayLoopEiiiRKN4math4trsXES3_RNS_10ValueArrayEf
Gzk:_ClientSessionInfo_Finalize_m2165787049
R5c:__ZN5IMGUI14GUIWindowStateD2Ev
Dyk:_ClientContext_Clear_m1774063253
dMc:__ZN4Mesh17SetIndicesComplexEPKvjj16GfxPrimitiveTypeij
Vwd:__Z20UpdateWholeSheet2TplIL27ParticleSystemCurveEvalMode1ELS0_0EEvfRK11MinMaxCurveS3_RK23ParticleSystemParticlesPf
RUg:_GC_is_heap_ptr
B6f:_RequestAtlasCallback_Invoke_m378128467
tIl:_Byte_System_IConvertible_ToSByte_m1869482168
BAg:__GLOBAL__sub_I_Assembly_cpp
xXi:__Z99RuntimeInvoker_RuntimeObject_RuntimeObject_RuntimeObject_StreamingContext_t3711869237_RuntimeObjectPFvvEPK10MethodInfoPvPS4_
zlp:_Array_qsort_TisUIVertex_t4057497605_TisUIVertex_t4057497605_m678708019_gshared
ebc:__Z21PlayerStartFirstSceneb
IV:__ZN7mecanim5human10RetargetToEPKNS0_5HumanEPKNS0_9HumanPoseES6_RKN4math4trsXEPS4_PNS_8skeleton13SkeletonPoseTIS8_EESF_
hP:__ZN7mecanim9animation8SeekClipERKNS0_12StreamedClipERNS0_18StreamedClipMemoryEf
oYm:_GameObject_Internal_AddComponentWithType_m3797731663
Mn:_emscripten_glIsTexture
KK:__ZN24CompressedAnimationCurveaSERKS_
qm:_emscripten_glHint
lid:__ZN15PolynomialCurve22IsValidPolynomialCurveERK17AnimationCurveTplIfE
lIq:_Check_SourceAndPredicate_m2332465641
xLd:__ZZN10Collider2D15InitializeClassEvEN30FunctorImpl_98kDidAddComponent4CallEPviR11MessageData
cBf:_ft_var_readpackeddeltas
J_f:_CameraMotionBlur__ctor_m2265949415
_1b:__Z35Transfer_Blittable_FixedBufferFieldI18StreamedBinaryReadILb1EEtEvRK29SerializationCommandArgumentsR31RuntimeSerializationCommandInfo
Uqo:_UInt32_System_IConvertible_ToInt64_m2261037378
Pn:_SDL_UpperBlit
qob:__Z35GetTextureDecodeValuesWithIntensity16TextureUsageMode17TextureColorSpace10ColorSpacef
$8n:_Parser_ParseRepetitionBounds_m1246581246
UJm:_Array_InternalArray__ICollection_Remove_TisChar_t3634460470_m4143749387_gshared
Adc:__ZN15dense_hashtableINSt3__24pairIK9TextureIDiEES2_14GfxGenericHashIS2_EN14GfxDoubleCacheIS2_iS6_NS0_8equal_toIS2_EEN31GfxDoubleCacheConcurrencyPolicy11LocklessGetE42GfxDoubleCacheDefaultEmptyDeletedGeneratorIS2_EE9SelectKeyES9_13stl_allocatorIS4_L18MemLabelIdentifier24ELi16EEE14squash_deletedEv
moe:__ZNK5physx7NpShape16getContactOffsetEv
hWe:__ZN5physx14PxsAABBManager21processAggregatePairsEPKNS_19AggregateSortedDataE
_Ol:_DefaultValueAttribute__ctor_m2978984
UCd:__ZNK12b2MouseJoint10GetAnchorAEv
vmf:_PxCreateCooking
eun:_GregorianCalendar__ctor_m979779718
UCk:_SslClientStream__ctor_m2402546929
V7b:__ZN14SafeBinaryRead20OverrideRootTypeNameEPKc
ALl:_DictionaryNodeEnumerator_get_Entry_m2309234501
qra:__ZN14FileCacherRead16UnlockCacheBlockEj
sY:__ZN26AnimatorOverrideController8TransferI24GenerateTypeTreeTransferEEvRT_
Oza:__ZN10InstancingL21OnGraphicsCapsChangedEv
mmo:_WaitHandle_get_Handle_m3260446580
LRl:_SByteConverter_ConvertFromString_m2841176301
GRo:_Enumerator_VerifyState_m1745883925_AdjustorThunk
fhh:_XsdGYearMonth_get_TypeCode_m4193010579
_d:_emscripten_glUniform1f
YVn:_SortedList__ctor_m1261191695
fAc:__ZN13dynamic_arrayIS_I8Vector2fLj4EELj4EE18resize_initializedEjRKS1_12ResizePolicy
TFf:__Z20ParseImageParametersR11UTF16StringRiRN20TextRenderingPrivate16TextFormatChangeE
nmi:__ZL55CanvasScaler_t2767979955_CustomAttributesCacheGeneratorP21CustomAttributesCache
de:_emscripten_glUniform1i
iAp:_RC2CryptoServiceProvider_CreateEncryptor_m1615052595
sZb:__Z18Transfer_BlittableI24GenerateTypeTreeTransferLb1EN4math12int3_storageEEvRK29SerializationCommandArgumentsR31RuntimeSerializationCommandInfo
N3e:__ZN5physx2Sc19ShapeInstancePairLL23postIslandGenSecondPassEv
Mgf:__ZN14PhysicsManager23VirtualRedirectTransferER19StreamedBinaryWriteILb0EE
XKa:__ZN9ShaderLab16SerializedTagMapaSERKS0_
iOm:_Array_compare_TisColor32_t2600501292_m4193482037_gshared
uga:__ZN11UnityEngine15CloudWebService16SessionContainer20RestoreSessionHeaderERKN4core12basic_stringIcNS2_20StringStorageDefaultIcEEEES8_RNS0_13SessionHeaderE
wPe:__ZN5physx2Sq16BucketPrunerCore12updateObjectERKNS_9PxBounds3ERKNS0_13PrunerPayloadE
_2e:__ZN5physx18PxsDynamicsContext23atomIntegrationParallelEfPKPNS_11PxsBodyCoreEPKPNS_12PxsRigidBodyEjPKNS_2Cm13SpatialVectorEPNS_13PxcSolverBodyEPNS_17PxcSolverBodyDataEPSA_RjSI_RNS_10PxBaseTaskE
WW:__ZN11UnityEngine9Animation27CreateAvatarBindingConstantER9TransformPKN7mecanim9animation14AvatarConstantERNS3_6memory9AllocatorE
TVi:__Z151RuntimeInvoker_RuntimeObject_Int32_t2950945753_RuntimeObject_ObjectU5BU5DU26_t712384779_RuntimeObject_RuntimeObject_RuntimeObject_ObjectU26_t2146539884PFvvEPK10MethodInfoPvPS4_
$Rc:__ZN9BlobWriteC2ER13dynamic_arrayIhLj16EE24TransferInstructionFlags19BuildTargetPlatform
mt:__ZN12NavMeshAgent14OnNavMeshAddedEv
Epa:__ZN14MessageHandler3GetEv
_Bh:__ZL70ReliabilityContractAttribute_t502331440_CustomAttributesCacheGeneratorP21CustomAttributesCache
vXa:__ZN10DynamicVBO9DrawChunkERK21DynamicVBOChunkHandle17ShaderChannelMaskS3_P17VertexDeclarationPKNS_10DrawParamsEi
Qym:_LayoutGroup_SetLayoutInputForAxis_m2458344630
se:_emscripten_glAttachShader
$xc:__Z16tesedgeIntersectP10TESSvertexS0_S0_S0_S0_
F1f:_Triangles_HasMeshes_m1063919596
mla:__Z40DebugStringToFilePostprocessedStacktraceRK21DebugStringToFileData
nLa:__ZNSt3__26vectorIN4core12basic_stringIcNS1_20StringStorageDefaultIcEEEENS_9allocatorIS5_EEE6assignIPS5_EENS_9enable_ifIXaasr21__is_forward_iteratorIT_EE5valuesr16is_constructibleIS5_NS_15iterator_traitsISC_E9referenceEEE5valueEvE4typeESC_SC_
i0:__Z42Animator_CUSTOM_INTERNAL_get_deltaPositionP12Il2CppObjectP8Vector3f
pXd:__ZN5physx2Gu19GetRaycastFuncTableEv
m6o:_LeanTween_spring_m2032360318
GIi:_IPEndPoint_Equals_m306328693
Xeh:_XsdElementValidationState__ctor_m1389462036
Ngh:_XsdGMonth__ctor_m833949263
EXl:_ConnectionManagementSection_get_ConnectionManagement_m3719502710
RTb:__Z18Transfer_BlittableI14SafeBinaryReadLb0E11QuaternionfEvRK29SerializationCommandArgumentsR31RuntimeSerializationCommandInfo
YHd:__ZN13BoxCollider2D16CheckConsistencyEv
F3e:__ZN5physx17EdgeChangeManager23cleanupBrokenEdgeEventsEPKNS_4EdgeE
e5b:__Z18Transfer_BlittableI18StreamedBinaryReadILb0EELb1E12PropertyNameEvRK29SerializationCommandArgumentsR31RuntimeSerializationCommandInfo
kmh:_XsdWildcard_Reset_m2121209751
Vka:_tlsf_walk_heap
djh:_XsdNMTokens_GetValidatedArray_m941140406
DWi:__Z49RuntimeInvoker_Void_t1185182177_OpCode_t123070264PFvvEPK10MethodInfoPvPS4_
t2d:__ZN5physx2Sc35ParticleElementRbElementInteraction7destroyEbj
Qmg:__ZN6il2cpp2vm7Runtime6InvokeEPK10MethodInfoPvPS5_PP15Il2CppException
d8p:_ReadOnlyCollection_1_System_Collections_ICollection_CopyTo_m353321451_gshared
B1n:_Convert_ToUInt32_m3592050311
Xb:invoke_vif
x1o:_Component_GetComponents_TisRuntimeObject_m2416546752_gshared
Yb:invoke_vid
G7q:__ZNSt3__212basic_stringIcNS_11char_traitsIcEENS_9allocatorIcEEE6insertEjPKc
uw:__ZN12CrowdManager21UpdateAgentParametersEyPK16CrowdAgentParams
_b:invoke_vii
Hgc:__ZNK12ImageFilters8DoRenderER17ShaderPassContextP13RenderTextureS3_RKNSt3__26vectorI11ImageFilterNS4_9allocatorIS6_EEEE
AIe:__ZN5physx13NpVolumeCacheD2Ev
T9a:__ZN12TLSAllocatorI14StackAllocatorE16ThreadInitializeEP13BaseAllocator
EXi:__Z82RuntimeInvoker_Boolean_t97287965_SByte_t1669577662_RuntimeObject_SByte_t1669577662PFvvEPK10MethodInfoPvPS4_
CIi:_IPEndPoint_Serialize_m504081642
KVl:_GZipStream_Read_m2373086629
YPa:__ZN9GfxDevice32UpdateStereoViewProjectionMatrixE21MonoOrStereoscopicEye
A0e:__ZThn8_N5physx2Sc35ParticleElementRbElementInteraction12onDeactivateEj
Azq:_X509Store_BuildCrlsCollection_m1991312527
jMf:__Z41CanvasRenderer_CUSTOM_DisableRectClippingP12Il2CppObject
C8k:_MonoType_GetConstructorImpl_m441167626
rSe:__ZN5physx16PxsThreadContextC2EPNS_10PxsContextE
Y9o:_LeanTween_scaleZ_m4099268119
beb:__ZN25SingleBlockMemoryFileDataD0Ev
_9a:__ZNSt3__26vectorI14ConstantStringNS_9allocatorIS1_EEE6assignINS_11__wrap_iterIPS1_EEEENS_9enable_ifIXaasr21__is_forward_iteratorIT_EE5valuesr16is_constructibleIS1_NS_15iterator_traitsISA_E9referenceEEE5valueEvE4typeESA_SA_
INd:__ZN5physx3Cct10Controller4moveERNS0_11SweptVolumeERKNS_6PxVec3EffRKNS_19PxControllerFiltersEPKNS_17PxObstacleContextEb
pga:__ZN11UnityEngine15CloudWebService16SessionContainer21ConvertFromFolderTimeERKN4core12basic_stringIcNS2_20StringStorageDefaultIcEEEEPjPt
GDl:_AppDomain_ValidateAssemblyName_m3361007214
xMb:__Z15UnloadGameScenev
CVb:__ZNSt3__26vectorI8GUIStyle13stl_allocatorIS1_L18MemLabelIdentifier1ELi16EEE7reserveEj
XOq:_DispatcherEmitter_BoxIfNeeded_m956858524
xBg:__ZN6il2cpp6icalls8mscorlib6System9Threading6Thread27GetSerializedCurrentCultureEP12Il2CppThread
bAk:_Context_set_ReadSequenceNumber_m2154909392
wAp:_RijndaelTransform_SubByte_m3037693507
ATm:_Camera_ScreenToWorldPoint_m3978588570
Xwc:__Z31CalculateHierarchyTransformType23TransformAccessReadOnly
pBc:__Z13RegisterClassI11TimeManagerEvv
W8n:_ExpressionCollection_Add_m41125344
T4:__ZN4FMOD8ChannelI11setPositionEjj
xbl:_NumberFormatter_FastIntegerToString_m390846811
u_m:_Input_INTERNAL_CALL_GetTouch_m3481893561
pJm:_Array_InternalArray__ICollection_Contains_TisParticleCollisionEvent_t4055032941_m655273163_gshared
MSg:_GC_set_fl_marks
c9d:__ZN5physx6shdfnd8PoolBaseINS_2Sc12SimStateDataENS0_19ReflectionAllocatorIS3_EEE17releaseEmptySlabsEv
Kjk:_Image__ctor_m2551076292
$Pa:__ZN9GfxDevice17SetStereoViewportE15StereoscopicEyeRK5RectTIiE
$fq:_XmlNodeReader_get_AttributeCount_m4039343164
eGa:__ZN17BaseObjectManager13StaticDestroyEPv
K$q:_CanvasRenderer_INTERNAL_CALL_GetColor_m597074473
ijo:_UTF7Decoder_GetChars_m3413809261
xRd:__ZN5physx2Gu22closestPtPointTriangleEPNS_6shdfnd3aos5Vec3VES4_S4_Rj
APm:_Array_InternalArray__IndexOf_TisKeyValuePair_2_t4237331251_m1795282647_gshared
Zie:__ZN5physx2Cm8PtrTableC2Ev
E5f:_Vector3_get_forward_m3100859705
L3:__ZN4FMOD6Reverb13setPropertiesEPK22FMOD_REVERB_PROPERTIES
sic:__ZN9DepthPass13PrepareSubsetEjRK10RenderNodeifRK17ShaderReplaceData
BVe:__ZN5physx16PxsBroadPhaseMBP6updateEjjRKNS_23PxcBroadPhaseUpdateDataEPNS_10PxBaseTaskE
Nme:__ZN5physx9NpPhysics18createRigidDynamicERKNS_11PxTransformE
xKm:_Array_InternalArray__ICollection_Remove_TisLabelData_t360167391_m3556246844_gshared
T3d:__ZN5physx6shdfnd5ArrayIPvNS0_19ReflectionAllocatorINS_2Sc18TriggerInteractionEEEE15growAndPushBackERKS2_
aKa:__ZN9ShaderLab20SerializedSubProgram16TextureParameter8TransferI14SafeBinaryReadEEvRT_
bTl:_ConfigurationException__ctor_m724544360
Shp:_Array_InternalArray__Insert_TisKeyValuePair_2_t2282011232_m974654963_gshared
JMc:__Z35SetMeshComponentFromArrayFromScriptR4Mesh30InternalScriptingShaderChannel34InternalScriptingVertexChannelTypei17ScriptingArrayPtri
GOc:__Z18ExtractTagThrowingR11ICallString
rfl:_XmlSchema_FindElement_m2161192357
Tep:_Array_InternalArray__ICollection_Add_TisCustomAttributeNamedArgument_t287865710_m4157175270_gshared
A_l:_StrongName__ctor_m2041757769
RUd:__ZN5physx2Gu17intersectRayAABB2ERKNS_6shdfnd3aos5Vec3VES5_S5_S5_RKNS2_6FloatVERS6_S9_
Zu:__ZN4core20StringStorageDefaultIcE6assignEPKcj
hZo:_Array_Sort_TisGOType_t2877542885_m3534282527_gshared
R7g:_CILCompiler_EmitOpIgnoreReverse_m1695862443
$om:_KeyCollection_System_Collections_Generic_ICollectionU3CTKeyU3E_Remove_m1071033400_gshared
Tqn:_RegistryPermission_Union_m2246320591
Vne:__ZNK5physx7NpShape17getSphereGeometryERNS_16PxSphereGeometryE
xtk:_BigInteger_ModPow_m3776562770
Emh:_XmlTextReader_get_IsEmptyElement_m3600700216
TWd:__ZL18intersectAnyVsMeshILi1EEbPKN5physx2Gu6SphereEPKNS1_7CapsuleEPKNS1_3BoxERKNS1_13RTreeMidphaseERKNS0_11PxTransformERKNS0_11PxMeshScaleEP14LimitedResults
OIg:__ZN15dense_hashtableINSt3__24pairIK10KeyWrapperIP12Il2CppObjectEN6il2cpp2gc9CachedCCWEEES5_NS7_5utils11PointerHashIS3_EEN14dense_hash_mapIS5_S9_SD_NS5_14EqualsComparerINS0_8equal_toIS4_EEEENS0_9allocatorISA_EEE9SelectKeyESI_SK_E3endEv
P1g:_WebHeaderCollection_RemoveInternal_m2712218737
gGc:__ZN15SharedLightDataC2E10MemLabelId
qQn:_ArrayList_IndexOf_m305368842
_Lg:__ZN6il2cpp2osL22CheckLibraryVariationsEPKci
Vxg:__ZN15dense_hashtableINSt3__24pairIK10KeyWrapperINS1_IP11Il2CppClassjEEES4_EES6_N6il2cpp8metadata14ArrayClassHashEN14dense_hash_mapIS6_S4_SB_NS6_14EqualsComparerINSA_17ArrayClassCompareEEENS0_9allocatorIS8_EEE9SelectKeyESF_SH_E9copy_fromERKSK_j
k7d:__ZN5physx6shdfnd5ArrayIPvNS0_15InlineAllocatorILj256ENS0_19ReflectionAllocatorINS_2Cm5BlockIhLj128EEEEEEEE15growAndPushBackERKS2_
trc:__ZN6Camera6SetFarEf
pMj:_FormatterConverter_ToBoolean_m1680758923
SNc:__ZNK17AnimationCurveTplI11QuaternionfE13EvaluateClampEfPNS1_5CacheE
A_a:__ZN6prcoreL12RemapGenericI17TexFormatABGR888817TexFormatARGB8888EEvPKNS_9InnerInfoE
Zeb:__ZN11GameManager17MainThreadCleanupEv
m1p:_ReadOnlyCollection_1__ctor_m1345363288_gshared
RNf:__Z50Register_UnityEngine_UISystemProfilerApi_EndSamplev
H1o:_ExecuteEvents_GetEventList_TisRuntimeObject_m3803188029_gshared
Ysm:_Transform_1_BeginInvoke_m523841368_gshared
kAq:_GUI_INTERNAL_CALL_DoLabel_m2007226197
_Hm:_Array_InternalArray__ICollection_Contains_TisPoolID_t885761356_m3086913627_gshared
brf:__Z52Register_UnityEngine_Rigidbody_INTERNAL_get_rotationv
Ykk:_XmlChar_IsNCName_m2365231717
hId:__ZN10Collider2D12AddToManagerEv
yhd:__ZN14ParticleSystem10ResetSeedsEv
wNj:_SerializationCallbacks_GetSerializationCallbacks_m2939476649
xqe:__ZNK5physx7NpCloth24getParticleAccelerationsEPNS_6PxVec4E
dUn:_Hashtable__cctor_m4112166779
Nzf:_UNITY_tt_slot_init
Bec:__ZZ23InitPlayerLoopCallbacksvEN41PostLateUpdateUpdateResolutionRegistrator7ForwardEv
R6b:__Z25scripting_array_class_get17ScriptingClassPtrj
mbd:__ZL22Transfer_ManagedObjectI9JSONWriteLb1EEvRK29SerializationCommandArgumentsR31RuntimeSerializationCommandInfo
Q0:__ZNK10SampleClip22GetTypeVirtualInternalEv
iRa:__ZN9GfxDevice20DestroyRenderSurfaceER12ObjectHandleI17RenderSurface_TagP17RenderSurfaceBaseE
AXn:_Stack__ctor_m2602729586
Jzc:__ZL24PrepareSpriteRenderNodesILb1EEvR35RenderNodeQueuePrepareThreadContext
p8a:__ZN9GfxDevice22UpdateComputeResourcesEjPK9TextureIDPK16TextureDimensionPKijPKjjPK15ComputeBufferIDS7_PK20ComputeBufferCounterjSC_S2_S5_S9_SF_
fsa:__ZN12_GLOBAL__N_15qAsinEff
M8g:_DTDEntityDeclarationCollection_get_Item_m883323424
QVf:_MouseLook__ctor_m3783616409
U9a:__ZN12TLSAllocatorI14StackAllocatorE13ThreadCleanupEv
jsp:_Dictionary_2_get_Item_m2136868513_gshared
LNq:_ValueType_InternalEquals_m1384040357
Czg:__ZN6il2cpp2vm6Thread12UnInitializeEv
jcj:__Z145RuntimeInvoker_Void_t1185182177_Single_t1397266774_Single_t1397266774_Single_t1397266774_Single_t1397266774_Single_t1397266774_Single_t1397266774PFvvEPK10MethodInfoPvPS4_
ZPq:_AudioClip_add_m_PCMReaderCallback_m4156331313
jQg:__ZThn4_N6il2cpp2vm13ComObjectBase16MarshalInterfaceEP13Il2CppIStreamRK10Il2CppGuidPvjS7_j
D9b:__Z27FindActiveTransformWithPathPKc
C6p:_ReadOnlyCollection_1_System_Collections_IList_Remove_m4169110229_gshared
xqo:_UInt16_ToString_m3020002356
mEe:__ZN5physx16PxsIslandManager14setEdgeRigidCMERKNS_20PxsIslandManagerHookIjLj4294967295EEEPNS_17PxsContactManagerE
mzm:_LayoutRebuilder_LayoutComplete_m68578143
$pb:__ZN7Texture5ResetEv
VBq:_GUIStyle_get_fixedWidth_m2576616348
qWn:_SortedList_Find_m3363512987
a8e:__ZN5physx2Gu11HeightField7releaseEv
Ama:__ZNK6Camera7GetNearEv
yql:_GenericTypeParameterBuilder_GetConstructorImpl_m863833310
oz:__Z23CalcCapsuleWorldExtentsP8Vector3fRKS_S2_S2_S2_
v1a:__ZN7ApiGLES11UnmapBufferEjN2gl12BufferTargetE
xQg:__ZN6il2cpp5utilsL24Utf32CharToSurrogatePairEjRA2_Ds
cwb:__Z25GetNextAllowedTextureSizeib13TextureFormat
v9b:__ZN20LocalFileSystemWebGL4CopyER13FileEntryDataS1_
ZSl:_ConfigurationException__ctor_m1093486427
Uia:__ZN19CloudServiceHandler6RetainEv
$cp:_LTGUI_initRectCheck_m685793758
C5m:_RangeInt_get_end_m4128831787_AdjustorThunk
Ba:invoke_iifiiii
C6c:__Z36Event_CUSTOM_Internal_SetNativeEventPv
X3f:_U3CDeactivateU3Ec__Iterator1_Reset_m2891711865
Pta:__ZN12BaseRenderer20FlattenToRenderQueueER15RenderNodeQueueRK20DeprecatedSourceData
b0e:__ZN5physx2Sc8ClothSim23addCollisionHeightfieldEPKNS0_8ShapeSimE
RBp:_List_1_System_Collections_IList_Add_m1651178974_gshared
jOb:__Z34scripting_liveness_calculation_endPv
bJl:_Char_GetDataTablePointers_m754571594
tLg:__ZN6il2cpp2os6ThreadC2Ev
XYj:_GCHandle_FromIntPtr_m3880792486
C4n:_DateTimeOffset_get_UtcDateTime_m1021718282_AdjustorThunk
b$f:_ColorCorrectionCurves_OnRenderImage_m149616329
yt:__ZN7NavMesh25SetOffMeshConnectionFlagsEyj
EO:__ZN21AnimationClipPlayable22ProcessAnimationNoClipEPK35AnimationPlayableEvaluationConstantPK32AnimationPlayableEvaluationInputP33AnimationPlayableEvaluationOutput
awj:_FollowObject_MoveToFollow_m3626275517
HKl:_HybridDictionary_get_Count_m1166314536
Zvq:_TlsStream_Write_m1412844442
Ocd:__Z18Transfer_BlittableI8JSONReadLb0E8Vector3fEvRK29SerializationCommandArgumentsR31RuntimeSerializationCommandInfo
mK:__ZN13AnimationClip12Vector3Curve8TransferI14SafeBinaryReadEEvRT_
V0m:_Matrix4x4__ctor_m53065545_AdjustorThunk
yzg:__ZN6il2cpp2vm6Thread6DetachEP12Il2CppThread
Bwq:_GeneralNames_get_DNSNames_m3788548987
ICf:_Render_Single_Pass
a$d:__GLOBAL__sub_I_runtime_dynamics_2_cpp
w7o:_LeanTween_easeInQuint_m2154830015
wmn:_SymmetricAlgorithm_get_IV_m1875559108
aX:__ZN7mecanim8skeleton30SkeletonBuildReverseIndexArrayEPiPKiPKNS0_8SkeletonES6_
t4c:__Z19GetGUIBlendMaterialv
b7k:_Math_Round_m3018379666
eDf:__ZN13TextRendering4Font23VirtualRedirectTransferER17RemapPPtrTransfer
vMg:__ZN6il2cpp2os10ThreadImpl5SleepEjb
e2p:_ReadOnlyCollection_1_System_Collections_IList_Remove_m1965826685_gshared
PUe:__ZN5physx14SapPairManager12shrinkMemoryEv
DZ:__ZN19StreamedBinaryWriteILb0EE21TransferSTLStyleArrayI22OffsetPtrArrayTransferIN7mecanim5human6HandleEEEEvRT_17TransferMetaFlags
mxn:_Delegate_CreateDelegate_m1051651521
ocf:__ZN5physx6shdfnd8internal7median3IjKNS_19SortBoundsPredicateEEEvPT_iiRT0_
vLm:_PlayableHandle_IsPlayableOfType_TisRuntimeObject_m503495943_AdjustorThunk
tC:__ZN18AnimatorController23VirtualRedirectTransferER24GenerateTypeTreeTransfer
dhr:_glBindSampler__wrapper
Qeb:__ZNSt3__26vectorIN20ArchiveStorageHeader12StorageBlockE13stl_allocatorIS2_L18MemLabelIdentifier55ELi16EEE8__appendEj
ah:_emscripten_set_mouseup_callback
MIa:__Z14resize_trimmedINSt3__26vectorIN9ShaderLab14SerializedPassENS0_9allocatorIS3_EEEEEvRT_j
H0m:_Mathf_Clamp_m3350697880
Drm:_ShimEnumerator_get_Entry_m3161130210_gshared
Ct:__ZN7NavMesh24ConnectOffMeshConnectionEjff
uXo:_List_1_System_Collections_IList_Remove_m3140917266_gshared
jnk:_XmlConvert_EncodeName_m863202395
Rpq:_PropertyInformation_get_Name_m17771368
G8n:_CompositeExpression__ctor_m2434860303
MCj:_ScenePersistent_SystemObjects_get_SystemObjectsInstance_m3673757610
_Ge:__ZN5physx7NpScene22removeBroadPhaseRegionEj
k4d:__ZL34GeomOverlapCallback_CapsuleCapsuleRKN5physx10PxGeometryERKNS_11PxTransformES2_S5_PNS_2Gu12TriggerCacheE
ttc:__ZNK18ScreenManagerWebGL8GetWidthEv
gGe:__ZNK5physx7NpScene23getFilterShaderDataSizeEv
N0:__ZN10SampleClipD2Ev
cdq:_Predicate_1_Invoke_m2389850270_gshared
ENb:__Z13GetGISettingsv
fzc:__ZN19SpriteMeshGenerator7contourERNSt3__26vectorINS_6vertexENS0_9allocatorIS2_EEEERiRf
Eia:__ZN11UnityEngine15CloudWebService20WebRequestRestClientC2Ev
evf:_cff_cmap_unicode_init
aRp:_Collection_1_IsValidItem_m3080586124_gshared
uza:__ZNSt3__26__treeI19RepeatingLogMessageNS_4lessIS1_EE13stl_allocatorIS1_L18MemLabelIdentifier73ELi16EEE4findIS1_EENS_15__tree_iteratorIS1_PNS_11__tree_nodeIS1_PvEEiEERKT_
m8i:__Z84RuntimeInvoker_RuntimeObject_RayU26_t3515555043_Single_t1397266774_Int32_t2950945753PFvvEPK10MethodInfoPvPS4_
aek:_ClipperRegistry_Register_m2407166513
a6q:_readlink
Rsg:__ZN15dense_hashtableINSt3__24pairIK10KeyWrapperINS1_IPK9EventInfoP11Il2CppClassEEEjEES9_17ReflectionMapHashIS8_EN14dense_hash_mapIS9_jSD_NS9_14EqualsComparerINS0_8equal_toIS8_EEEENS0_9allocatorISB_EEE9SelectKeyESI_SK_E12resize_deltaEjj
bwl:_MonoCMethod_Invoke_m2700167622
_Un:_KeyMarker__cctor_m2590194914
Hjd:__ZN14ParticleSystem38UpdateModulesPostSimulationIncrementalER24ParticleSystemUpdateDataR23ParticleSystemParticlesjRKf
mwj:_Tester_BasicFSM_FSM_UpdateStateOne_m2120282774
oYg:__ZN6il2cpp2os13SemaphoreImplC2Eii
aem:_Enumerator_System_Collections_IDictionaryEnumerator_get_Value_m803887320_AdjustorThunk
z4n:_DateTimeOffset_ToString_m3985341516_AdjustorThunk
RNq:_Version__ctor_m872301635
QFb:__ZNK6Sprite9GetBoundsE8Vector2fbb
qgp:_Array_InternalArray__ICollection_CopyTo_TisKeyValuePair_2_t3842366416_m1165391142_gshared
nib:__ZNK19RenderEventsContext21CleanupCommandBuffersEv
sYq:_TextGenerator_PopulateWithErrors_m1222498386
yD:__ZN7mecanim12statemachine13StateConstant8TransferI14SafeBinaryReadEEvRT_
cVa:__ZN11ContextGLES6CreateEi
rWd:__ZN5physx6shdfnd5ArrayINS_10PxTriangleENS0_19ReflectionAllocatorIS2_EEE15growAndPushBackERKS2_
x7m:_RectTransform_INTERNAL_set_anchoredPosition_m939517950
DDp:_List_1_set_Capacity_m3382070520_gshared
Mxm:_U3CMouseDragOutsideRectU3Ec__Iterator1_Dispose_m267465418
gwn:_Decimal_CompareTo_m3502307243_AdjustorThunk
Dgh:_XsdFloat_get_AllowedFacets_m1366058430
U5b:__Z19TransferField_ArrayI18StreamedBinaryReadILb0EE27Converter_SimpleNativeClassI17AnimationCurveTplIfEEEvRK23StaticTransferFieldInfoR31RuntimeSerializationCommandInfoRT0_
oui:__ZL93ScreenSpaceAmbientOcclusion_t1675618705_CustomAttributesCacheGenerator_m_OcclusionAttenuationP21CustomAttributesCache
v9a:__ZN14StackAllocator16FrameMaintenanceEb
JRd:__ZL11SweepBoxBoxPKN5physx3Cct9SweepTestEPKNS0_11SweptVolumeEPKNS0_11TouchedGeomERKNS_14PxExtendedVec3ERKNS_6PxVec3ERNS0_12SweptContactE
yLd:__ZZN10Collider2D15InitializeClassEvEN33FunctorImpl_99kDidRemoveComponent4CallEPviR11MessageData
Tcm:_Enumerator_System_Collections_IDictionaryEnumerator_get_Entry_m2484021225_gshared
Fma:__ZNK10GameObject20QueryComponentByTypeEPKN5Unity4TypeE
uvn:_Decimal_System_IConvertible_ToInt32_m1488426794_AdjustorThunk
K7k:_MonoCustomAttrs_IsUserCattrProvider_m2878058089
Cea:__Z49Register_UnityEngine_AudioSource_set_spatialBlendv
Tji:__ZL71InputField_t3762917431_CustomAttributesCacheGenerator_m_HideMobileInputP21CustomAttributesCache
ovb:__ZN11TextureData5ResetEv
AVc:__Z53Register_UnityEngine_GameObject_get_activeInHierarchyv
Tmn:_ToBase64Transform_InternalTransformFinalBlock_m360524956
mDl:_ActivationContext_Dispose_m2038725770
Woa:__ZL30InitializeCoreScriptingClassesv
ai:_glBlitFramebuffer
nyj:_InputManager_Initialize_m2941006682
cMe:__ZNK5physx2Sc5Scene17prefetchForRemoveERKNS0_10StaticCoreE
agm:_Enumerator_System_Collections_IDictionaryEnumerator_get_Value_m2753993514_gshared
slk:_XmlSchemaSimpleTypeRestriction__cctor_m3766107797
pXb:__Z35Transfer_Blittable_SingleValueFieldI14SafeBinaryReadhEvRT_R17GeneralMonoObjectRK23StaticTransferFieldInfo
VRf:__ZN22BaseUnityConnectClientC2ERN11UnityEngine7Connect20BasePersistentValuesE
xWn:_SortedList_Clear_m1559496373
Bgp:_Array_InternalArray__ICollection_CopyTo_TisInt64_t3736567304_m2845057751_gshared
tub:__ZNK12CubemapArray22GetTypeVirtualInternalEv
Vnb:__ZN11Tetrahedron8TransferI18StreamedBinaryReadILb0EEEEvRT_
_p:FUNCTION_TABLE_vif
$p:FUNCTION_TABLE_vid
h1j:_ContextAttribute_GetPropertiesForNewContext_m1632930262
bq:FUNCTION_TABLE_vii
uOb:__Z40scripting_liveness_calculation_from_root18ScriptingObjectPtrPv
qtd:__ZN13InitialModuleD2Ev
NHn:_Int32_TryParse_m135955795
irb:__ZN7Texture23VirtualRedirectTransferER24GenerateTypeTreeTransfer
JEf:_UNITY_FT_Set_Transform
jHg:__ZN6il2cpp8metadata15GenericMetadata20RegisterGenericClassEP18Il2CppGenericClass
Igr:_glDeleteFramebuffers__wrapper
KUk:_InternalEnumerator_1_System_Collections_IEnumerator_get_Current_m782232053_AdjustorThunk
DQi:__Z220RuntimeInvoker_Boolean_t97287965_RuntimeObject_Int32U26_t1369213839_Int32_t2950945753_Int32_t2950945753_Int32_t2950945753_RuntimeObject_SByte_t1669577662_Int32_t2950945753_ContractionU26_t961830454_ContextU26_t3937453398PFvvEPK10MethodInfoPvPS4_
HWc:__Z36Register_UnityEngine_RectOffset_Initv
XGi:_HttpWebRequest_set_InternalContentLength_m1954123929
UMn:_BitConverterLE_GetUIntBytes_m949779219
mtf:_cff_blend_build_vector
G1g:_WebHeaderCollection_ToString_m1263025316
eFc:__ZZN12MeshRenderer15InitializeClassEvEN29FunctorImpl_134kDidDeleteMesh4CallEPviR11MessageData
Gp:FUNCTION_TABLE_fifffffi
IEp:_List_1__ctor_m747758800_gshared
H5l:_String_CreateString_m2818852475
nAc:__Z22GenerateBoxTilingShapeP22GenerateTilingAreaInfo
zxb:__ZN28EnlightenRendererInformation8TransferI14SafeBinaryReadEEvRT_
ha:invoke_viiiiiifi
f0q:_CanvasRenderer_get_hasMoved_m2236392341
Dje:__ZN5physx12NpBatchQuery13getUserMemoryEv
r2c:__Z26GL_CUSTOM_GLClear_InjectedbbRK10ColorRGBAff
pIa:__ZNK15Lz4Decompressor16DecompressMemoryEPKvPjPvS2_
dyf:_UNITY_tt_face_build_cmaps
Wzc:__ZN4core8hash_mapINS_12basic_stringIcNS_20StringStorageDefaultIcEEEE10vector_setI4PPtrI11SpriteAtlasENSt3__24lessIS8_EE13stl_allocatorIS8_L18MemLabelIdentifier81ELi16EEENS_4hashIS4_EENS9_8equal_toIS4_EEEixERKS4_
Ti:_glGetAttribLocation
sNo:_Enumerator__ctor_m351918184_gshared
u8m:_RenderTextureDescriptor__ctor_m382365189
ptb:__Z35UnityPropertySheet_MakeSortedColorsRKNSt3__23mapIN9ShaderLab16FastPropertyNameE10ColorRGBAfNS_4lessIS2_EENS_9allocatorINS_4pairIKS2_S3_EEEEEER10vector_mapIS2_S3_S5_NS6_INS7_IS2_S3_EEEEE
zxf:_UNITY_tt_face_load_os2
WZe:__ZN5physx2GuL34fullContactsGenerationSphereConvexERKNS0_8CapsuleVERKNS0_11ConvexHullVERKNS_6shdfnd3aos12PsTransformVESB_PNS0_17PersistentContactERjRNS0_13ContactBufferEbRNS0_25PersistentContactManifoldERNS8_5Vec3VERKNS8_6FloatVEb
rhp:_Array_InternalArray__ICollection_CopyTo_TisUICharInfo_t75501106_m4268526610_gshared
Ldl:_StringValueType_t261329552_marshal_pinvoke
_6d:__ZN5physx6shdfnd8PoolBaseINS_2Sc19ConstraintGroupNodeENS0_19ReflectionAllocatorIS3_EEE17releaseEmptySlabsEv
_7g:_U3CU3Ec__Iterator3_System_Collections_Generic_IEnumerableU3CMono_Xml_DTDNodeU3E_GetEnumerator_m2276929946
JWb:__Z29Transfer_Blittable_ArrayFieldI14SafeBinaryRead8Vector4fEvRT_R9ArrayInfoRK23StaticTransferFieldInfo
QX:__ZNK26AnimatorOverrideController22GetTypeVirtualInternalEv
vKc:__Z17GLPopMatrixScriptv
Unf:__ZNSt3__27__sort4IRNS_6__lessI24InterpolationDepthHandleS2_EEPS2_EEjT0_S6_S6_S6_T_
Pbo:_Reference_Compile_m4195878675
U_f:_CameraMotionBlur_divRoundUp_m2155025214
MZm:_Graphics_SetRenderTarget_m2847722402
sec:__ZZ23InitPlayerLoopCallbacksvEN51PostLateUpdateUpdateCustomRenderTexturesRegistrator7ForwardEv
QSg:_GC_print_finalization_stats
vgn:_XmlSchemaObjectCollection__ctor_m3368107069
PTn:_Hashtable_ToPrime_m33531354
aP:__ZN7mecanim9animation12EvaluateClipEPKNS0_4ClipEPKNS0_9ClipInputEPNS0_10ClipMemoryEPNS0_10ClipOutputE
gYo:_List_1_set_Item_m1979164443_gshared
RYp:_Collection_1_IsSynchronized_m1117613618_gshared
VZd:__ZN5physx3Cct9SweepTest15onObstacleAddedEjPKNS_17PxObstacleContextERKNS_6PxVec3ES7_f
oGf:__ZN20TextRenderingPrivate7GUIText18GetFontAndMaterialEv
Apo:_TypeInitializationException__ctor_m3546444694
LPc:__ZNK9Transform16GetLocalRotationEv
gia:__ZN11UnityEngine15CloudWebService23WebRequestUploadHandler17ConsumeUploadDataEj
U2k:_MemoryStream_set_Position_m3169779190
lqc:__ZN13RenderManager29SetCurrentCameraAndStackStateEP6CameraP25CameraStackRenderingState
k9j:_ExecuteEvents_get_scrollHandler_m2659345019
Mgb:__ZNSt3__26__treeINS_12__value_typeIjN4core12basic_stringIcNS2_20StringStorageDefaultIcEEEEEENS_19__map_value_compareIjS7_NS_4lessIjEELb1EEE13stl_allocatorIS7_L18MemLabelIdentifier7ELi16EEE7destroyEPNS_11__tree_nodeIS7_PvEE
jzg:__ZN15dense_hashtableINSt3__24pairIK10KeyWrapperINS1_IP11Il2CppClassjEEES4_EES6_N6il2cpp8metadata14ArrayClassHashEN14dense_hash_mapIS6_S4_SB_NS6_14EqualsComparerINSA_17ArrayClassCompareEEENS0_9allocatorIS8_EEE9SelectKeyESF_SH_E12resize_deltaEjj
w$j:_RemotingConfiguration_RegisterClientProviderTemplate_m3950558786
qj:_JS_WebRequest_Release
Jhq:_XmlParserContext__ctor_m1245162613
Qga:__ZN11UnityEngine15CloudWebService14DataErrorEventD0Ev
ksk:_XmlInputStream_Initialize_m237507865
zDg:__ZN6il2cpp6icalls8mscorlib6System4Type20internal_from_handleEi
_Ai:_Cookie_set_Name_m551993811
Rxo:_ValueCollection_System_Collections_ICollection_get_SyncRoot_m882514669_gshared
Bsd:__ZN14EmissionModule5ResetEv
YZo:_Array_Sort_TisRaycastHit_t1056001966_m2679256649_gshared
S9o:_LeanTween_rotateAround_m3552446326
JYf:_StandaloneInput_SetAxisPositive_m3047996072
mCp:_List_1_CheckMatch_m2532733861_gshared
a0j:_Context__ctor_m254302079
uQe:__ZN5physx13PxsCCDContext12postCCDSweepEPNS_10PxBaseTaskE
fHg:__ZN6il2cpp8metadata15GenericMetadata7InflateEPK19Il2CppGenericMethodPK20Il2CppGenericContext
Qwb:__ZN19ShaderPropertySheet16SetArrayPropertyEN9ShaderLab16FastPropertyNameENS_12PropertyTypeEPKvj
TCm:_Selectable_FindSelectable_m2348614027
zRl:_ReferenceConverter_GetStandardValues_m3450433580
jtj:_CollisionProcessor_ResetRegistrationData_m1602561283
Tgk:_DropdownItem_OnPointerEnter_m1492957598
Wcf:__ZN5physx6shdfnd10Foundation19AlignCheckAllocator28deregisterAllocationListenerERNS_20PxAllocationListenerE
Z5c:__ZN8GUIState8EndOnGUIEv
Uzf:_UNITY_TT_Get_VMetrics
ISe:__ZN5physx33solveContactCoulombBlockWriteBackEPKNS_23PxcSolverConstraintDescEjRNS_16PxcSolverContextEPNS_25PxcThresholdStreamElementEjPi
FRn:_SimpleEnumerator__cctor_m2844299657
O6k:_LocalDataStoreSlot__ctor_m4104083971
V6p:_ReadOnlyCollection_1_System_Collections_Generic_IListU3CTU3E_RemoveAt_m3849058645_gshared
wQq:_AudioSource_ReadExtensionName_m725112169
nXn:_ListValues_set_Item_m468026500
v_e:__ZN5physx9PxTaskMgr17submitUnnamedTaskERNS_6PxTaskENS_10PxTaskType4EnumE
q5n:_Match__ctor_m2425511580
VXa:__ZN7Texture21GetMasterTextureLimitEv
wwo:_Enumerator_Dispose_m3503748991_AdjustorThunk
asc:__Z12CanAddScriptR10GameObject17ScriptingClassPtrPS1_S2_
Rvg:__ZN6il2cpp2vm10Reflection12HasAttributeEP12Il2CppObjectP11Il2CppClass
caq:_Comparison_1_BeginInvoke_m3263247262_gshared
iAa:__ZN9ShaderLabL25StaticInitializeShaderLabEPv
nOe:__ZNK5physx2Sq12BucketPruner5sweepERKNS0_9ShapeDataERKNS_6PxVec3ERfRNS0_14PrunerCallbackE
U:Math_max
Imi:__ZL64HorizontalLayoutGroup_t2586782146_CustomAttributesCacheGeneratorP21CustomAttributesCache
swg:_il2cpp_class_get_methods
X_q:_SpringJoint_set_spring_m3317999832
E8o:_LeanTween_resume_m114558216
zhd:__ZN14ParticleSystem33UpdateLocalToWorldMatrixAndScalesERK9Transformb
ian:_HitInfo_SendMessage_m1343099429_AdjustorThunk
vZb:__Z18Transfer_BlittableI24GenerateTypeTreeTransferLb0EN4math12int2_storageEEvRK29SerializationCommandArgumentsR31RuntimeSerializationCommandInfo
gyn:_StackTrace_get_trace_m1194606084
k3l:_Single_CompareTo_m2785801815_AdjustorThunk
CLg:__ZN6il2cpp2os6Thread16GetCurrentThreadEv
T9n:_RxCompiler_EmitOp_m1069314496
bJq:___GeneralBasicJSU24callable1U2470_33___Invoke_m2543545595
Fkl:_AssemblyFileVersionAttribute__ctor_m3720707642
djp:_Array_InternalArray__Insert_TisUILineInfo_t4195266810_m3191124053_gshared
qHc:__ZN10GameObject13ComponentPair15SetComponentPtrEPN5Unity9ComponentE
Leh:_XsdAnyValidationState_EvaluateStartElement_m576051102
zmf:__ZN5physx6shdfnd8internal8HashBaseINS0_4PairIKPKNS0_14NamedAllocatorEPKcEES6_NS0_4HashIS6_EENS1_11HashMapBaseIS6_S9_SC_NS0_20NonTrackingAllocatorEE6GetKeyESE_Lb1EE15reserveInternalEj
bBc:__Z13RegisterClassI10MeshFilterEvv
i5f:_Transform_INTERNAL_set_position_m3627767375
Sgb:__ZN10TagManager8TransferI19StreamedBinaryWriteILb0EEEEvRT_
PNb:__ZN11PreloadData23VirtualRedirectTransferER18StreamedBinaryReadILb0EE
Mgm:_Enumerator_VerifyCurrent_m2516497577_AdjustorThunk
iLq:_PathSplineEndlessCS_Start_m524977434
Apk:_XmlConvert_ToUInt16_m928332189
m3q:_NavMeshAgent_INTERNAL_get_desiredVelocity_m3881144415
I_f:_BlurOptimized_OnRenderImage_m1724859068
Vrm:_ShimEnumerator_Reset_m1479883403_gshared
jJl:_Char_System_IConvertible_ToDateTime_m3564102661
NYq:_Collider_get_isTrigger_m2414312872
tlh:_XsdValidationContext_PopCurrentElement_m1795862365
NLf:__Z13RegisterClassIN2UI14CanvasRendererEEvv
szb:__ZN6Sprite17MainThreadCleanupEv
nOp:_Collection_1_ConvertItem_m4153422599_gshared
hfr:_glBlendFuncSeparate__wrapper
Jzi:_RequestCachingSection_DeserializeElement_m1760578450
WCo:_Dictionary_2_InitArrays_m2914486837_gshared
cXn:_ListKeys_Insert_m2526388241
W6:__ZN10AudioMixer14UpdateMuteSoloEv
fme:__ZN5physx6shdfnd5ArrayINS_3Scb13MaterialEventENS0_19ReflectionAllocatorIS3_EEE15growAndPushBackERKS3_
fsj:_Collider_Circle_get_ScaledRadius_m2541744559
dgb:__ZN9Transform35SetLocalPositionWithoutNotificationERKN4math7_float3Ey
STi:__Z69RuntimeInvoker_UInt64_t4134040092_Int32_t2950945753_SByte_t1669577662PFvvEPK10MethodInfoPvPS4_
rk:_JS_Eval_ClearTimeout
Nkr:_glDepthFunc__wrapper
Lwh:__ZL64ThreadStaticAttribute_t3840787420_CustomAttributesCacheGeneratorP21CustomAttributesCache
F0a:__ZN7ApiGLES16SetPatchVerticesEi
vbn:_Texture2D_SetPixel_m2984741184
P8d:__ZN5physx2Sc5Scene11onBodySleepEPNS0_7BodySimE
sIl:_Byte_System_IConvertible_ToInt64_m285584218_AdjustorThunk
S$g:_WebConnectionStream_IsNtlmAuth_m4072757025
s6m:_Rect_get_size_m477575021_AdjustorThunk
ybg:__ZN6il2cpp2vm5Class20FromGenericParameterEPK22Il2CppGenericParameter
ZOm:_Array_IndexOf_TisVector3_t3722313464_m4284163268_gshared
rja:__ZN19CloudServiceHandler11FlushEventsEv
wFa:__ZN15GlobalCallbacksC2Ev
TFk:_U3CDebugLogAllU3Ec__AnonStorey0_1_U3CU3Em__0_m3417367305_gshared
lDd:__ZN7b2World10CreateBodyEPK9b2BodyDef
ftq:_ExeConfigurationFileMap_Clone_m545031398
_Vf:_RigidbodyFirstPersonController_FixedUpdate_m2753777854
gcm:_Comparer_1_System_Collections_IComparer_Compare_m2016223770_gshared
ogo:_Encoding_GetBytes_m3823106599
DGk:_BasicFSM_1_AttemptUpdateAndSwitch_m1722289701_gshared
cTi:__Z74RuntimeInvoker_DateTime_t3738529785_DateTime_t3738529785_Int32_t2950945753PFvvEPK10MethodInfoPvPS4_
YFf:_UNITY_FT_New_Memory_Face
OUp:_Collection_1_System_Collections_IList_IndexOf_m3271188411_gshared
aEf:__ZN20TextRenderingPrivate21TextMeshGeneratorImpl5FlushEv
I2k:_MonoIO_GetFileStat_m678141354
Qvf:_UNITY_FT_Load_Sfnt_Table
Dy:__ZNSt3__27__sort3IRPFbRK8Vector2fS3_EPS1_EEjT0_S8_S8_T_
Cme:__ZN5physx9NpPhysics16createConvexMeshERNS_13PxInputStreamE
$ca:__ZN14SoundHandleAPI7SetDataEPKfjj
Wvn:_Decimal_IsZero_m4250358244_AdjustorThunk
x6k:_UnmanagedMemoryStream_get_CanRead_m3770815400
Uqc:__ZN16ReflectionProbes40UpdateRealtimeReflectionProbesTimeslicedEv
npq:_ConfigurationElement_get_Item_m4094429943
eNq:_UInt64_ToString_m2177233542_AdjustorThunk
Mvn:_Decimal_u64_m3374804932
Jcl:_DTDReader_AddContentModel_m3333156252
Xem:_Enumerator_System_Collections_IDictionaryEnumerator_get_Entry_m1867713642_gshared
a8d:__ZN5physx2Sq17SceneQueryManager8addShapeERKNS_7NpShapeERKNS_12PxRigidActorEbPNS_9PxBounds3E
cLb:__ZNK30RuntimeInitializeOnLoadManager22GetTypeVirtualInternalEv
fOm:__ZN21InterfaceFuncInvoker2IiffE6InvokeEjP11Il2CppClassP12Il2CppObjectff
fKn:_SimpleCollator_CompareOrdinal_m1829915258
rgg:__ZN15dense_hashtableINSt3__24pairIK10KeyWrapperIN6il2cpp5utils13dynamic_arrayIPK10Il2CppTypeLj4EEEEPFvvEEESA_NS3_8metadata19Il2CppSignatureHashEN14dense_hash_mapISA_SD_SG_NSA_14EqualsComparerINSF_22Il2CppSignatureCompareEEENS0_9allocatorISE_EEE9SelectKeyESK_SM_E12resize_deltaEjj
lEc:__ZN16ReflectionProbes15InitializeClassEv
j4p:_ReadOnlyCollection_1_System_Collections_ICollection_CopyTo_m2527663815_gshared
NOo:_Enumerator_VerifyState_m1375238439_AdjustorThunk
bFg:__ZN6il2cpp2vm5Image9GetCorlibEv
r8f:_Vector3_get_left_m2428419009
QZi:__Z119RuntimeInvoker_Void_t1185182177_RuntimeObject_RuntimeObject_RuntimeObject_RuntimeObject_RuntimeObject_Int32_t2950945753PFvvEPK10MethodInfoPvPS4_
B$n:_Convert_ToInt16_m2763665794
dU:__ZN8Animator13BatchedFKPassERK13dynamic_arrayIP14PlayableOutputLj4EE
aFo:_Dictionary_2_ToTValue_m861836548_gshared
pSe:__ZNK5physx2Gu29EPASupportMapPairRelativeImplINS0_8CapsuleVES2_E9doSupportERKNS_6shdfnd3aos5Vec3VERS6_S9_S9_
Z8j:_ExecuteEvents_Execute_m113814934
TBa:__ZN13RuntimeStaticINSt3__23mapIN4core12basic_stringIcNS2_20StringStorageDefaultIcEEEES6_NS0_4lessIS6_EE13stl_allocatorINS0_4pairIKS6_S6_EEL18MemLabelIdentifier13ELi16EEEELb0EE13StaticDestroyEPv
plp:_Array_qsort_TisColor32_t2600501292_m1362211604_gshared
fcf:__ZN5physx10SubSortSAH5sort4EPjjRNS_6shdfnd5ArrayINS_11RTreeNodeNQENS2_19ReflectionAllocatorIS4_EEEERjjPS4_
Ugm:_Enumerator_System_Collections_IEnumerator_get_Current_m2979767597_AdjustorThunk
d3k:_MemoryStream_Write_m162543801
Vzp:_MD5CryptoServiceProvider_ProcessFinalBlock_m2241588515
bEm:_ScrollRect_GetBounds_m449872505
ql:_glIsVertexArray
kWc:__Z66Register_UnityEngine_Graphics_Internal_GetMaxDrawMeshInstanceCountv
fBq:_GUILayoutUtility_LayoutFreeGroup_m2955697397
wAn:_Int16_Parse_m2276856944
ia:invoke_fff
R5q:_mbsinit
YKm:_Array_InternalArray__ICollection_Remove_TisContactPoint2D_t3390240644_m284878234_gshared
mdr:b14
Ilf:__ZN5physx2Sc7PhysicsC2ERKNS_17PxTolerancesScaleERKNS_14PxvOffsetTableE
Qnf:__ZNSt3__26__sortIRNS_6__lessI24InterpolationDepthHandleS2_EEPS2_EEvT0_S6_T_
hIf:__ZN2UI6Canvas17MainThreadCleanupEv
bHb:__ZNSt3__26vectorI14SubstanceInputNS_9allocatorIS1_EEE6assignINS_11__wrap_iterIPS1_EEEENS_9enable_ifIXaasr21__is_forward_iteratorIT_EE5valuesr16is_constructibleIS1_NS_15iterator_traitsISA_E9referenceEEE5valueEvE4typeESA_SA_
i_a:__ZN6prcoreL12RemapGenericI17TexFormatARGB155517TexFormatRGBA8888EEvPKNS_9InnerInfoE
Ddg:__ZN13Il2CppHashMapIPK19Il2CppGenericMethodPK26Il2CppGenericMethodIndicesN6il2cpp8metadata23Il2CppGenericMethodHashENS7_26Il2CppGenericMethodCompareENSt3__29allocatorINSA_4pairIK10KeyWrapperIS2_ES5_EEEEEC2EjRKS8_RKS9_
Aaq:_Comparison_1_BeginInvoke_m767736581_gshared
wul:_TypeBuilder_HasElementTypeImpl_m1871001960
_1l:_SecurityFrame__ctor_m2140076703_AdjustorThunk
Nvp:_DefaultComparer_Equals_m2458578172_gshared
h2a:__ZN7ApiGLES13CreateProgramEv
gdr:b11
qx:__Z13RegisterClassI22NavMeshProjectSettingsEvv
tim:_Enumerator_VerifyState_m4003066746_gshared
iYa:__ZN4crnd12crn_unpackerD2Ev
Fl:_emscripten_glTexImage2D
Koa:__ZN18ScriptingArguments9AddStringEPKc
VTg:_setup_header
zHa:__ZN13TrailRenderer23VirtualRedirectTransferER14SafeBinaryRead
oSe:__ZNK5physx2Gu29EPASupportMapPairRelativeImplINS0_8CapsuleVES2_E18doWarmStartSupportEiiRNS_6shdfnd3aos5Vec3VES7_S7_
jtn:_PermissionSet_ProcessAttribute_m1079175190
XNn:_CryptoConvert_ToCapiKeyBlob_m3371450375
qZa:__ZL23stbir__resize_arbitraryPvPKviiiS_iiiffffPfiij14stbir_datatype12stbir_filterS4_10stbir_edgeS5_16stbir_colorspace
uhd:__ZN23ParticleSystemParticles13array_reserveEj
ezc:__ZN19SpriteMeshGenerator4maskC2EP11ColorRGBA32iihj
PZb:__Z18Transfer_BlittableI24GenerateTypeTreeTransferLb1E8Vector4fEvRK29SerializationCommandArgumentsR31RuntimeSerializationCommandInfo
qdr:b18
Jhd:__ZNK24OptimizedPolynomialCurve26FindMinMaxDoubleIntegratedEv
Ql:_pthread_detach
hkg:__ZN6il2cpp2vm19SocketPollingThread7RunLoopEv
NBj:_PlayerGameObject_ResetWalkSpeed_m563533314
zhk:_FontUpdateTracker_UntrackText_m1981515690
xNe:__ZN5physx11EdgeManager6resizeEj
Mfn:_XmlSchemaKeyref_Compile_m2735779237
fIc:__ZN15DirectorManager20ScheduleGraphDestroyERK14HPlayableGraph
H6b:__ZNSt3__213__stable_sortIRN10vector_mapI17ScriptingClassPtrPKN5Unity4TypeENS_4lessIS2_EENS_9allocatorINS_4pairIS2_S6_EEEEE13value_compareENS_11__wrap_iterIPSB_EEEEvT0_SJ_T_NS_15iterator_traitsISJ_E15difference_typeEPNSM_10value_typeEi
bKn:_SimpleCollator_FillSurrogateSortKeyRaw_m725998232
sIi:_IPAddress_Equals_m1823478787
$xq:_X509Certificate_get_RSA_m1755006809
tB:__ZNK12NavMeshQuery18ClosestPointOnPolyEyRK8Vector3fPS0_
QLa:__ZN9ShaderLab25SerializedTextureProperty8TransferI24GenerateTypeTreeTransferEEvRT_
Jtg:__ZN6il2cpp2gc19AppendOnlyGCHashMapINSt3__24pairIPK14Il2CppAssemblyP11Il2CppClassEEP24Il2CppReflectionAssembly17ReflectionMapHashIS9_ENS2_8equal_toIS9_EEEC2Ev
A0b:__Z18Transfer_BlittableI19StreamedBinaryWriteILb0EELb0EdEvRK29SerializationCommandArgumentsR31RuntimeSerializationCommandInfo
qAe:__ZN5physx2Sc5Scene12removeStaticERNS0_10StaticCoreERNS_6shdfnd11InlineArrayIPKNS0_9ShapeCoreELj64ENS4_19ReflectionAllocatorIS8_EEEEb
TLa:__ZN11NamedObject8TransferI18StreamedBinaryReadILb0EEEEvRT_
bXm:_InvokableCall_remove_Delegate_m1376110510
lff:__ZN19CharacterController13AwakeFromLoadE17AwakeFromLoadMode
vUn:_Hashtable_Clear_m3112193608
kjo:_UTF8Encoding_InternalGetByteCount_m771565606
bWf:_RigidbodyFirstPersonController_SlopeMultiplier_m3605361149
Mdd:__Z18Transfer_BlittableI8JSONReadLb1EyEvRK29SerializationCommandArgumentsR31RuntimeSerializationCommandInfo
ZUf:_LookatTarget_FollowTarget_m348992624
$Zh:__ZL51GUILayer_t2783472903_CustomAttributesCacheGeneratorP21CustomAttributesCache
lm:_emscripten_glMatrixMode
IAm:_MaskableGraphic_UnityEngine_UI_IClippable_get_gameObject_m1739855597
OM:__ZN8Animator23VirtualRedirectTransferER18StreamedBinaryReadILb0EE
oFn:_Guid__ctor_m3562600567_AdjustorThunk
hja:__ZN19CloudServiceHandler19StopEventDispatcherEv
X7e:__ZN5physx13GuMeshFactory17createHeightFieldERNS_13PxInputStreamE
zDe:__ZN5physx2Sc10NPhaseCore25createShapeInstancePairLLERNS0_8ShapeSimES3_NS_7PxFlagsINS_10PxPairFlag4EnumEtEE
G2n:_DateTime_System_IConvertible_ToInt16_m3239820399
jga:__ZN11UnityEngine15CloudWebService14DataDispatcher16PrepareDataBlockERNS0_16SessionContainerE
R6a:__ZN18GfxFramebufferGLES5ClearE13GfxClearFlagsRK10ColorRGBAffib
rOm:_Array_compare_TisVector2_t2156229523_m896871102_gshared
EEe:__ZThn8_N5physx2Sc19ShapeInstancePairLL12onDeactivateEj
NJc:__Z21CalculateClosestPointRK8Vector3fRK4AABBRS_Rf
xPj:_ObjectManager_DoFixups_m3038765937
pNq:_UIntPtr_ToString_m984583492_AdjustorThunk
j5b:__ZL26Transfer_SimpleNativeClassI18StreamedBinaryReadILb0EE10RectOffsetLb0EEvRK29SerializationCommandArgumentsR31RuntimeSerializationCommandInfo
LWj:_TypeDelegator_IsPrimitiveImpl_m2362421338
bVk:_InternalEnumerator_1_get_Current_m2316281569_gshared
bic:__ZL12DepthPassJobPN21GfxDeviceAsyncCommand10ArgScratchEPKNS_3ArgE
cKa:__ZNSt3__26vectorIN9ShaderLab20SerializedSubProgram16TextureParameterENS_9allocatorIS3_EEE6assignINS_11__wrap_iterIPS3_EEEENS_9enable_ifIXaasr21__is_forward_iteratorIT_EE5valuesr16is_constructibleIS3_NS_15iterator_traitsISC_E9referenceEEE5valueEvE4typeESC_SC_
f9c:__ZN5Unity9rapidjson6WriterI16TempBufferWriterNS0_4UTF8IcEES4_13JSONAllocatorE11WriteDoubleEd
Ida:__Z32AudioClip_Get_Custom_PropSamplesP12Il2CppObject
lrj:_AteComponent_Test_RegisterEvents_m1515410861
Hdf:__ZN9Rigidbody16ApplyConstraintsEv
hlo:_Thread_SetCachedCurrentUICulture_m1729523031
fMf:__Z55Register_UnityEngine_CanvasGroup_get_ignoreParentGroupsv
CBc:__Z13RegisterClassI19LowerResBlitTextureEvv
Nod:__ZN11MinMaxCurve5ResetE23ParticleSystemCurveModef
xo:FUNCTION_TABLE_iiiiiiiiiiii
thd:__ZNK14ParticleSystem27CalculateMaxActiveParticlesEv
yRj:_SByte_System_IConvertible_ToDateTime_m1659899958
uTl:_DefaultTraceListener_GetPrefix_m415696198
gwe:__ZN5physx2Sc17ParticleSystemSim8setFlagsEj
gjb:__ZN16GraphicsSettingsD0Ev
Rir:_pthread_mutex_init__wrapper
qso:_Transform_1_Invoke_m1362907933_gshared
n:cttz_i8
atf:_UNITY_FT_GlyphLoader_Add
Zaf:__ZN5physx2Gu15EdgeListBuilder18CreateEdgesToFacesEjPKjPKt
cWd:__ZN5physx11PxMeshQuery5sweepERKNS_6PxVec3EfRKNS_10PxGeometryERKNS_11PxTransformEjPKNS_10PxTriangleERNS_10PxSweepHitENS_7PxFlagsINS_9PxHitFlag4EnumEtEEPKjfb
aJj:_TriggeredBehaviour_Sequencer_OnUpdatePlaying_OneAtATime_m4276996378
niq:_XmlProcessingInstruction__ctor_m3762799159
eLj:_ServerIdentity_OnLifetimeExpired_m3729485875
SQq:_AudioListener_INTERNAL_CALL_ReadExtensionPropertyName_m330480156
JJh:__ZL100CompressedStack_t1202932761_CustomAttributesCacheGenerator_CompressedStack_GetObjectData_m2451703776P21CustomAttributesCache
NNl:_BaseNumberConverter_CanConvertTo_m3510519829
fHb:__ZN14SubstanceInput22CopyFromSubstanceInputERKS_
g1n:_Convert_ToUInt16_m867476252
jn:_emscripten_glViewport
aAc:__Z21GenerateTilingAreaJobP22GenerateTilingAreaInfoj
YPg:__ZN6il2cpp6icalls8mscorlib6System15MonoCustomAttrs17IsDefinedInternalEP12Il2CppObjectP20Il2CppReflectionType
VPe:__ZN5physx6shdfnd5ArrayIPhNS0_19ReflectionAllocatorIS2_EEE8recreateEj
aQ:__ZN7mecanim9animation16CopyMotionOutputEPKNS0_18AnimationNodeStateEPS1_bbRKNS_6bitsetILj83EEE
jui:__ZL70ScreenSpaceAmbientOcclusion_t1675618705_CustomAttributesCacheGeneratorP21CustomAttributesCache
O2c:__Z40Register_UnityEngine_Light_set_intensityv
yuf:_cff_parse_font_bbox
Wzj:_TextObject_UpdateText_m553527207
ahf:__ZThn28_N14PhysicsManagerD0Ev
qXd:__Z14raycast_sphereRKN5physx10PxGeometryERKNS_11PxTransformERKNS_6PxVec3ES8_fNS_7PxFlagsINS_9PxHitFlag4EnumEtEEjPNS_12PxRaycastHitEbPFbRSD_PvESG_
Oao:_IntStack_Push_m1312878436
tJb:__ZN14PlayerSettings23VirtualRedirectTransferER18StreamedBinaryReadILb0EE
yyn:_Double_System_IConvertible_ToDateTime_m2414543049_AdjustorThunk
zOf:__ZN11UnityEngine15PlatformWrapper16GetVRFieldOfViewEv
GB:__ZN13ProduceHelperI22NavMeshProjectSettingsLb0EE7ProduceE10MemLabelId18ObjectCreationMode
Vpn:_KeyContainerPermissionAccessEntryEnumerator_MoveNext_m3211539720
Xyn:_Double_CompareTo_m3151899116
vZg:__ZN6il2cpp2os5Event5ResetEv
onc:__Z26CombineDepthNormalsTextureRK17RenderLoopContextR13dynamic_arrayI16RenderObjectDataLj4EE
Sxf:_tt_name_ascii_from_other
V5k:_TextWriter_Write_m2252948084
T9f:_ToggleGroup__ctor_m3308114662
SGg:__ZN6il2cpp8metadata15GenericMetadata17InflateParametersEPK13ParameterInfohPK20Il2CppGenericContextb
dhb:__ZN6Camera13AwakeFromLoadE17AwakeFromLoadMode
b_o:_Array_Sort_TisUILineInfo_t4195266810_m3737783007_gshared
M3m:_PlayableAsset_Internal_CreatePlayable_m2550417712
r7o:_LeanTween_easeInQuadOpt_m1028143113
WP:__ZNK17AnimationPlayable27GetNextCompatibleDescendantEi
Y5l:_TermInfoReader__ctor_m3915858035
Eao:_RxInterpreter_GenerateMatch_m2154448285
M7g:_CILCompiler_CreateLabelForPC_m2731571021
KPj:_ObjectManager_RecordArrayElementFixup_m2171848602
GOj:_ObjectWriter_BlockWrite_m827549826
gwq:_TlsStream_Write_m188217214
P9q:dynCall_viffff
O9p:_Comparison_1_BeginInvoke_m829878058_gshared
Owf:_otv_LigatureSubst_validate
BOh:__ZL112XmlSchemaRedefine_t4020109446_CustomAttributesCacheGenerator_XmlSchemaRedefine_t4020109446____Items_PropertyInfoP21CustomAttributesCache
D2i:__Z50RuntimeInvoker_Ray_t3785851493_Vector3_t3722313464PFvvEPK10MethodInfoPvPS4_
iac:__Z25SetNeedToPerformRenderingb
Xqd:__ZN12LightsModule8TransferI17RemapPPtrTransferEEvRT_
Bwn:_Decimal_op_Addition_m573847667
qfb:__ZN10GameObjectD2Ev
qic:__ZN14qsort_internal30FindAndMovePivotToLastPositionIP15RODataDepthPassi17ROSorterDepthPassEEvT_S4_T0_T1_
Nud:__ZN29InitialModulePropertyBindings13GetFloatValueERK14ParticleSystemi
WJq:_GeneralBasicJS_Start_m1982226378
rRe:__ZN5physxL27PxcSweepAnyShapeHeightfieldERKNS_11PxsCCDShapeES2_PKNS_12PxsRigidBodyES5_RKNS_11PxTransformES8_fRNS_6PxVec3ESA_RNS_10PxcNpCacheERNS_18PxcNpThreadContextE
bqc:__ZN12CullingGroup10SendEventsEPK17CullingGroupEventj
Iil:_CustomInfo__ctor_m426096741
WY:__ZN15SerializeTraitsIN7mecanim5human6HandleEE8TransferI14SafeBinaryReadEEvRS2_RT_
sak:_PointerInputModule__ctor_m3728889932
Rla:__ZThn32_NK8Renderer8GetLayerEv
Zen:_XmlSchemaGroupBase_ValidateSeqRecurseMapSumCommon_m2619457587
lQm:_Array_InternalArray__IndexOf_TisUInt64_t4134040092_m1206929132_gshared
xMe:__ZN5physx3Scb5SceneD2Ev
cRo:_Enumerator_System_Collections_IEnumerator_Reset_m2915500989_gshared
Duf:_cff_parse_vsindex
S1l:_SecurityException_GetObjectData_m1968030344
l8j:_EventSystem_ToString_m3779610692
YUl:_DeflateStream_Dispose_m959848075
Mro:_Transform_1_Invoke_m1449959322_gshared
Ljr:_emscripten_glTexParameterfv__wrapper
_Fi:_Socket_Listen_m3184049021
cyj:_HudText_OnGUI_m1692239853
ex:__ZNSt3__26__treeINS_12__value_typeIiN15HeightMeshQuery10HeightDataEEENS_19__map_value_compareIiS4_NS_4lessIiEELb1EEE13stl_allocatorIS4_L18MemLabelIdentifier76ELi16EEE7destroyEPNS_11__tree_nodeIS4_PvEE
wym:_LayoutGroup_get_rectTransform_m442863741
YTb:__Z18Transfer_BlittableI14SafeBinaryReadLb1E9BoundsIntEvRK29SerializationCommandArgumentsR31RuntimeSerializationCommandInfo
jxg:_il2cpp_method_get_param_count
cPc:__ZN10systeminfo19ISOToSystemLanguageERN4core12basic_stringIcNS0_20StringStorageDefaultIcEEEE
Bsg:__ZNK15dense_hashtableINSt3__24pairIK10KeyWrapperINS1_IPK12PropertyInfoP11Il2CppClassEEEjEES9_17ReflectionMapHashIS8_EN14dense_hash_mapIS9_jSD_NS9_14EqualsComparerINS0_8equal_toIS8_EEEENS0_9allocatorISB_EEE9SelectKeyESI_SK_E3endEv
Beq:_XmlNamespaceManager_LookupPrefixExclusive_m4193555037
Rdf:__Z16GetDynamicsScenev
VBf:_ps_dimension_done
XHf:__Z46Register_UnityEngine_TextGenerator_Dispose_cppv
MOj:_MessageFormatter_GetExtraProperties_m305191653
bzn:_Double_Parse_m4153729520
SDn:_GregorianCalendar_GetYear_m854131864
dHb:__ZN14SubstanceInputD2Ev
jAg:__ZN6il2cpp6icalls8mscorlib6System7Runtime15InteropServices7Marshal17GetLastWin32ErrorEv
exb:__ZN16LightmapSettings8TransferI14SafeBinaryReadEEvRT_
pPa:__ZN17BufferManagerGLES13ReleaseBufferEP14DataBufferGLES
Bxk:_CipherSuite_Write_m1172814058
g5d:__ZN5physx6shdfnd5ArrayIPvNS0_19ReflectionAllocatorINS_16NpConnectorArrayEEEE15growAndPushBackERKS2_
mdp:_LTGUI_firstTouch_m4186619793
aza:__ZN9profiling6MarkerC2EPKc13ProfilerGroupNS0_5FlagsE
HCe:__ZN5physx2Sc5Scene15prepareSimulateEv
Jdd:__Z18Transfer_BlittableI8JSONReadLb1EjEvRK29SerializationCommandArgumentsR31RuntimeSerializationCommandInfo
M6d:__ZN5physx6shdfnd5ArrayIPNS_2Sc11InteractionENS0_19ReflectionAllocatorIS4_EEE8recreateEj
NNj:_SerializationObjectManager_RaiseOnSerializedEvent_m272248422
jLl:_ListDictionary_get_Keys_m3758196857
ZUm:_Debug_LogWarning_m3752629331
VBl:_X509Chain_IsTrusted_m3437024680
f9p:_ReadOnlyCollection_1_System_Collections_Generic_IListU3CTU3E_RemoveAt_m4037795630_gshared
Gqj:_AteObject_get_LocalPosition_m1726341740
SYi:__Z117RuntimeInvoker_Void_t1185182177_RuntimeObject_Int32_t2950945753_Int32_t2950945753_Int32_t2950945753_Int32_t2950945753PFvvEPK10MethodInfoPvPS4_
R$g:_WebConnection_NextRead_m3275930655
VHk:_ReturnCallback_1_Invoke_m2106378571_gshared
adk:_U3COnFinishSubmitU3Ec__Iterator0_Reset_m3632769946
Rr:stackSave
heh:_XmlSchemaUri_Equals_m2865762107
oCf:_ps_dimension_end
A3c:__Z41Register_UnityEngine_Mesh_Internal_Createv
nFb:__ZN14SpriteRenderer23VirtualRedirectTransferER24GenerateTypeTreeTransfer
QGg:__ZNK15dense_hashtableI10KeyWrapperIP18Il2CppGenericClassES3_N6il2cpp8metadata22Il2CppGenericClassHashEN14dense_hash_setIS3_S6_NS3_14EqualsComparerINS5_25Il2CppGenericClassCompareEEENSt3__29allocatorIS3_EEE8IdentityESA_SD_E12test_deletedERK30dense_hashtable_const_iteratorIS3_S3_S6_SF_SA_SD_E
PGd:__ZNSt3__27__sort3IRN18Overlap2DQueryBase29ColliderHitsByDepthComparitorEPP10Collider2DEEjT0_S7_S7_T_
Bcg:__ZN6il2cpp2vm5Class14GetNestedTypesEP11Il2CppClassPPv
Mqf:__Z63Register_UnityEngine_Physics_INTERNAL_CALL_Internal_RaycastTestv
wdg:_flush_pending
deo:_Uri_get_Fragment_m575158891
aYn:_Console_Open_m3077673205
zWj:_TypeDelegator_GetFields_m1661146203
Arc:__ZN6Camera9SetAspectEf
KPm:_Array_InternalArray__IndexOf_TisDateTime_t3738529785_m2463359116_gshared
yJi:_SslStream_Dispose_m3651067425
Ma:invoke_viiffiii
v6k:_UnexceptionalStreamWriter_Write_m1834931241
krd:__ZN8UVModule8TransferI18StreamedBinaryReadILb0EEEEvRT_
Zdq:_XmlNamedNodeMap_RemoveNamedItem_m17051518
Fbn:_Texture3D_Internal_Create_m1805592307
a0f:_DepthOfFieldDeprecated_ReleaseTextures_m3471016184
R2n:_DateTime_ToString_m2992030064
ado:_Parser_IsECMAScript_m674158805
lgb:__ZN9Transform37InitializeTransformHierarchyRecursiveER18TransformHierarchyRii
ksj:_CheckCollisionMethods_CheckCollision_m2862300857
F6a:__ZN26SinglePassStereoSupportExt23SetupStereoMatrixParamsE21MonoOrStereoscopicEye24BuiltinShaderMatrixParamRK10Matrix4x4f
G7:__ZN14SafeBinaryRead21TransferSTLStyleArrayI13dynamic_arrayI4PPtrI18AudioMixerSnapshotELj4EEEEvRT_17TransferMetaFlags
Hhm:_Enumerator_MoveNext_m160276935_AdjustorThunk
mzd:__ZN14ParticleSystem22UpdateAllTransformDataEv
YJi:_ServicePointManager_get_CertificatePolicy_m1966679142
M5q:_fscanf
wTf:__ZNK25UnityWebRequestJavaScript16GetUploadedBytesEv
Pda:__Z46AudioListener_CUSTOM_GetNumExtensionPropertiesP12Il2CppObject
Zhf:__ZN14SphereCollider23VirtualRedirectTransferER24GenerateTypeTreeTransfer
uud:__ZN27ColorModulePropertyBindings13AddPropertiesER10vector_mapIi22ParticleModulePropertyNSt3__24lessIiEENS2_9allocatorINS2_4pairIiS1_EEEEE
kDk:_SslClientStream_Finalize_m1251363641
Rzp:_MD5CryptoServiceProvider_Dispose_m3502499818
sYo:_List_1_System_Collections_IList_Remove_m3563136224_gshared
YPm:_Array_InternalArray__IndexOf_TisMonoResource_t4103430009_m1351751258_gshared
cKb:__ZN10VRSettings8TransferI19StreamedBinaryWriteILb0EEEEvRT_
MBe:__ZN5physx2Sc9StaticSim21postActor2WorldChangeEv
xNl:_AttributeCollection__cctor_m842335345
oBn:_FieldAccessException__ctor_m3583219052
lwd:__ZL16ParticleGeomInitILb0EEvRK31ParticleSystemParticlesTempDatajRN4math8floatNx3ERK23ParticleSystemParticlesS5_S5_RKNS3_7_float4EPKfSB_SD_SB_RKNS3_5_int4EbSB_
g1c:__Z57Register_UnityEngine_Transform_INTERNAL_set_localPositionv
tTa:__ZN13GfxDeviceGLES26SetRandomWriteTargetBufferEi15ComputeBufferID
h3f:_U3CResetCoroutineU3Ec__Iterator0_Dispose_m2836894187
BXc:__Z38Register_UnityEngine_Input_GetButtonUpv
gmp:_Array_Resize_TisUICharInfo_t75501106_m3903846016_gshared
gec:__ZZ23InitPlayerLoopCallbacksvEN49EarlyUpdateResetFrameStatsAfterPresentRegistrator7ForwardEv
Nhe:__ZN5physx6shdfnd4sortIPvNS0_4LessIS2_EENS0_19ReflectionAllocatorINS_2Cm5BlockIhLj256EEEEEEEvPT_jRKT0_RKT1_j
svl:_MethodBase_GetMethodFromIntPtr_m3014201362
q5p:_ReadOnlyCollection_1_System_Collections_IEnumerable_GetEnumerator_m1671097018_gshared
l_p:_Collection_1_ConvertItem_m2379573075_gshared
zZj:_TypeLibImportClassAttribute__ctor_m2302178978
LKn:_Escape_t3294788190_marshal_pinvoke
r$m:_Material__ctor_m1662457592
Swm:_InputField_OnUpdateSelected_m1118869681
M8e:__ZN5physx20InternalTriangleMesh7releaseEv
YPe:__ZN5physx6shdfnd5ArrayINS_16PxsCCDBlockArrayINS_13PxsCCDOverlapELi128EE9BlockInfoENS0_19ReflectionAllocatorIS5_EEE15growAndPushBackERKS5_
$7d:__ZNK5physx7NpShape8getFlagsEv
H7p:_ReadOnlyCollection_1_System_Collections_IList_Insert_m923045110_gshared
sYa:__ZN4crnd12crn_unpacker11unpack_dxt1EPPhjjj
QSl:_WeakObjectWrapperComparer_Equals_m4237216108
i$k:_BinaryWriter_Write_m3577537050
HOc:__ZNK11ICallString6ToUTF8Ev
Obk:_TouchInputModule_UpdateModule_m2582897964
Ebg:__ZN15dense_hashtableINSt3__24pairIK10KeyWrapperIPK22Il2CppGenericParameterEP11Il2CppClassEES6_N6il2cpp5utils11PointerHashIS4_EEN14dense_hash_mapIS6_S9_SE_NS6_14EqualsComparerINS0_8equal_toIS5_EEEENS0_9allocatorISA_EEE9SelectKeyESJ_SL_E15insert_noresizeERKSA_
_Rg:_GC_number_stack_black_listed
ric:__ZNSt3__211__sift_downIR17ROSorterDepthPassP15RODataDepthPassEEvT0_S5_T_NS_15iterator_traitsIS5_E15difference_typeES5_
zre:__ZNK5physx7NpCloth16getContactOffsetEv
qEl:_ArgumentException__ctor_m3200406061
yU:__ZN8Animator17ApplyOnAnimatorIKEiRNS_11AnimatorJobE
Bra:__ZN12FileAccessor4ReadEyyPvPy
zjg:__ZNSt3__26vectorIN6il2cpp2os11PollRequestENS_9allocatorIS3_EEE26__swap_out_circular_bufferERNS_14__split_bufferIS3_RS5_EE
wJp:_List_1_set_Capacity_m2777925136_gshared
Fiq:_XmlQualifiedName_op_Equality_m1684199236
d3c:__Z32Renderer_CUSTOM_GetMaterialArrayP12Il2CppObject
Y$c:__Z63Register_UnityEngine_RenderTexture_Internal_CreateRenderTexturev
Ulk:_XmlSchemaUtil_ReadBoolAttribute_m854567538
brc:__ZN13RenderTexture9SetHeightEi
J$f:_DepthOfField_ReleaseComputeResources_m256329726
lO:__ZN7mecanim9animation17ClearMotionOutputEPNS0_18AnimationNodeStateE
ptj:_CollisionProcessor_RegisterColliderPairs_m3469768522
g9l:_InternalEnumerator_1_System_Collections_IEnumerator_get_Current_m3537550566_gshared
I8i:__Z68RuntimeInvoker_RuntimeObject_Vector3_t3722313464_Vector3_t3722313464PFvvEPK10MethodInfoPvPS4_
NBg:__ZN6il2cpp6icalls8mscorlib6System2IO6MonoIO17GetFileAttributesEP12Il2CppStringPi
hzp:_HMACMD5__ctor_m3008609295
X3n:_DateTime_ToString_m2992030064_AdjustorThunk
Lyf:_tt_cmap8_char_index
cyc:__Z14tessMeshDeleteP8TESSmeshP12TESShalfEdge
IYm:_Gizmos_INTERNAL_CALL_DrawLine_m3022186612
jpa:__Z24scripting_class_get_name17ScriptingClassPtr
iNl:_StringEnumerator_MoveNext_m3572111802
T2g:_Oid__ctor_m911618594
oag:_VerticalLayoutGroup_CalculateLayoutInputHorizontal_m1404590745
pWj:_TypeDelegator_get_TypeHandle_m1498852405
BCa:__ZN13RuntimeStaticI15GUIEventManagerLb0EE13StaticDestroyEPv
az:__ZNSt3__27__sort4IR17DetailNodeXSorterP16DetailMeshBVNodeEEjT0_S5_S5_S5_T_
v8k:_ShortComparer_Compare_m1881262465
PVb:__Z29Transfer_Blittable_ArrayFieldI14SafeBinaryReadjEvRT_R9ArrayInfoRK23StaticTransferFieldInfo
Af:_emscripten_set_keydown_callback
Ufo:_EncoderReplacementFallback__ctor_m1483565116
X5n:_Interpreter_IsWordChar_m2858055765
God:__ZN18ColorBySpeedModule8TransferI14SafeBinaryReadEEvRT_
Jra:__ZN12FileAccessorC2Ev
Ece:__ZN5physx2Sc15ArticulationSim12applyImpulseERNS0_8BodyCoreERKNS_9PxcFsDataERKNS_6PxVec3ES9_
Q3l:_String_System_IConvertible_ToDouble_m3740733360
qld:__Z15UpdateRandomTplIL27ParticleSystemCurveEvalMode0EEvRK11MinMaxCurveS3_S3_R5RandNR23ParticleSystemParticlesjjRKN4math8float3x3ERKNS8_7_float4E
pS:__ZThn152_NK26AnimatorControllerPlayable25GetStateMachineBehavioursEv
u5p:_ReadOnlyCollection_1_System_Collections_IList_IndexOf_m3822189793_gshared
Sff:__ZN5Unity5Joint18SetConnectedAnchorERK8Vector3f
z8j:_EventTrigger_OnDeselect_m1919608102
Bhb:__ZN6Camera8TransferI19StreamedBinaryWriteILb0EEEEvRT_
fLd:__ZN23ColliderTilingExtensionC2Ev
X7q:__ZNK10__cxxabiv117__class_type_info16search_below_dstEPNS_19__dynamic_cast_infoEPKvib
Msl:_ModuleBuilder_set_wrappers_type_m2998401134
Hna:__ZN14StackAllocator10ReallocateEPvji
KAj:_AxisMovement_set_DownData_m1218271764
Lmg:__ZN6il2cpp2vm7Runtime12GetConfigDirEv
aud:__ZN16CustomDataModuleD2Ev
cqn:_KeyContainerPermissionAccessEntryEnumerator_System_Collections_IEnumerator_get_Current_m2177341222
qQo:_Enumerator_MoveNext_m1177880931_AdjustorThunk
Zbe:__ZNK5physx14NpArticulation26getInternalDriveIterationsEv
KFm:_Slider_UpdateVisuals_m3662961057
qYq:_TextGenerator_Populate_m194003733
QSj:_CryptoConfig_MapNameToOID_m2044758263
yod:__ZN14VelocityModule8TransferI14SafeBinaryReadEEvRT_
Xji:__ZL70InputField_t3762917431_CustomAttributesCacheGenerator_m_OnValueChangedP21CustomAttributesCache
ukl:_Assembly_Resolve_m1674739672
y8b:__Z39WriteQueueForTransferSignatureIntoCacheRK31TransferFunctionScriptingTraitsRK24TransferRequestSignature17ScriptingClassPtrR23CachedSerializationDataRb
Zgo:_Encoding_get_UTF8UnmarkedUnsafe_m320312322
tlo:_Thread_Thread_free_internal_m333849022
qE:__ZN18AnimatorController19TransferRuntimeDataI18StreamedBinaryReadILb0EEEEvRT_
bum:_Transform_1_Invoke_m639811809_gshared
U6n:_CostDelegate_BeginInvoke_m2828452701
cOf:__ZN22BaseUnityConnectClient30OnEnteringStatePausedOrStoppedEv
EJd:__ZN10ClipperLib7Clipper18SwapPositionsInAELEPNS_5TEdgeES2_
aOm:_Array_compare_TisCustomAttributeNamedArgument_t287865710_m2877346442_gshared
jsg:__ZN15dense_hashtableINSt3__24pairIK10KeyWrapperINS1_IPK12PropertyInfoP11Il2CppClassEEEjEES9_17ReflectionMapHashIS8_EN14dense_hash_mapIS9_jSD_NS9_14EqualsComparerINS0_8equal_toIS8_EEEENS0_9allocatorISB_EEE9SelectKeyESI_SK_E12resize_deltaEjj
zO:__ZN7mecanim5human12HumanPoseAddERNS0_9HumanPoseERKS1_S4_
x_n:_DateTime_ToUniversalTime_m1945318289
ytn:_ApplicationTrust_ToXml_m3143300283
SNh:__ZL66XmlSchemaForm_t4264307319_CustomAttributesCacheGenerator_QualifiedP21CustomAttributesCache
axd:__Z20UpdateWholeSheet2TplIL27ParticleSystemCurveEvalMode2ELS0_2EEvfRK11MinMaxCurveS3_RK23ParticleSystemParticlesPf
x$f:_ContrastStretch_OnEnable_m4069645429
Hwm:_InputField_MoveUp_m1827602808
WMq:_UInt64_Parse_m819899889
KSo:_List_1_System_Collections_IList_set_Item_m293526580_gshared
mrl:_GenericTypeParameterBuilder_GetHashCode_m852224381
x1n:_Convert_ToUInt32_m1453583008
kCn:_CompareInfo_Compare_m894311506
Vfb:__Z24MergeTransformComponentsR9TransformS0_b
Kfg:__ZNK15dense_hashtableI10KeyWrapperIPK19Il2CppGenericMethodES4_N6il2cpp8metadata23Il2CppGenericMethodHashEN14dense_hash_setIS4_S7_NS4_14EqualsComparerINS6_26Il2CppGenericMethodCompareEEENSt3__29allocatorIS4_EEE8IdentityESB_SE_E10test_emptyEj
s9l:_InternalEnumerator_1_System_Collections_IEnumerator_get_Current_m3982010935_AdjustorThunk
E7d:__ZThn24_N5physx2Sc20ArticulationJointSimD0Ev
zYq:_CapsuleCollider_set_center_m2290088540
mXf:_VirtualInput_ButtonExists_m3875122617
eEl:_ApplicationException__ctor_m2517758450
Khf:__ZN14PhysicsManager32AddToTriggerStayStatesIfRequiredEPK9Rigidbody
c1q:_AnimationOffsetPlayable__cctor_m1029460816
K1d:__ZN5physx14PxsAABBManager12createBPElemEv
zoe:__ZThn12_N5physx7NpShape14onRefCountZeroEv
EOd:__ZL26GeomMTDCallback_ConvexMeshRN5physx6PxVec3ERfRKNS_10PxGeometryERKNS_11PxTransformES5_S8_
_Pg:__ZN6il2cpp2vm13ComObjectBase19GetRuntimeClassNameEPP15Il2CppHString__
ol:_emscripten_glVertexAttribPointer
Pkb:__ZNK20IntermediateRenderer12GetSceneMaskEv
lbc:__ZN14PreloadManager26UpdatePreloadingSingleStepENS_21UpdatePreloadingFlagsEi
QEm:_ScrollRect_SetLayoutHorizontal_m3078869633
$3e:__ZN18ScBeforeSolverTask11runInternalEv
pnh:_XmlTextReader_NotWFError_m2000394543
n0l:_PolicyStatement_ToXml_m3385176959
rZc:__Z57Register_UnityEngine_RectTransform_INTERNAL_set_anchorMinv
m4d:__ZL33GeomOverlapCallback_CapsuleConvexRKN5physx10PxGeometryERKNS_11PxTransformES2_S5_PNS_2Gu12TriggerCacheE
p1n:_Convert_ToUInt16_m1480956416
RZa:__ZN6prcoreL25inner_stretch_i8_bilinearEPKNS_9InnerInfoE
bOb:__ZL30RegisterFilteredObjectCallbackPP12Il2CppObjectiPv
D8p:_ReadOnlyCollection_1_System_Collections_Generic_IListU3CTU3E_RemoveAt_m3317217538_gshared
X8h:__ZL54AudioSource_t3935305588_CustomAttributesCacheGeneratorP21CustomAttributesCache
jiq:_XmlParserInput_get_LinePosition_m3993856854
Dbc:__Z19InitializeGfxDevicev
Fga:__ZN11UnityEngine15CloudWebService16SessionContainer24GetSessionHeaderJsonDataERKN4core12basic_stringIcNS2_20StringStorageDefaultIcEEEERNS2_13StringBuilderE
OEj:_TriggeredBehaviour_AddHudText_SendTextIDForRemoval_m2994402100
nCa:__ZN13RuntimeStaticI21AssetReferenceStorageLb0EE13StaticDestroyEPv
T8e:__ZN5physx20InternalTriangleMesh9loadRTreeERNS_13PxInputStreamEj
pCh:__ZL56_MethodBuilder_t600455149_CustomAttributesCacheGeneratorP21CustomAttributesCache
aih:_XsdInteger_ParseValueType_m2892934505
RNj:_ObjectWriter_WriteObject_m3639703743
Qjp:_Array_InternalArray__set_Item_TisKeyValuePair_2_t2530217319_m258011711_gshared
Haj:__Z72RuntimeInvoker_Bounds_t2266837910_RuntimeObject_Matrix4x4U26_t3606180965PFvvEPK10MethodInfoPvPS4_
bLg:__ZN6il2cpp6icalls8mscorlib6System9AppDomain22InternalGetProcessGuidEP12Il2CppString
MUp:_Collection_1_System_Collections_IList_Contains_m3397768605_gshared
qin:_XmlSchemaSequence_ValidateUPAOnHeadingOptionalComponents_m2072039233
Owe:__ZN5physx2Sc18ParticleSystemCore16releaseParticlesEv
P8q:_i64Add
eXd:__ZN5physx2Gu20intersectTriangleBoxERKNS_6shdfnd3aos5Vec3VES5_S5_S5_S5_
fuq:_ProviderSettingsCollection_GetElementKey_m2986052211
pcb:__ZNK17FileSystemHandler10IsReadOnlyERK13FileEntryData
u2n:_DateTime__cctor_m1880035693
MPh:__ZL110NameObjectCollectionBase_t2091847364_CustomAttributesCacheGenerator_NameObjectCollectionBase__ctor_m3908400148P21CustomAttributesCache
k_b:__Z18Transfer_BlittableI24GenerateTypeTreeTransferLb1EjEvRK29SerializationCommandArgumentsR31RuntimeSerializationCommandInfo
Jcn:_XmlSchemaElement_get_SubstitutionGroup_m3454166301
Cbg:__ZN6il2cpp2os12FastAutoLockD2Ev
pxa:__ZN11ColorRGBA328TransferI14SafeBinaryReadEEvRT_
Suf:_cff_vstore_done
Rkp:_Array_InternalArray__set_Item_TisUIVertex_t4057497605_m1280270671_gshared
dlf:__ZN5physx6shdfnd5ArrayIPvNS0_19ReflectionAllocatorINS_24NpPtrTableStorageManager8PtrBlockILi4EEEEEE15growAndPushBackERKS2_
RFj:_TriggeredBehaviour_InstantiateGameObject__ctor_m2570625824
m1i:__Z68RuntimeInvoker_Void_t1185182177_UInt16_t2177724958_SByte_t1669577662PFvvEPK10MethodInfoPvPS4_
QRk:_InternalEnumerator_1_get_Current_m3008260692_AdjustorThunk
FGf:__ZN20TextRenderingPrivate8TextMesh8TransferI14SafeBinaryReadEEvRT_
Jzp:_MACTripleDES_HashFinal_m3613553534
qMq:_UInt64_System_IConvertible_ToChar_m2074245892
mZa:__Z11IsHDRFormat13TextureFormat
ojo:_UTF8Encoding_InternalGetBytes_m1965760031
ch:_emscripten_glClearDepth
xGc:__ZNK8GUILayer22GetTypeVirtualInternalEv
Ihq:_XmlParserContext__ctor_m52393894
kyb:__ZN14SafeBinaryRead21TransferSTLStyleArrayINSt3__26vectorIN15QualitySettings14QualitySettingENS1_9allocatorIS4_EEEEEEvRT_17TransferMetaFlags
Tom:_KeyCollection_System_Collections_ICollection_get_SyncRoot_m1476896089_gshared
HCk:_RSASslSignatureDeformatter_VerifySignature_m1061897602
Zpm:_KeyCollection__ctor_m2388548663_gshared
TIb:__ZNSt3__26vectorINS_4pairIPKN5Unity4TypeE7Hash128EENS_9allocatorIS7_EEE8__appendEj
fyl:_ContentInfo__ctor_m1888388023
pQq:_AudioExtensionManager_GetAudioListener_m817760607
Vuf:_cff_font_load
ULg:__GLOBAL__sub_I_LibraryLoader_cpp
ZPc:__Z13IsPathCreatedRKN4core12basic_stringIcNS_20StringStorageDefaultIcEEEE
fAq:_GUI_INTERNAL_get_color_m2229551565
MTe:__ZN5physx35solveContactPreBlock_ConcludeStaticEPKNS_23PxcSolverConstraintDescEjRNS_16PxcSolverContextE
wZa:__ZL22stbir__encode_scanlineP11stbir__infoiPvPfiii
rql:_FieldBuilder_SetValue_m828035213
tYj:_ExternalException__ctor_m2877839282
Nrf:__ZN20QuadTreeNodeRenderer13StaticDestroyEPv
Bha:__ZN11UnityEngine15CloudWebService20WebRequestRestClient5AbortEv
E9n:_Regex_Matches_m2080913806
ACc:__ZN9Transform12CleanupClassEv
_ii:__ZL57FontData_t746620069_CustomAttributesCacheGenerator_m_FontP21CustomAttributesCache
A6d:__ZN5physx6shdfnd5ArrayIPvNS0_15InlineAllocatorILj256ENS0_19ReflectionAllocatorINS_2Cm5BlockIS2_Lj32EEEEEEEE15growAndPushBackERKS2_
$2e:__ZN5physx18PxsSolverStartTask13setupDescTaskEv
$Ff:_UNITY_FT_Set_Pixel_Sizes
ejl:_OperatingSystem_Clone_m1122165140
a4o:_GameObject_AddComponent_TisRuntimeObject_m3469369570_gshared
ZKa:__ZNSt3__26vectorIN9ShaderLab19SerializedSubShaderENS_9allocatorIS2_EEE26__swap_out_circular_bufferERNS_14__split_bufferIS2_RS4_EE
cU:__ZN11UnityEngine9Animation33SetGenericTransformPropertyValuesERKNS0_30AnimatorGenericBindingConstantERKN7mecanim10ValueArrayEP9Transformy
aL:__ZN11UnityEngine9Animation28AnimationClipBindingConstant8TransferI24GenerateTypeTreeTransferEEvRT_
eNd:__ZN5physx3Cct13BoxController6resizeEf
tEp:_List_1_RemoveAll_m3165362277_gshared
too:_Type_type_is_subtype_of_m1406623598
WPl:_Int16Converter_ConvertFromString_m1829210052
Efm:_Enumerator_MoveNext_m3846780716_gshared
JQm:_Array_InternalArray__IndexOf_TisVector2_t2156229523_m424149457_gshared
k2c:__Z19GL_CUSTOM_PopMatrixv
M3l:_String_System_IConvertible_ToByte_m4057316234
F4e:__ZN5physx6shdfnd5ArrayINS_2Cm12DelegateTaskINS_2Sc5SceneEXadL_ZNS5_19updateCCDSinglePassEPNS_10PxBaseTaskEEEEENS0_19ReflectionAllocatorIS8_EEE8recreateEj
m0l:_PolicyStatement_ToXml_m1251259864
Sjo:_Thread_get_CurrentThread_m4142136012
flb:__Z30ProcessDynamicBatchGeometryJobP25DynamicVBOGeometryJobDataj
Nic:__ZNSt3__27__sort4IRNS_6__lessI11CulledLightS2_EEPS2_EEjT0_S6_S6_S6_T_
Gng:__ZN6il2cpp2vm14TypeNameParser26ParseArrayModifierOptionalEv
yen:_XmlSchemaFacet__cctor_m3717078403
Xbh:_DTDValidatingReader_GetAttributeIndex_m680305599
eoa:__Z26scripting_object_get_class18ScriptingObjectPtr
IAg:__ZN6il2cpp6icalls8mscorlib6System10Reflection8Assembly13get_code_baseEP24Il2CppReflectionAssemblyb
ELb:__ZNSt3__26vectorIN4core12basic_stringIcNS1_20StringStorageDefaultIcEEEE13stl_allocatorIS5_L18MemLabelIdentifier13ELi16EEE7reserveEj
Bie:__ZN5physx34NpShapeGetScRigidObjectFromScbSLOWERKNS_3Scb5ShapeE
eUj:_DSASignatureDeformatter__ctor_m2889130126
dCc:__ZNK28MonoBehaviourPropertyBinding15GenerateBindingERKN4core12basic_stringIcNS0_20StringStorageDefaultIcEEEEbRN11UnityEngine9Animation14GenericBindingE
YQh:__ZL64BypassElementCollection_t47326401_CustomAttributesCacheGeneratorP21CustomAttributesCache
yKp:_List_1_set_Item_m35836043_gshared
xtj:_ControlPosition_GetNewCord_m3380154328
d6g:_X509ChainElementCollection__ctor_m3424079155
$6n:_LinkStack_Push_m3081279930
vHb:__ZN14SubstanceValue8TransferI18StreamedBinaryReadILb0EEEEvRT_
Gjm:_Enumerator_MoveNext_m1107569389_gshared
gsq:_ConfigurationSection_DoDeserializeSection_m3796441793
Plo:_Timer_Init_m891735195
sae:__ZNK5physx21PxsBodyTransformVault12getTransformERKNS_11PxsBodyCoreE
uog:__ZNSt3__26vectorINS_12basic_stringIcNS_11char_traitsIcEENS_9allocatorIcEEEENS4_IS6_EEE21__push_back_slow_pathIS6_EEvOT_
ONg:__ZN6il2cpp6icalls8mscorlib6System11Environment15internalGetHomeEv
l1m:_Matrix4x4_GetHashCode_m4034747639_AdjustorThunk
VZg:__ZN6il2cpp6icalls8mscorlib6System8Security6Policy8Evidence21IsAuthenticodePresentEP14Il2CppAssembly
SAp:_List_1_System_Collections_IList_Add_m634558835_gshared
tXj:_ResourceCacheItem_t51292791_marshal_pinvoke_cleanup
vla:__ZNK5Unity9Component7GetNameEv
$7:__ZN10AudioMixer8TransferI18StreamedBinaryReadILb0EEEEvRT_
BRh:__ZL115NetSectionGroup_t3270122580_CustomAttributesCacheGenerator_NetSectionGroup_t3270122580____DefaultProxy_PropertyInfoP21CustomAttributesCache
$Od:__ZN44ConvexVsHeightfieldContactGenerationCallback7onEventEjPj
S5q:___string_read
vLk:_InternalEnumerator_1_get_Current_m891406891_gshared
_rk:_XmlEntityReference_SetReferencedEntityContent_m2226543001
p$q:_Canvas_get_rootCanvas_m3165691493
zVm:_Native__cctor_m1435623442
MIp:_List_1_System_Collections_IList_Remove_m1070694895_gshared
qBq:_LayoutCache__ctor_m3885940174
eNl:_StringDictionary_set_Item_m3127846840
uBd:__ZNK11b2RopeJoint16GetReactionForceEf
qV:__ZN7mecanim8skeleton26SkeletonPoseComputeGlobalQEPKNS0_8SkeletonEPKNS0_13SkeletonPoseTIN4math4trsXEEEPS7_ii
pMq:_UInt64_System_IConvertible_ToByte_m1501504925_AdjustorThunk
jYq:_TextGenerator_Invalidate_m1072346986
Jvd:__ZN14ParticleSystem40OnTrailGeometryJobsScheduledRenderThreadERK8JobFence
$Ak:_TlsClientHello_ProcessAsTls1_m2549285167
Poj:__Z74RuntimeInvoker_Boolean_t97287965_UIVertex_t4057497605_UIVertex_t4057497605PFvvEPK10MethodInfoPvPS4_
SRe:__ZN5physx2Gu19_gjkRelativeRayCastINS0_9TriangleVENS0_8CapsuleVEEEbRT_RT0_RKNS_6shdfnd3aos15PsMatTransformVERKNS9_6FloatVERKNS9_5Vec3VESI_RSD_RSG_SK_f
fsd:__ZN13TriggerModule8TransferI19StreamedBinaryWriteILb0EEEEvRT_
SU:__ZN9BlobWrite8TransferI22OffsetPtrArrayTransferIiEEEvRT_PKc17TransferMetaFlags
Jfo:_EncoderExceptionFallback_Equals_m2760188920
cgh:_XsdDuration_get_AllowedFacets_m2965230154
Hjn:_RIPEMD160Managed_HashCore_m2350629432
bbe:__ZN5physx6shdfnd5ArrayIPvNS0_15InlineAllocatorILj256ENS0_19ReflectionAllocatorINS_11NpAggregateEEEEEE15growAndPushBackERKS2_
JVo:_List_1_AddEnumerable_m1991265_gshared
q5:__ZN4FMOD6System7releaseEv
SNe:__ZN5physx6shdfnd8PoolBaseINS_2Sc18TriggerInteractionENS0_19ReflectionAllocatorIS3_EEE15disposeElementsEv
LHl:_Boolean_CompareTo_m3665076258
i4l:_String_Split_m3580120853
c0g:_WebConnection_ExpectContent_m3997549161
era:__Z18PathToAbsolutePathRKN4core12basic_stringIcNS_20StringStorageDefaultIcEEEE
oCq:_GUILayoutUtility_LayoutFromEditorWindow_m2914699782
Tmo:_TimeSpan_get_TotalMinutes_m3920401708
s5k:_SynchronizedWriter_Write_m3004860431
EI:__ZN13AnimationClip23VirtualRedirectTransferER17RemapPPtrTransfer
HPj:_ObjectManager_AddFixup_m2154325362
WOd:__ZL31PointInConvexPolygon2D_OutCodesPKfjffffRh
pcl:_DTDReader_Expect_m1980664535
_Ya:__ZL13BlitImageImplR14ImageReferenceiiRKS_NS_10ColorSpaceENS_8BlitModeEb
lIc:__ZN15DirectorManager17AcquireOutputNodeEv
hmd:__ZL15AccumulateNoiseILb1ELi1EEN4math8floatNx2ERKNS0_8floatNx3ERKfiS6_S6_
zqn:_ReflectionPermission_IsSubsetOf_m1880694831
h$a:__ZN6prcoreL17RemapGenericFloatI18TexFormatRGBAFloat17TexFormatRGBFloatEEvPKNS_9InnerInfoE
d4o:_GameObject_GetComponentInChildren_TisRuntimeObject_m1310240902_gshared
epf:__ZN9Rigidbody12MoveRotationERK11Quaternionf
Etn:_DateTimeUtils_GetStandardPattern_m813010822
sYc:__Z50Register_UnityEngine_Quaternion_INTERNAL_CALL_Lerpv
I5h:__ZL69PersistentCall_t3407714124_CustomAttributesCacheGenerator_m_ArgumentsP21CustomAttributesCache
W5a:__ZN16GeometryJobTasks20ScheduleGeometryJobsER9GfxDevicePFvP15GeometryJobDataEPK22GeometryJobInstructionjb
v3:__ZN12AudioManager29ShutdownReinitializeAndReloadEv
W$i:__Z117RuntimeInvoker_Boolean_t97287965_RuntimeObject_RuntimeObject_Int32_t2950945753_Int32_t2950945753_StringU26_t181565287PFvvEPK10MethodInfoPvPS4_
Tob:__ZN16ReflectionProbes28GetMinBakedCubemapResolutionEv
GAg:__ZN6il2cpp6icalls8mscorlib6System10Reflection8Assembly22load_with_partial_nameEP12Il2CppStringP40mscorlib_System_Security_Policy_Evidence
P5e:__ZN5physx2Cm12DelegateTaskINS_2Sc5SceneEXadL_ZNS3_15postNarrowPhaseEPNS_10PxBaseTaskEEEE11runInternalEv
wnf:__Z20ConvertContactToMonoP9Collision
Knn:_PermissionSet__ctor_m2328457660
Znd:__ZN17RemapPPtrTransfer8TransferI22ParticleSystemRendererEEvRT_PKc17TransferMetaFlags
gPg:__GLOBAL__sub_I_String_cpp
Bbg:__ZN15dense_hashtableINSt3__24pairIK10KeyWrapperIPK22Il2CppGenericParameterEP11Il2CppClassEES6_N6il2cpp5utils11PointerHashIS4_EEN14dense_hash_mapIS6_S9_SE_NS6_14EqualsComparerINS0_8equal_toIS5_EEEENS0_9allocatorISA_EEE9SelectKeyESJ_SL_E6insertERKSA_
$wm:_InputField_GenerateCaret_m1459647218
YWh:__ZL49Camera_t4157153871_CustomAttributesCacheGeneratorP21CustomAttributesCache
qxq:_X509CertificateEnumerator__ctor_m85694331
kY:__ZNSt3__26__sortIRNS_6__lessI4PPtrI13AnimationClipES4_EEPS4_EEvT0_S8_T_
A3n:_DateTime_CompareTo_m3889078633
_sa:__Z29GetGlobalAllowNameConversionsv
VOd:__ZL17transformVerticesRfS_S_S_PfjPKN5physx6PxVec3EPKhRKNS1_7PxMat33E
nmf:__ZNK5physx2Gu15HeightFieldUtil31getFaceIndexAtShapePointNoTest2Ejff
Hsc:__ZN8Material8SetColorEN9ShaderLab16FastPropertyNameERK10ColorRGBAf
bzl:_StrongName_get_TokenAlgorithm_m1794722022
b0f:_DepthOfFieldDeprecated_BlurHex_m3375926860
xjr:_glUniform3uiv__wrapper
d9:__ZN11AudioSource23VirtualRedirectTransferER18StreamedBinaryReadILb0EE
V5g:_X509CertificateEnumerator__ctor_m943731472
ZGf:__ZN20TextRenderingPrivate8FontImplC2E10MemLabelIdPN13TextRendering4FontE
B5m:_RangeInt_get_end_m4128831787
TOe:__ZNK5physx2Sq10AABBPruner5sweepERKNS0_9ShapeDataERKNS_6PxVec3ERfRNS0_14PrunerCallbackE
npa:__ZL41AssemblyNameMatchesWithOrWithoutExtensionPKcS0_
yB:__ZN24NavMeshAgentScaleJobData3JobEPS_jPK23TransformAccessReadOnlyPKyj
g8n:_PatternCompiler_EmitInfo_m780326530
ZAd:__ZN23ColliderTilingExtension5ResetEv
v2a:__ZN14GfxContextGLES43AddRenderSurfaceToDeferredFBOInvalidateListEPK17RenderSurfaceGLES
xQe:__ZN5physx17PxsCCDAdvanceTask11runInternalEv
Cqa:__ZN14SerializedFile14SerializedTypeD2Ev
RGm:_Text_get_resizeTextMinSize_m1002355407
QFf:__ZNSt3__26vectorIN20TextRenderingPrivate8FontImpl13CharacterInfoE13stl_allocatorIS3_L18MemLabelIdentifier1ELi16EEE6insertENS_11__wrap_iterIPKS3_EERS9_
gab:__ZN23PreloadManagerOperation6IsDoneEv
lA:__ZN34NavMeshAgentUpdateTransformJobData3JobEPS_j
BFl:_Array_CreateInstance_m1027597705
CGf:__ZN20TextRenderingPrivate8TextMesh23VirtualRedirectTransferER17RemapPPtrTransfer
VCm:_Selectable_get_navigation_m3508916916
lLd:__ZN10Effector2D10EndContactEP9b2Contact
APg:__ZN6il2cpp5utils11StringUtils11Utf16ToUtf8ERKNSt3__212basic_stringIDsNS2_11char_traitsIDsEENS2_9allocatorIDsEEEE
pvk:_MD4Managed_Decode_m4273685594
mZd:__ZN5physx3Cct26CharacterControllerManagerD2Ev
uun:_DBNull_System_IConvertible_ToInt16_m4228856009
xVf:_FirstPersonController_PlayLandingSound_m519366797
lNb:__ZN21LightProbeProxyVolume18HasHardwareSupportEv
umo:_WaitOrTimerCallback_BeginInvoke_m2905803559
WFd:__ZNK20b2SeparationFunction17FindMinSeparationEPiS0_f
MZa:__ZN6prcoreL31inner_stretch_argb8888_bilinearEPKNS_9InnerInfoE
k2b:__Z18Transfer_BlittableI18StreamedBinaryReadILb1EELb1E8BitFieldEvRK29SerializationCommandArgumentsR31RuntimeSerializationCommandInfo
szf:_UNITY_FT_Outline_Decompose
srn:_SiteIdentityPermission_IsSubsetOf_m1421120977
vNo:_Enumerator_System_Collections_IEnumerator_get_Current_m3484854280_gshared
ZHn:_Int64_System_IConvertible_ToChar_m1509243576_AdjustorThunk
Cwq:_GeneralNames_get_IPAddresses_m4242915644
K6f:_UnitySynchronizationContext_Exec_m3359802660
kUg:_GC_init_size_map
_Pe:__ZN5physx6shdfnd8internal8HashBaseINS0_4PairIKNS3_IPKNS_12PxsRigidCoreEPKNS_12PxsShapeCoreEEEPNS_11PxsCCDShapeEEESA_NS0_4HashISA_EENS1_11HashMapBaseISA_SD_SG_NS0_9AllocatorEE6GetKeyESI_Lb1EE15reserveInternalEj
gib:__Z20scripting_object_new17ScriptingClassPtr
zbr:dynCall_iiiiifi
v9q:dynCall_iiiffiii
Qeh:_XsdParticleStateManager_AddChoice_m4245171512
HKe:__ZN5physx2Sc5Scene21setDominanceGroupPairEhhRKNS_20PxDominanceGroupPairE
Yun:_Decimal__ctor_m1925875020_AdjustorThunk
ANj:_SerializationCallbacks__ctor_m3863304525
Ys:__ZN14NavMeshManager23RemoveOffMeshConnectionEy
zrd:__ZN16CustomDataModule8TransferI18StreamedBinaryReadILb0EEEEvRT_
P:Math_exp
m8f:_Vector3_Min_m1803158933
up:FUNCTION_TABLE_iiifi
iKg:__ZN6il2cpp2os5posix13PosixAutoLockD2Ev
$oq:_ConfigurationElement_get_LockAllAttributesExcept_m1994330550
bnp:_Dictionary_2_ContainsKey_m1334850607_gshared
rLd:__ZN13BoxCollider2D15InitializeClassEv
$am:_Comparer_1__cctor_m101106588_gshared
$sj:_CollisionArea_SendCollisionAreaEnded_m4032002639
qsf:_cff_get_advances
U7b:__ZN13MonoBehaviour9SetScriptERK4PPtrI10MonoScriptE18ScriptingObjectPtr
ZUh:__ZL55g_Mono_Security_Assembly_CustomAttributesCacheGeneratorP21CustomAttributesCache
I7n:_PatternCompiler_EmitCharacter_m1434994858
AMf:__Z43CanvasRenderer_Get_Custom_PropAbsoluteDepthP12Il2CppObject
R5f:_Transform_Translate_m1990195114
trl:_ILGenerator_target_len_m542103396
gCe:__ZN5physx7NpScene12loadFromDescERKNS_11PxSceneDescE
z1q:_Animator_GetCurrentAnimatorStateInfo_m18694920
zbb:__ZNK10FileSystem16LastErrorMessageEv
hjp:_Array_InternalArray__Insert_TisVector3_t3722313464_m3862657277_gshared
E3p:_ReadOnlyCollection_1_System_Collections_Generic_IListU3CTU3E_get_Item_m1659090079_gshared
xRg:__ZNK6il2cpp8metadata14Il2CppTypeLessclEPK10Il2CppTypeS4_
mZo:_Array_Sort_TisKeyValuePair_2_t2530217319_TisKeyValuePair_2_t2530217319_m1635694076_gshared
OBj:_PlayerGameObject_SetWalkSpeed_m2976822238
Ndg:__ZN15dense_hashtableINSt3__24pairIK10KeyWrapperIPK11Il2CppClassEPKcEES6_N6il2cpp5utils11PointerHashIS3_EEN14dense_hash_mapIS6_S9_SE_NS6_14EqualsComparerINS0_8equal_toIS5_EEEENS0_9allocatorISA_EEE9SelectKeyESJ_SL_E14squash_deletedEv
j8j:_EventSystem_Update_m1662072334
lNc:__ZN11TimeManager16HasFixedTimeStepEv
$Tf:__ZN22UnityWebRequestManager10InitializeEv
xgq:_XmlNodeReader_MoveToAttribute_m1061057206
j7b:__ZN13MonoBehaviour13AwakeFromLoadE17AwakeFromLoadMode
fVg:__ZN6il2cpp6icalls8mscorlib6System10Reflection4Emit13ModuleBuilder20create_modified_typeEP27Il2CppReflectionTypeBuilderP12Il2CppString
rYb:__ZL26Transfer_SimpleNativeClassI17RemapPPtrTransfer8GradientLb1EEvRK29SerializationCommandArgumentsR31RuntimeSerializationCommandInfo
L7j:_RaycasterManager_RemoveRaycasters_m3057093063
xJc:__ZN12CachedWriter9InitWriteER15CacheWriterBase
aIc:__Z21UnsignedInt64ToStringy
KBm:_GetRaycastNonAllocCallback_BeginInvoke_m3984885848
yep:_Array_InternalArray__ICollection_Add_TisKeyValuePair_2_t394687570_m3664001109_gshared
T7n:_PatternCompiler_BeginLink_m1295557963
Ggb:__ZN14SafeBinaryRead21TransferSTLStyleArrayI13dynamic_arrayI17SortingLayerEntryLj4EEEEvRT_17TransferMetaFlags
FKe:__ZN5physx14PxsAABBManager15createAggregateEPvb
Lco:_Group_GetAnchorInfo_m3730312864
yin:_XmlSchemaSet_get_GlobalAttributes_m3274158681
mji:__ZL50Graphic_t1660335611_CustomAttributesCacheGeneratorP21CustomAttributesCache
TRh:__ZL142ServicePointManagerElement_t2768640361_CustomAttributesCacheGenerator_ServicePointManagerElement_t2768640361____UseNagleAlgorithm_PropertyInfoP21CustomAttributesCache
Aqm:_KeyCollection_System_Collections_Generic_ICollectionU3CTKeyU3E_Add_m454648927_gshared
Lno:_TimeSpan_op_LessThanOrEqual_m300470010
Vfr:_emscripten_glTexCoordPointer__wrapper
w1c:__Z66Register_UnityEngine_Transform_INTERNAL_CALL_InverseTransformPointv
Mmp:_Dictionary_2_System_Collections_ICollection_CopyTo_m219583983_gshared
lEa:__ZZN15DirectorManager15InitializeClassEvEN41FixedUpdateDirectorFixedUpdateRegistrator7ForwardEv
T2k:_MemoryStream_get_Position_m3733941202
Bb:invoke_iiiiifiiiif
Qql:_GenericTypeParameterBuilder_InvokeMember_m1647304778
hCi:_CookieContainer_GetCookieHeader_m3804824737
Hjk:_HorizontalOrVerticalLayoutGroup_set_childControlWidth_m3261460516
Wkr:_glLinkProgram__wrapper
hQb:__ZN18ScriptingArguments8AddInt64Ex
u_a:__ZN6prcoreL12RemapGenericI17TexFormatARGB888815TexFormatBGR888EEvPKNS_9InnerInfoE
yAd:__Z73Register_UnityEngine_ParticleCollisionEvent_InstanceIDToColliderComponentv
OQb:__ZN12HandlerChain4LockER13FileEntryData12FileLockMode
OEn:_TextInfo_get_ListSeparator_m1628160079
Hkd:__Z20UpdateCustomCurveTplIL27ParticleSystemCurveEvalMode1EEvRK11MinMaxCurveR23ParticleSystemParticlesiijjRKN4math5_int4E
pFm:_Selectable_OnCanvasGroupChanged_m472903475
_jo:_EventWaitHandle_Reset_m3348053200
Pid:__ZNK10SizeModule6UpdateER23ParticleSystemParticlesjj
rcr:dynCall_fiffffi
uoe:__ZN5physx7NpShape8requiresERNS_23PxProcessPxBaseCallbackE
RDg:__ZN6il2cpp6icalls8mscorlib6System13Globalization11CultureInfo35construct_internal_locale_from_nameEP17Il2CppCultureInfoP12Il2CppString
z_b:__ZL22Transfer_ManagedObjectI24GenerateTypeTreeTransferLb1EEvRK29SerializationCommandArgumentsR31RuntimeSerializationCommandInfo
rgc:__ZN15RenderNodeQueueC2E10MemLabelId
qXj:_ResourceEnumerator_FillCache_m1661715061
cVf:_ProtectCameraFromWallClip_Start_m1044145780
xl:_emscripten_set_main_loop_timing
Zb:invoke_iiifffi
h1n:_Convert_ToUInt16_m3523269149
CMj:_BinaryFormatter__ctor_m971003555
nnf:__ZN14CompletionTask22ProcessAllPhysicsTasksEv
osc:__ZN14ImageReference10FlipImageYEv
x5n:_Interpreter_GetLastDefined_m4107643411
Mqd:__ZN21InheritVelocityModule8TransferI17RemapPPtrTransferEEvRT_
P1k:_FileStream_RefillBuffer_m4186945278
H0:__ZN4FMOD3DSP9setBypassEb
Dmd:__Z9StartConeILN11ShapeModule14MultiModeValueE1EEvRS0_R23ParticleSystemParticlesRK19ParticleSystemStateRK27ParticleSystemEmissionStateRKN4math8float3x3ERKNSB_8float4x4Ejbj
Wvc:__Z19NormalizeWheelInputf
mik:_Graphic_DoMeshGeneration_m3548487693
RFk:_EventSystem_2_Broadcast_m1246847328_gshared
a9n:_Repetition__ctor_m1672362629
Kfd:__Z29Transfer_Blittable_ArrayFieldI8JSONReadhEvRT_R9ArrayInfoRK23StaticTransferFieldInfo
f2l:_SecurityFrame_ToString_m339310712_AdjustorThunk
qul:_TypeBuilder_create_runtime_class_m2581270900
K3k:_Path_GetInvalidFileNameChars_m535930204
LRk:_InternalEnumerator_1_get_Current_m3008260692_gshared
Vse:__ZN5physx2Sc9ClothCore17addCollisionPlaneERKNS_21PxClothCollisionPlaneE
Kib:__ZN22RenderingCommandBuffer20CleanupCommandBufferEv
Vwn:_Decimal_op_Implicit_m2299919277
dQo:_Enumerator_MoveNext_m3275886745_gshared
zad:__Z18Transfer_BlittableI9JSONWriteLb1EtEvRK29SerializationCommandArgumentsR31RuntimeSerializationCommandInfo
q6k:_UnexceptionalStreamReader_ReadToEnd_m920589220
Q2n:_DateTime_System_IConvertible_ToType_m1242864300
J4l:_String_IndexOf_m1298810678
Sl:___syscall85
e8e:__ZNK5physx13PxHeightField8isKindOfEPKc
hnk:_XmlConvert_EncodeLocalName_m2931600124
wgc:__ZNSt3__26__sortIRPFbP10GUIElementS2_EPS2_EEvT0_S7_T_
UFf:__Z14ValidateFormatR13dynamic_arrayIN20TextRenderingPrivate16TextFormatChangeELj4EE
Kml:_ConstructorBuilder_GetILGenerator_m1750792206
Geo:_EncoderFallback_get_ReplacementFallback_m818398284
QLg:__ZN6il2cpp2os6Thread19DetachCurrentThreadEv
E8j:_EventTrigger_OnBeginDrag_m4203438710
Xbg:__ZN6il2cpp2vmL21SetupInterfacesLockedEP11Il2CppClassRKNS_2os12FastAutoLockE
$Sb:__ZN11MonoManager23VirtualRedirectTransferER24GenerateTypeTreeTransfer
xqd:__ZN24GenerateTypeTreeTransfer8TransferI13dynamic_arrayIN8UVModule10SpriteDataELj4EEEEvRT_PKc17TransferMetaFlags
eKq:_GeneralBasics2dJS_advancedExamples_m209125184
dob:__ZN19StreamedBinaryWriteILb0EE8TransferI13dynamic_arrayI8Vector3fLj4EEEEvRT_PKc17TransferMetaFlags
qT:__ZN23AnimationPlayableOutput17SetSourcePlayableEP8Playable
Mvd:__ZL24BuildParticleLineSegmentILb1EEvjRPhRKN4math8float4x4EPK15LineBuilderDataRKfSA_11ColorRGBA32
bno:_TimeSpan_CompareTo_m3633415627_AdjustorThunk
Uro:_Transform_1_Invoke_m255569457_gshared
SHn:_Int32_ToString_m2507389746_AdjustorThunk
FVm:_CullingGroup_Dispose_m782801025
TXd:__ZN16ControllerFilter9preFilterERKN5physx12PxFilterDataEPKNS0_7PxShapeEPKNS0_12PxRigidActorERNS0_7PxFlagsINS0_9PxHitFlag4EnumEtEE
Bga:__ZN11UnityEngine15CloudWebService14DataDispatcher15SetupWebRequestEv
oVp:_Collection_1_ConvertItem_m492501417_gshared
A6:__ZN10AudioMixer14OnExitPlayModeEv
SVe:__ZN16MBPOS_TmpBuffers16allocateSleepingEjj
zPm:_Array_InternalArray__IndexOf_TisKeyValuePair_2_t2488497980_m898721334_gshared
s7o:_LeanTween_easeInCubic_m1929361072
EOn:_KeyPairPersistence_get_MachinePath_m3812267291
Uuj:_Example_EventUser_UnregisterEvents_m1974367643
kao:_RxCompiler_EmitTest_m840400711
zMg:__ZN6il2cpp2os10ThreadImpl22SetNativeThreadCleanupEPFvPvE
pff:__ZN19CharacterController23VirtualRedirectTransferER19StreamedBinaryWriteILb0EE
lHc:__ZN21FixedBehaviourManager6UpdateEv
EPc:__ZN9Transform9SetParentEPS_NS_15SetParentOptionE
Uep:_Array_InternalArray__ICollection_Add_TisCustomAttributeTypedArgument_t2723150157_m4102253769_gshared
Szi:_ServicePointManagerElement_get_EnableDnsRoundRobin_m3008627966
UZf:_WaterHoseParticles_Start_m1169804003
urd:__ZN15CollisionModule8TransferI18StreamedBinaryReadILb0EEEEvRT_
h1q:_AnimatorControllerPlayable_SetHandle_m2260644454_AdjustorThunk
Yua:__ZN19ShaderPropertySheet8SetFloatEN9ShaderLab16FastPropertyNameEfNS_8SetFlagsE
oZq:_Physics_Raycast_m952690504
cMb:__ZN19RuntimeSceneManager24BeginIntegrateMainThreadEP10UnityScene
kJq:_U24adaptorU24__GeneralSimpleUiJSU24callable5U2428_25__U24ActionU243_Adapt_m1385386389
_be:__ZN5physx14NpArticulation26setExternalDriveIterationsEj
xPd:__ZN16RayRTreeCallbackILi0ELb0EED0Ev
o$e:__ZN5physx20PxsParticleSystemSim23scheduleCollisionUpdateERNS_10PxBaseTaskE
pVf:_FirstPersonController__ctor_m1424732549
M4k:_StringReader_CheckObjectDisposedException_m3796163530
Qqo:_UInt32_System_IConvertible_ToInt16_m1659441601
_Ul:_DeflateStream_CloseZStream_m3729759613
AKa:__ZN9ShaderLab20SerializedSubProgramaSERKS0_
a9q:_roundf
wIl:_Byte_System_IConvertible_ToSingle_m324484566_AdjustorThunk
Gwn:_Decimal_op_Explicit_m2848387298
uMo:_KeyValuePair_2_ToString_m1238786018_gshared
WM:__ZN8Animator15SetPrepareStageEv
Wiq:_XmlReader_Dispose_m203017332
z$:__ZN8AnimatorC2E10MemLabelId18ObjectCreationMode
Ybg:__ZN6il2cpp2vmL24SetupTypeHierarchyLockedEP11Il2CppClassRKNS_2os12FastAutoLockE
Tqm:_ShimEnumerator_Reset_m3532313698_gshared
ben:_XmlSchemaIdentityConstraint__ctor_m3826864011
dwc:__ZL11TextHandleriPK23EmscriptenKeyboardEventPv
vlc:__Z20CalculateLightMatrixRK15SharedLightDataP10Matrix4x4f
lFf:_destroy_face
B7f:_Vector3__ctor_m1719387948
lPj:_SerializableTypeMetadata_WriteTypeData_m1099030367
Ggr:_glBlendEquationSeparate__wrapper
Igq:_XmlParserContext__ctor_m2145142613
MVg:__ZN6il2cpp6icalls8mscorlib6System8Security12Cryptography24RNGCryptoServiceProvider13RngInitializeEP11Il2CppArray
lep:_Array_InternalArray__ICollection_Add_TisUriScheme_t2867806342_m1829265472_gshared
Qtd:__ZN21RotationBySpeedModuleD0Ev
m9:__ZN20SoundChannelInstance7setMuteEb
fZd:__ZN5physx3Cct26CharacterControllerManager21createObstacleContextEv
$hl:_XmlSchemaComplexType__cctor_m4271670972
bfm:_Enumerator_get_CurrentValue_m3042983142_gshared
Kfp:_Array_InternalArray__ICollection_Add_TisVector2_t2156229523_m4029235359_gshared
j3b:__Z19TransferField_ArrayI18StreamedBinaryReadILb1EE27Converter_SimpleNativeClassI17AnimationCurveTplIfEEEvRK23StaticTransferFieldInfoR31RuntimeSerializationCommandInfoRT0_
JLd:__ZN7b2World18SetContactListenerEP17b2ContactListener
txd:__Z19UpdateSingleRow2TplIL27ParticleSystemCurveEvalMode1ELS0_1EEvfRK11MinMaxCurveS3_RK23ParticleSystemParticlesPfbiii
pGd:__ZN14PhysicsQuery2D11LinecastAllERK8Vector2fS2_RKN10Collider2D13ContactFilterEPKS3_bP13dynamic_arrayI12RaycastHit2DLj4EE
UWa:__ZN18GfxFramebufferGLES22MakeCurrentFramebufferENS_7BuiltinE
sEe:__ZN5physx6shdfnd5ArrayIPNS_2Sc19ShapeInstancePairLLENS0_19ReflectionAllocatorIS4_EEE15growAndPushBackERKS4_
UPn:_CharEnumerator_MoveNext_m599189179
bWl:_AuthenticationModulesSection_get_AuthenticationModules_m1522553951
Fxa:__ZN12CachedReader4ReadEPvj
M1d:__ZN5physx14PxsAABBManager19createAggregateElemEv
mge:__ZN5physx2Sc8BodyCore24clearSpatialAccelerationEbb
hzi:_NetSectionGroup_get_ConnectionManagement_m4173380476
GKn:_SimpleCollator_MatchesForwardCore_m850743967
uHb:__ZN14SubstanceInput8TransferI18StreamedBinaryReadILb0EEEEvRT_
xkd:__ZNK14RotationModule6UpdateERK27ParticleSystemReadOnlyStateRK19ParticleSystemStateR23ParticleSystemParticlesRKN4math7_float4Ejj
Ihn:_XmlSchemaReader_get_XmlLang_m358136466
VAa:__ZN19RuntimeSceneManagerD2Ev
LBn:_CCGregorianCalendar_GetMonth_m1547203696
Rha:__ZN11UnityEngine15CloudWebService25WebRequestDownloadHandler17OnCompleteContentEv
LZa:__ZN6prcore17GetIntegerBlitterE13TextureFormatS0_N14ImageReference8BlitModeE
lMp:_List_1_RemoveAt_m3304170338_gshared
lEe:__ZN5physx10PxsContext20createContactManagerERKNS_24PxvManagerDescRigidRigidEPNS_18PxsMaterialManagerE
WHd:__ZN13BoxCollider2DD0Ev
xrg:__ZN6il2cpp2gc19AppendOnlyGCHashMapINSt3__24pairIPK11Il2CppImageP11Il2CppClassEEP22Il2CppReflectionModule17ReflectionMapHashIS9_ENS2_8equal_toIS9_EEE11TryGetValueERKS9_PSB_
h6d:__ZN5physx2Sc5Scene31removeActiveBreakableConstraintEPNS0_13ConstraintSimE
u_l:_Evidence_GetDefaultHostEvidence_m3906728247
eBj:_PlatformGenerator_Infinite_Direct_FixedUpdate_m4092138142
hSc:__ZN9BlobWrite14ReduceCopyImplERK14ReduceCopyDataj
vza:__ZNSt3__26__treeI19RepeatingLogMessageNS_4lessIS1_EE13stl_allocatorIS1_L18MemLabelIdentifier73ELi16EEE12__find_equalIS1_EERPNS_16__tree_node_baseIPvEESD_RKT_
HYl:_CodeGroup_FromXml_m302163170
vda:__ZN11AudioSource18IsPlayingScriptingEv
C1a:__Z18IsCompressedFormat14GraphicsFormat
$Bd:__ZNK12b2WheelJoint10GetAnchorAEv
IIe:__ZN5physx6shdfnd5ArrayINS_12PxActorShapeENS0_19ReflectionAllocatorIS2_EEE15growAndPushBackERKS2_
rdb:__ZN25MultiBlocksMemoryFileData17AdjustBlocksCountEj
XAg:__ZNSt3__214__split_bufferIN6il2cpp2vm22EmbeddedResourceRecordERNS_9allocatorIS3_EEED2Ev
sJd:__ZN10ClipperLib14PointInPolygonERKNS_8IntPointEPNS_5OutPtE
Okq:_XmlTextReader_MoveToFirstAttribute_m4069294905
GDf:__ZN13TextRendering4Font8TransferI24GenerateTypeTreeTransferEEvRT_
q5k:_SynchronizedWriter_Write_m301917713
Cok:_XmlDocument_onNodeInserting_m2380219613
EUc:__Z27CullingGroup_CUSTOM_DisposeP12Il2CppObject
Gwd:__Z18UpdateSingleRowTplIL27ParticleSystemCurveEvalMode0EEvfRK11MinMaxCurveS3_RK23ParticleSystemParticlesPfbiii
lSf:__ZNSt3__26vectorIP19BaseConnectSettings13stl_allocatorIS2_L18MemLabelIdentifier6ELi16EEE21__push_back_slow_pathIKS2_EEvRT_
ht:__ZN20NavMeshBuildSettingsC2Ev
bgc:__ZN13ComputeShader15SetTextureParamEjRKN9ShaderLab16FastPropertyNameE9TextureID16TextureDimension
z8o:_LeanTween_pauseAll_m2042809301
Wke:__ZN5physx2Sc14ConstraintCore8setFlagsENS_7PxFlagsINS_16PxConstraintFlag4EnumEtEE
$n:_glStencilMask
xMg:__ZN6il2cpp2os10ThreadImpl16GetCurrentThreadEv
_6e:__ZNK5physx2Sc15ClothFabricCore20getNbParticleIndicesEv
mPl:_DesignerAttribute_get_TypeId_m98652691
Yvc:__ZN15GUIEventManager10QueueEventERK10InputEvent
jXj:_ResourceReader_ReadNonPredefinedValue_m2638853518
Qai:__ZL62EventType_t3528516131_CustomAttributesCacheGenerator_mouseMoveP21CustomAttributesCache
jnp:_Dictionary_2_ToTKey_m89125436_gshared
aYj:_DecimalConstantAttribute__ctor_m3583301917
XK:__ZN24GenerateTypeTreeTransfer21TransferSTLStyleArrayINSt3__26vectorI24CompressedAnimationCurve13stl_allocatorIS3_L18MemLabelIdentifier26ELi16EEEEEEvRT_17TransferMetaFlags
J3i:__Z116RuntimeInvoker_Vector3_t3722313464_Vector3_t3722313464_Vector3_t3722313464_Vector3U26_t3464235976_Single_t1397266774PFvvEPK10MethodInfoPvPS4_
lTg:_GC_push_conditional_with_exclusions
_hm:_Enumerator_System_Collections_IDictionaryEnumerator_get_Entry_m2772123357_AdjustorThunk
rin:_XmlSchemaSequence_ValidateUPAOnItems_m3453552008
aPe:__ZN5physx2Sq8AABBTree11shiftOriginERKNS_6PxVec3E
gmh:_XsdValidatingReader_ReadAttributeValue_m3920876270
Xmo:__Z33il2cpp_codegen_check_add_overflowxx
e0c:__Z44Register_UnityEngine_RenderTexture_set_depthv
uKq:_GeneralEventsListenersJS_changeColor_m187079926
z5d:__ZN5physx2Sc7BodySim6wakeUpEv
Ahn:_XmlSchemaReader_get_LocalName_m3807997561
cMg:__ZN6il2cpp2os13LibraryLoader18GetFunctionPointerEPvRK16PInvokeArguments
g9g:_DTDChoiceAutomata_get_Emptiable_m1728186416
gck:_UIBehaviour_IsDestroyed_m3033055982
ePg:_WriteZStream
bEe:__ZN5physx6shdfnd8PoolBaseINS_2Gu30LargePersistentContactManifoldENS0_19ReflectionAllocatorIS3_EEE17releaseEmptySlabsEv
W5d:__ZN5physx2Sc21ConstraintInteraction7destroyEv
$hf:__ZN14SphereCollider6CreateEPK9Rigidbody
ZYc:__Z33Register_UnityEngine_Random_Rangev
Avm:_InputField_get_readOnly_m3111985574
Saf:__ZN5physx11AdjacenciesD2Ev
cpb:__ZN14RenderSettings27UpdateIndirectSpecularColorEv
IWj:_TypeDelegator_IsByRefImpl_m613197127
fVl:_DeflateStream_Flush_m2668044568
UJb:__ZN14PlayerSettings8TransferI18StreamedBinaryReadILb0EEEEvRT_
Nlg:__ZN6il2cpp6icalls8mscorlib6System8MonoType16GetMethodsByNameEP20Il2CppReflectionTypeP12Il2CppStringibS5_
_8i:__Z143RuntimeInvoker_Void_t1185182177_RuntimeObject_Single_t1397266774_Vector3U26_t3464235976_Single_t1397266774_Single_t1397266774_Int32_t2950945753PFvvEPK10MethodInfoPvPS4_
Bap:_LeanTween_linear_m3381334591
HFe:__ZNK5physx7NpScene16getNbConstraintsEv
qLk:_InternalEnumerator_1_get_Current_m59513083_AdjustorThunk
q4q:_strncmp
Ere:__ZN5physx7NpCloth14setWakeCounterEf
DAp:_RijndaelTransform__cctor_m2439033240
tcc:__ZNSt3__27__sort3IRNS_4lessIN22BuiltinResourceManager8ResourceEEEPS3_EEjT0_S7_S7_T_
wyl:_SignedData_OidToName_m3689381191
tNp:_Enumerator_MoveNext_m3694449643_AdjustorThunk
bCf:_ps_hints_t2mask
e2o:_LayoutGroup_SetProperty_TisVector2_t2156229523_m2721164497_gshared
BKm:_Array_InternalArray__ICollection_Remove_TisMonoResource_t4103430009_m238733686_gshared
kGm:_Slider_Set_m1476104429
Zjk:_Image_set_fillClockwise_m2210525152
MDb:__ZN10BlendShape8TransferI19StreamedBinaryWriteILb0EEEEvRT_
gof:__ZN14PhysicsManagerC2E10MemLabelId18ObjectCreationMode
QZk:__Z21il2cpp_codegen_sizeofP11Il2CppClass
E1a:__Z19GetTimeSinceStartupv
xkk:_Image_AddQuad_m2161647989
YRo:_Enumerator_System_Collections_IEnumerator_Reset_m2953002685_gshared
xBf:_TT_Load_Composite_Glyph
xqj:_AteComponent_get_GOInstanceID_m1580268871
sVm:_DelegatePInvokeWrapper_CSSMeasureFunc_t1554030124
Fio:_UTF32Encoding_GetDecoder_m3364062151
SEb:__Z33MultiplyMatrixArrayWithBase4x4REFPK10Matrix4x4fS1_S1_PS_j
n_n:_DateTime_FromTicks_m4059645178
E1i:__Z82RuntimeInvoker_Boolean_t97287965_RuntimeObject_Int32_t2950945753_Int32_t2950945753PFvvEPK10MethodInfoPvPS4_
Yrb:__ZN9ShaderLab11shaderprops9GetTexEnvEPK19ShaderPropertySheetS3_NS_16FastPropertyNameE16TextureDimensionb
dx:__ZN15HeightMeshQueryD0Ev
ejc:__ZN29RenderNodeQueuePrepareContextC2Ev
Hp:FUNCTION_TABLE_vifiiiii
MLa:__ZN9ShaderLab20SerializedSubProgram16TextureParameter8TransferI24GenerateTypeTreeTransferEEvRT_
xbr:dynCall_viiiiiiiiiiiii
gUj:_DSASignatureDeformatter_SetKey_m2999549245
mWg:__ZN6il2cpp2os11MutexHandle4WaitEb
dQa:__ZN9GfxDevice19SaveStereoConstantsEv
lWg:__ZN6il2cpp2os11MutexHandle4WaitEj
QQc:__ZL34GetComponentsImplementationRecurseILb1ELi1ELi1EEbR10GameObjectbRK17CompareParametersRK39GetComponentsImplementation_ReturnValue
kWg:__ZN6il2cpp2os11MutexHandle4WaitEv
E$a:__ZN6prcoreL17RemapGenericFloatI15TexFormatRGHalf18TexFormatARGBFloatEEvPKNS_9InnerInfoE
POq:_DispatcherKey__cctor_m1082726794
yac:__Z18SimulateMouseInputi
G9p:_Comparison_1_BeginInvoke_m2569506882_gshared
sfc:__ZN13RenderManager23AddRemoveCamerasDelayedEv
Ebd:__ZN9JSONWrite8TransferI13dynamic_arrayIdLj8EEEEvRT_PKc17TransferMetaFlags
ojl:_OverflowException__ctor_m4029085969
bSf:__ZN11UnityEngine15PlatformWrapper20SetPlayerPrefsUInt64ERKN4core12basic_stringIcNS1_20StringStorageDefaultIcEEEEy
P0g:_WebException__ctor_m2864788884
J6n:_IntervalCollection_GetMetaCollection_m4029522214
snf:__ZNK5Unity5Joint16GetCurrentForcesER8Vector3fS2_
N1f:_VignetteAndChromaticAberration_CheckResources_m328480231
bYq:_TextGenerator_get_characterCount_m864136654
Czj:_StatData__ctor_m3858338865
_gl:_XmlSchemaAttributeGroupRef_Compile_m1614586667
arc:__ZN13RenderTexture8SetWidthEi
Atd:__ZN11ColorModuleD0Ev
N8i:__Z122RuntimeInvoker_Boolean_t97287965_Ray_t3785851493_Single_t1397266774_Single_t1397266774_Int32_t2950945753_Int32_t2950945753PFvvEPK10MethodInfoPvPS4_
UBa:__ZN22BuiltinResourceManager16StaticInitializeEPv
plc:__Z25SetupObjectBakedOcclusionbRK15SharedLightDataRK26SharedLightmapSettingsDataRK15LightmapIndicesR17ShaderPassContext
TIj:_TriggeredBehaviour_Sequencer_OnRequestedPlayReset_m1000646403
Lp:FUNCTION_TABLE_fiffifi
BSp:_Collection_1_System_Collections_ICollection_CopyTo_m1516601228_gshared
ttm:_Transform_1_Invoke_m3624362083_gshared
kin:_XmlSchemaSequence_Compile_m3478356094
f2q:_Physics2D_Raycast_m2082490717
T7c:__Z42Register_UnityEngine_GUIStyle_set_fontSizev
Dne:__ZNK5physx9NpFactory11getNbShapesEv
S_q:_SphereCollider_INTERNAL_get_center_m2092209095
tXq:_UriTypeConverter_IsValid_m124170761
pXq:_UriTypeConverter_CanConvertFrom_m3865653726
sgf:__ZN5physx14PxRigidBodyExt23addLocalForceAtLocalPosERNS_11PxRigidBodyERKNS_6PxVec3ES5_NS_11PxForceMode4EnumEb
QQl:_PropertyDescriptorCollection_System_Collections_IDictionary_GetEnumerator_m2923447015
eva:__ZN9ShaderLab16FastPropertyName4InitEPKc
yBc:__Z13RegisterClassIN2UI13RectTransformEEvv
Vo:FUNCTION_TABLE_iiiii
iFc:__ZL31MeshRendererTransformChangedJobP13BoundsJobDatajPK23TransformAccessReadOnlyPKyj
VOf:__ZN11UnityEngine15PlatformWrapper19GetPhysicalMemoryMBEv
FNn:_BitConverterLE_ToDouble_m1601000678
hJl:_Char_System_IConvertible_ToByte_m2347554595_AdjustorThunk
jxd:__Z20UpdateWholeSheet2TplIL27ParticleSystemCurveEvalMode0ELS0_2EEvfRK11MinMaxCurveS3_RK23ParticleSystemParticlesPf
G5l:_String_CreateString_m860434552
HEa:__Z18GetDirectorManagerv
Idg:__ZN14dense_hash_mapI10KeyWrapperIPK11Il2CppClassEPKcN6il2cpp5utils11PointerHashIS1_EENS4_14EqualsComparerINSt3__28equal_toIS3_EEEENSC_9allocatorINSC_4pairIKS4_S6_EEEEEC2EjRKSA_RKSF_
I0c:__Z38Transform_CUSTOM_INTERNAL_get_rotationP12Il2CppObjectP11Quaternionf
BHd:__ZN16b2StackAllocator4FreeEPv
XUf:_LookatTarget__ctor_m4219628809
mrg:__ZNK15dense_hashtableINSt3__24pairIK10KeyWrapperINS1_IPK10MethodInfoP11Il2CppClassEEEjEES9_17ReflectionMapHashIS8_EN14dense_hash_mapIS9_jSD_NS9_14EqualsComparerINS0_8equal_toIS8_EEEENS0_9allocatorISB_EEE9SelectKeyESI_SK_E5beginEv
WUa:__ZN7ApiGLES19UploadBufferSubDataEjN2gl12BufferTargetEllPKv
kuq:_SectionGroupInfo_HasChild_m27141307
HBl:_X509StoreManager_get_CurrentUser_m853061004
JPe:__ZN5physx2Sc5Scene17createClothSolverEv
TGa:__ZNSt3__216__rotate_forwardINS_11__wrap_iterIPN4core12basic_stringIcNS2_20StringStorageDefaultIcEEEEEEEET_S9_S9_S9_
h7f:_Vector2_GetHashCode_m3916089713
isq:_ProtectedConfiguration_GetProvider_m2993326322
_9m:_SendMouseEvents_HitTestLegacyGUI_m579942228
nD:__ZN7mecanim12statemachine20StateMachineConstant8TransferI14SafeBinaryReadEEvRT_
gcj:__Z84RuntimeInvoker_Void_t1185182177_RuntimeObject_Single_t1397266774_Vector3_t3722313464PFvvEPK10MethodInfoPvPS4_
Bmn:_SymmetricAlgorithm_set_KeySize_m3805756466
J_c:__Z40SpriteRenderer_CUSTOM_INTERNAL_get_colorP12Il2CppObjectP10ColorRGBAf
ENf:__Z44Register_UnityEngine_Canvas_get_pixelPerfectv
fVe:__ZN15MBP_PairManager17removeMarkedPairsEPK10MBP_ObjectPN5physx16PxsBroadPhaseMBPERK8BitArrayS8_
AIl:_Byte_System_IConvertible_ToUInt32_m1049546902_AdjustorThunk
Y0i:__Z53RuntimeInvoker_Double_t594665363_Interval_t1802865632PFvvEPK10MethodInfoPvPS4_
NTk:_InternalEnumerator_1_get_Current_m3653231044_gshared
Ecc:__Z21InitializeBatchedJobsv
E$q:_CanvasGroup_get_blocksRaycasts_m1805542303
Ufl:_XmlSchemaAny_get_HasValueAny_m1356611694
tVb:__Z19TransferField_ArrayI14SafeBinaryRead27Converter_SimpleNativeClassI8GUIStyleEEvRK23StaticTransferFieldInfoR31RuntimeSerializationCommandInfoRT0_
b7b:__ZN9TextAsset23VirtualRedirectTransferER19StreamedBinaryWriteILb0EE
ZVg:__ZN6il2cpp5utils10MemoryPoolC2Ej
VVg:__ZN6il2cpp5utils10MemoryPoolC2Ev
zob:__ZN14RenderSettings5ResetEv
Yzc:__ZN6Sprite9BindAtlasERK4PPtrI11SpriteAtlasE
m8c:__ZN5Unity9rapidjson12GenericValueINS0_4UTF8IcEE13JSONAllocatorE10FindMemberIS4_EENS0_21GenericMemberIteratorILb0ES3_S4_EERKNS1_IS3_T_EE
rop:_Dictionary_2_System_Collections_IDictionary_Contains_m3647471635_gshared
ane:__ZN5physx9NpPhysics33unregisterDeletionListenerObjectsERNS_18PxDeletionListenerEPKPKNS_6PxBaseEj
QVk:_InternalEnumerator_1_System_Collections_IEnumerator_get_Current_m3892960115_AdjustorThunk
Cte:__ZNK5physx2Sc9ClothCore22getAngularInertiaScaleEv
GQn:_ArrayList_Clone_m2682741233
bzp:_HMAC_HashCore_m3684104066
M8c:__ZN5Unity9rapidjson13GenericReaderINS0_4UTF8IcEES3_13JSONAllocatorE11ParseNumberILj1ENS0_25GenericInsituStringStreamIS3_EENS0_15GenericDocumentIS3_S4_S4_EEEEvRT0_RT1_
Lee:__ZN5physx20NpRigidActorTemplateINS_18PxArticulationLinkEE12setActorFlagENS_11PxActorFlag4EnumEb
kOf:__ZN22BaseUnityConnectClient20StartEventDispatcherEv
rFb:__ZN14SpriteRenderer14OnChangeSpriteEv
hMg:__ZN6il2cpp2os10ThreadImplD2Ev
nzd:__ZN14ParticleSystem18MarkAllSubEmittersEPS_
H9c:__ZN8Gradient8TransferI9JSONWriteEEvRT_
W0j:_ContextCallbackObject__ctor_m3499682402
Myq:_X509StoreManager_get_LocalMachine_m269504582
Q9a:__ZNK12TLSAllocatorI14StackAllocatorE22GetAllocatedMemorySizeEv
$F:__ZN7mecanim6memory16ChainedAllocator8AllocateEjj
Fbh:_DTDParameterEntityDeclaration__ctor_m3216875147
NOc:__Z32GetSceneHierarchyPathDescriptivePK6Object
rqk:_XmlDocument_CreateComment_m4084827154
nOl:_TypeDescriptor_GetProperties_m4110734074
ryp:_EqualityComparer_1_System_Collections_IEqualityComparer_GetHashCode_m2138064395_gshared
zQb:__ZN12HandlerChain4NameEv
hkp:_Array_InternalArray__set_Item_TisMonoWin32Resource_t1904229483_m4042549565_gshared
rGn:_Int16_System_IConvertible_ToType_m3672347013_AdjustorThunk
po:FUNCTION_TABLE_fiiiiiifiiiiiif
HOm:_Array_IndexOf_TisInt32_t2950945753_m2733132773_gshared
UGn:_Int16_ToString_m2013897809
pih:_XsdKeyEntry_ProcessMatch_m1498533836
u2e:__ZN5physx37setupFinalizeSolverConstraintsCoulombERNS_13PxcNpWorkUnitERKNS_2Gu13ContactBufferERKNS_27PxcCorrelationBufferCoulombERKNS_11PxTransformESB_bPhRKNS_13PxcSolverBodyESF_RKNS_17PxcSolverBodyDataESI_ffjffff
$Vj:_TargetException__ctor_m4172127019
VYl:_String_Substring_m2848979100
TMf:__Z44Register_UnityEngine_CanvasRenderer_get_cullv
u_n:_DateTimeOffset__ctor_m74032857
tSl:_TypeDescriptor_get_DefaultConverters_m2050164598
i4o:_ScriptableObject_CreateInstance_TisRuntimeObject_m1552711675_gshared
_Qo:_Enumerator_MoveNext_m323331155_AdjustorThunk
i8:__ZN10AudioMixer8TransferI19StreamedBinaryWriteILb0EEEEvRT_
wOf:__ZN11UnityEngine7Connect17XRDeviceInfoEvent12XRDeviceInfoD2Ev
vTb:__Z44InitializeTransferFunctionScriptingTraitsForI17RemapPPtrTransferEvR31TransferFunctionScriptingTraits
QHi:_HttpWebRequest_CheckAuthorization_m1568753518
fCc:__ZNSt3__26vectorI16MessageForwarder13stl_allocatorIS1_L18MemLabelIdentifier7ELi8EEE6resizeEj
z5g:_X509Chain_SelectBestFromCollection_m1068759221
C_f:_Blur_DownSample4x_m2572528655
ZHq:_SymmetricTransform_TransformBlock_m851059707
wjd:__Z19UpdateProceduralTplIL27ParticleSystemCurveEvalMode4EEvRK20DualMinMaxPolyCurvesR23ParticleSystemParticlesPfRKN4math7_float4E
w9n:_Regex_System_Runtime_Serialization_ISerializable_GetObjectData_m4061390789
JMp:_Enumerator_System_Collections_IEnumerator_Reset_m2261065994_AdjustorThunk
aEm:_ScrollRect_get_verticalNormalizedPosition_m3693218937
Mjp:_Array_InternalArray__set_Item_TisKeyValuePair_2_t3568047141_m1930870303_gshared
gUe:__ZN5physx31ComputeCreatedDeletedPairsListsEPKjS1_jRPNS_17PxcBroadPhasePairERjS5_S4_S5_S5_RNS_14SapPairManagerE
aMb:__ZN18LoadSceneOperation21MustCompleteNextFrameEv
ACj:_ShipMovement__ctor_m3109872439
F6g:_X509ChainPolicy_set_RevocationMode_m3002768104
BUj:_MonoMethodInfo_get_method_info_m88651774
n9:__ZNK12AudioManager16GetAudioListenerEv
pNl:_ArrayPropertyDescriptor__ctor_m1641880234
dHn:_Int32_System_IConvertible_ToDateTime_m1824716955
lRj:_RuntimeTypeHandle__ctor_m3315980708_AdjustorThunk
j$q:_Canvas_set_overrideSorting_m4088794420
DYm:_GameObject_BroadcastMessage_m217296818
Hqc:__ZNSt3__26vectorI11CameraStackNS_9allocatorIS1_EEE8__appendEj
LAd:__ZNK11Rigidbody2D20GetAttachedCollidersER13dynamic_arrayIP10Collider2DLj4EE
iZe:__ZN5physx2Gu16pcmContactBoxBoxERKNS0_13GeometryUnionES3_RKNS_11PxTransformES6_RKfRNS0_5CacheERNS0_13ContactBufferE
Dhp:_Array_InternalArray__Insert_TisMouseState_t2297408031_m4279298678_gshared
rO:__ZN7mecanim9animation12GetHumanPoseERKNS0_18ClipMuscleConstantEPKNS0_10ValueDeltaERNS_5human9HumanPoseE
hQ:__ZN22AnimationMixerPlayable17ProcessRootMotionEP35AnimationPlayableEvaluationConstantP32AnimationPlayableEvaluationInputP33AnimationPlayableEvaluationOutput
kra:__Z13GetFileSystemv
Qho:_StringBuilder_Append_m1640838743
cGc:__ZZL23RegisterLightPropertiesR22GenericPropertyBindingEN29Wrapper_LightColorTemperature13SetFloatValueEPvf
HBa:__ZNK5Unity4Type21FindAllDerivedClassesER13dynamic_arrayIPKS0_Lj4EENS0_17TypeFilterOptionsE
ACa:__ZN13RuntimeStaticI15GUIEventManagerLb0EE16StaticInitializeEPv
lGb:__ZN14SafeBinaryRead8TransferIfEEvRT_PKc17TransferMetaFlags
BGd:__ZNSt3__27__sort5IR24RayHitsByDepthComparitorP12RaycastHit2DEEjT0_S5_S5_S5_S5_T_
Z5f:_Transform_RotateAroundInternal_m1612579057
vah:_DTDEntityDeclaration__ctor_m807478646
Xam:_Comparer_1__cctor_m2209434164_gshared
bOq:_Version_CompareTo_m3146217210
NDd:__ZN24RigidbodyMovementState2D21ResetAngularMoveStateEv
vFb:__ZThn32_N14SpriteRenderer15AddAsRenderNodeER15RenderNodeQueueRK20DeprecatedSourceData
ngp:_Array_InternalArray__ICollection_CopyTo_TisKeyValuePair_2_t71524366_m1056941380_gshared
C9e:__ZN5physx2Gu5RTree15exportExtraDataERNS_22PxSerializationContextE
Rqk:_XmlDocument_ReadNode_m3847267156
_$c:__Z51Register_UnityEngine_RenderTexture_ReleaseTemporaryv
b5l:_String_ReplaceUnchecked_m1381393810
ega:__ZN11UnityEngine15CloudWebService14DataDispatcher19OnDataBlockConsumedEv
PSb:__ZN19ShaderPropertySheet9SetMatrixEN9ShaderLab16FastPropertyNameERK10Matrix4x4fNS_8SetFlagsE
Zfd:__ZThn32_N16ParticleRendererD1Ev
hwb:__Z29GetTextureSizeAllowedMultiple13TextureFormat
SOe:__ZNK5physx2Sq10AABBPruner7overlapERKNS0_9ShapeDataERNS0_14PrunerCallbackE
Tel:_XmlSchemaAttribute_Read_m3620037629
Kvn:_Decimal_Subtract_m835601464
VJj:_PathBezier_OnDrawGizmos_m1983867349
T4m:_Quaternion_Internal_ToEulerRad_m1503250752
KHc:__ZN21IntermediateRenderers3AddEP20IntermediateRenderer
RVc:__Z46Register_UnityEngine_Gizmos_INTERNAL_set_colorv
R5g:_X509CertificateCollection__ctor_m3178797723
cEe:__ZN5physx6shdfnd5ArrayIPvNS0_19ReflectionAllocatorINS_2Gu30LargePersistentContactManifoldEEEE4copyINS0_15InlineAllocatorILj256ES6_EEEEvRKNS1_IS2_T_EE
Eoh:__ZL62ComVisibleAttribute_t1362837655_CustomAttributesCacheGeneratorP21CustomAttributesCache
rRh:__ZL141HttpWebRequestElement_t2801692355_CustomAttributesCacheGenerator_HttpWebRequestElement_t2801692355____MaximumErrorResponseLength_PropertyInfoP21CustomAttributesCache
C7m:_RectTransform_INTERNAL_set_sizeDelta_m188783163
ph:_glCheckFramebufferStatus
J7j:_RaycasterManager_AddRaycaster_m48608312
jfq:_XmlNode_get_XmlLang_m3915597675
Bpm:_KeyCollection_System_Collections_Generic_ICollectionU3CTKeyU3E_Remove_m1431979175_gshared
iTl:_ConfigurationException_GetObjectData_m3317307704
dja:__ZN19CloudServiceHandler20StartEventDispatcherERKN11UnityEngine15CloudWebService18CloudServiceConfigERNS1_23WebRequestRestHeaderMapE
Lik:_GraphicRaycaster__ctor_m646559428
U4e:__ZN5physx2Cm12DelegateTaskINS_2Sc5SceneEXadL_ZNS3_19updateCCDSinglePassEPNS_10PxBaseTaskEEEE11runInternalEv
Y_d:__ZN5physx6string9sprintf_sEPcjPKcz
wcf:__ZThn8_N5physx19TriangleMeshBuilderD1Ev
BSn:_BitArrayEnumerator_get_Current_m4220391712
rkl:__Z37il2cpp_codegen_get_executing_assemblyPK10MethodInfo
gHi:_HttpWebRequest_GetServicePoint_m2640244283
J5f:_Transform_get_parent_m835071599
aUd:__ZN5physx2Gu16intersectRayAABBERKNS_6PxVec3ES3_S3_S3_RfS4_
kui:__ZL79ScreenSpaceAmbientOcclusion_t1675618705_CustomAttributesCacheGenerator_m_RadiusP21CustomAttributesCache
mIi:_IPAddress_get_ScopeId_m4237202723
PF:__ZN4core8hash_mapIN11UnityEngine9Animation14GenericBindingENS2_10BoundIndexENS2_25GenericBindingHashFunctorENS2_30GenericBindingValueArrayUniqueEE4growEi
EN:__ZN21AnimationClipPlayable7SetTimeEd
e9n:_ExpressionCollection_get_Item_m3510736379
eji:__ZL62FontData_t746620069_CustomAttributesCacheGenerator_m_AlignmentP21CustomAttributesCache
fbk:_StandaloneInputModule_get_inputActionsPerSecond_m3946624274
nNk:_InternalEnumerator_1_get_Current_m784420850_gshared
z7f:_Vector2__cctor_m2108982652
_Yf:_TouchPad_OnPointerUp_m2465142363
PFc:__ZZL23RegisterLightPropertiesR22GenericPropertyBindingEN22Wrapper_LightIntensity13GetFloatValueEPv
OF:__ZN4core8hash_mapIN11UnityEngine9Animation14GenericBindingENS2_10BoundIndexENS2_25GenericBindingHashFunctorENS2_30GenericBindingValueArrayUniqueEE4growEv
oah:_XmlTextReader_GetRemainder_m3291199686
C2e:__ZN5physx30setupFinalizeSolverConstraintsERNS_13PxcNpWorkUnitERKNS_2Gu13ContactBufferERKNS_20PxcCorrelationBufferERKNS_11PxTransformESB_bPhRKNS_13PxcSolverBodyESF_RKNS_17PxcSolverBodyDataESI_ffffff
w$f:_ContrastStretch_Start_m1709897720
hEg:__ZN14dense_hash_mapI10KeyWrapperIP14Il2CppIUnknownEjN6il2cpp5utils11PointerHashIS1_EENS3_14EqualsComparerINSt3__28equal_toIS2_EEEENS9_9allocatorINS9_4pairIKS3_jEEEEE15set_deleted_keyERSF_
Nbj:__Z101RuntimeInvoker_RuntimeObject_RuntimeObject_Vector2_t2156229523_Vector2_t2156229523_Single_t1397266774PFvvEPK10MethodInfoPvPS4_
tzc:__ZN19SpriteMeshGenerator12path_segment12max_distanceENSt3__26vectorINS_6vertexENS1_9allocatorIS3_EEEEii
PGo:_Dictionary_2_ToTKey_m4162850189_gshared
oM:__ZN7mecanim4hand8HandPose8TransferI19StreamedBinaryWriteILb0EEEEvRT_
Rje:__ZN5physx7NpScene17releaseBatchQueryEPNS_12PxBatchQueryE
Stg:__ZN13Il2CppHashMapIPK14Il2CppAssemblyPK22Il2CppMonoAssemblyNameN6il2cpp5utils11PointerHashIS1_EENSt3__28equal_toIS2_EENSA_9allocatorINSA_4pairIK10KeyWrapperIS2_ES5_EEEEEC2EjRKS9_RKSC_
vep:_Array_InternalArray__ICollection_Add_TisKeyValuePair_2_t732183006_m1371406124_gshared
V1e:__ZN5physx26solveVBlockDefaultFrictionEPNS_13PxsSolverCoreEfjjPNS_13PxcSolverBodyEPNS_17PxcSolverBodyDataEjjPNS_25PxcArticulationSolverDescEjPNS_23PxcSolverConstraintDescEjS9_jRNS_6shdfnd5ArrayINS_24PxsConstraintBatchHeaderENSA_19ReflectionAllocatorISC_EEEESG_PNS_2Cm13SpatialVectorEPNS_25PxcThresholdStreamElementEjRj
VDl:_DelegatePInvokeWrapper_AppDomainInitializer_t682969308
O0l:_StrongNameMembershipCondition_Check_m2770731415
nId:__ZN13BoxCollider2D13PrepareShapesER13dynamic_arrayIP7b2ShapeLj4EERK10Matrix4x4f
cJ:__ZN14AnimationEvent8TransferI14SafeBinaryReadEEvRT_
rqa:__ZN8Remapper6RemoveEi
X0f:_PostEffectsHelper_OnRenderImage_m4213444730
bTe:__ZN5physx11writeBack1DERKNS_23PxcSolverConstraintDescERNS_16PxcSolverContextERNS_17PxcSolverBodyDataES6_
tUj:_FromBase64Transform_lookup_m3455552809
XFf:__ZL36CleanupTextRenderingScriptingClassesv
CPd:__ZThn4_N16RayRTreeCallbackILi0ELb0EED0Ev
Zqc:__ZN15ReflectionProbe17UseRendererResultEP13ProbeRenderer
VTl:_TraceImpl_get_IndentSize_m3405794161
u3c:__Z34Mesh_CUSTOM_SetArrayForChannelImplP12Il2CppObject30InternalScriptingShaderChannel34InternalScriptingVertexChannelTypeiP11Il2CppArrayi
ipa:__Z32scripting_class_get_nested_types17ScriptingClassPtrRNSt3__26vectorIS_13stl_allocatorIS_L18MemLabelIdentifier1ELi16EEEE
M$q:_CanvasRenderer_INTERNAL_CALL_EnableRectClipping_m3318097918
Udn:_XmlSchemaElement_Read_m470865371
Vhm:_Enumerator_System_Collections_IEnumerator_get_Current_m361750367_AdjustorThunk
djm:_Enumerator_get_CurrentValue_m3103267885_gshared
NAp:_List_1__ctor_m3395838871_gshared
SCn:_CultureInfo_get_Parent_m672689885
u7k:_MissingMemberException__ctor_m2571045846
SNl:_InstanceDescriptor_Invoke_m2192227030
Swq:_PKCS12__ctor_m1854440921
tWl:_ChunkStream_InternalWrite_m2134936757
Ulp:_Array_Resize_TisCustomAttributeNamedArgument_t287865710_m885566878_gshared
rIk:_List_1_System_Collections_IEnumerable_GetEnumerator_m1562218874_gshared
ZXc:__Z37Quaternion_CUSTOM_INTERNAL_CALL_SlerpRK11QuaternionfS1_fRS_
RZ:__ZN11UnityEngine9Animation28GenericAnimationBindingCache25RegisterIAnimationBindingEPKN5Unity4TypeEiP17IAnimationBinding
bcr:dynCall_iiiiiiiiiii
YNe:__ZN5physx2Gu17GetGeomSweepFuncsEv
O7d:__ZN5physx6shdfnd8PoolBaseINS_15PxsArticulationENS0_16AlignedAllocatorILj64ENS0_9AllocatorEEEE17releaseEmptySlabsEv
I0k:_DirectoryInfo__ctor_m481305441
T9q:dynCall_viiffiii
Qza:__ZN10MemoryPoolC2E10MemLabelIdbPKciii
pJl:_Char_System_IConvertible_ToInt16_m975497224
coq:_Configuration_Load_m2660400096
zpc:__Z40ProcessCameraIndexListIsNodeVisibleInOutRK22SceneCullingParametersPK9SceneNodePK4AABBR9IndexList
uhn:_XmlSchemaReader_get_HasAttributes_m2868298962
sCq:_GUIScrollGroup_SetHorizontal_m291416666
wkb:__ZN16GraphicsSettings8TransferI17RemapPPtrTransferEEvRT_
xKf:__ZN2UI6Canvas13UpdateBatchesEb
s3g:_X509BasicConstraintsExtension_Decode_m120598446
nT:__ZNK23AnimationPlayableOutput11DerivesFromE17ScriptingClassPtr
qfr:_glGetShaderInfoLog__wrapper
edl:_NameTable_Add_m3759494371
Zmh:_XmlTextReader_GetIndexOfQualifiedAttribute_m1413476774
Joe:__ZN5physx2Gu5Debug9visualizeERKNS_13PxBoxGeometryERNS_2Cm12RenderOutputERKNS5_8Matrix34ERKNS_9PxBounds3Eyfj
elk:_XmlSchemaUtil_ReadQNameAttribute_m567024358
tv:__ZN15SerializeTraitsINSt3__26vectorIN22NavMeshProjectSettings15NavMeshAreaDataENS0_9allocatorIS3_EEEEE8TransferI24GenerateTypeTreeTransferEEvRS6_RT_
OPf:__ZN11UnityEngine7Connect13ConfigHandler12GetListenersERKN4core12basic_stringIcNS2_20StringStorageDefaultIcEEEE
ARa:__ZN9GfxDevice18AllocRenderSurfaceEb
aJl:_Char__cctor_m2787437263
I2e:__ZN5physx31setupFinalizeSolverConstraints4EPNS_21PxcSolverContact4DescERNS_18PxcNpThreadContextEPhffRKNS_6shdfnd3aos5Vec4VES9_S9_S9_
qGe:__ZN5physx7NpScene5flushEb
Rzc:__ZN10TagManager32GetSortingLayerUniqueIDFromValueEi
oOf:__ZN11UnityEngine7Connect15DeviceInfoEvent7GFXInfoD2Ev
qck:_AspectRatioFitter_get_rectTransform_m2996235303
hPl:_RootDesignerSerializerAttribute_get_TypeId_m4223121793
Xoa:__ZL27CleanupCoreScriptingClassesv
Kdn:_XmlSchemaElement_ValidateDerivationByRestrictionNameAndTypeOK_m1760371457
yxd:__Z19UpdateSingleRow2TplIL27ParticleSystemCurveEvalMode2ELS0_1EEvfRK11MinMaxCurveS3_RK23ParticleSystemParticlesPfbiii
GOd:__ZN5physx2Gu13GeometryUnion3setERKNS_10PxGeometryE
mjm:_Enumerator_VerifyCurrent_m3071620407_AdjustorThunk
N$n:_Convert_ToInt16_m198393465
qLq:_PathSplinePerformanceCS_Start_m2483576072
Sbm:_Comparer_1_System_Collections_IComparer_Compare_m1313384821_gshared
nYc:__Z26AnimationCurve_CUSTOM_InitP12Il2CppObjectP11Il2CppArray
xYm:_GameObject_set_isStatic_m2301607277
QEd:__ZNK14b2PolygonShape5CloneEP16b2BlockAllocator
Dtg:__ZN6il2cpp2vm10Reflection7IsEventEP12Il2CppObject
Kna:__ZN17PersistentManager26GetStreamNameSpaceInternalEi
u1:__ZN4FMOD6System11createSoundEPKcjP22FMOD_CREATESOUNDEXINFOPPNS_5SoundE
cmh:_XsdValidatingReader_MoveToNextAttribute_m3065806311
rq:FUNCTION_TABLE_iiifiiii
Urf:__ZN13SpeedTreeWind20AdvanceWithoutUpdateEd
_dm:_Enumerator_System_Collections_IDictionaryEnumerator_get_Value_m803887320_gshared
ldn:_XmlSchemaParticle_get_Empty_m1615870170
pzi:_PerformanceCountersElement__cctor_m2254152306
C2n:_DateTime_System_IConvertible_ToDecimal_m1044850612
Pog:__ZN6il2cpp2vm4Type14IsSystemDBNullEPK10Il2CppType
j5g:_X509Store_get_Factory_m3282910266
kkf:__ZThn128_N5physx7profile8ZoneImplINS_28PxProfileNameProviderForwardEED1Ev
tAa:__ZN9ShaderLab19CommonPropertyNames13StaticCleanupEPv
Lpa:__Z31scripting_method_get_returntype18ScriptingMethodPtr
mPe:__ZN5physx2Sq17AABBTreeUpdateMap10invalidateEjjRNS0_8AABBTreeE
Kio:_UTF32Encoding_GetByteCount_m3610769032
Cxb:__ZN15SerializeTraitsI12LightmapDataE8TransferI24GenerateTypeTreeTransferEEvRS0_RT_
tZl:_SecurityElement_AddAttribute_m311510562
yLq:_PathSplines_OnDrawGizmos_m4204225453
X1e:__ZN5physx28solveParallelDefaultFrictionERNS_18PxsDynamicsContextEjjPNS_13PxcSolverBodyEPNS_17PxcSolverBodyDataEjjPNS_25PxcArticulationSolverDescEjPNS_23PxcSolverConstraintDescEjS9_jPiSA_SA_SA_SA_SA_PNS_25PxcThresholdStreamElementEjSA_PNS_2Cm13SpatialVectorEPKPNS_11PxsBodyCoreERNSD_10BitMapBaseINS_6shdfnd9AllocatorEEEPKPNS_15PxsArticulationEjPViRNSL_5ArrayINS_24PxsConstraintBatchHeaderENSL_19ReflectionAllocatorISW_EEEES10_RNSV_IjNSX_IjEEEES13_PPNS_12PxsRigidBodyEj
wfr:_glStencilOpSeparate__wrapper
ULc:__ZN4Mesh5SetUvEiPKfjj
Dyb:__ZN7Texture13SetAnisoLimitENS_20AnisotropicFilteringE
mba:__ZN11AudioModule16SetListenerPauseEb
nj:_emscripten_glCompressedTexSubImage2D
k2a:__ZN13GfxDeviceGLES22MemoryBarrierImmediateEyN2gl17MemoryBarrierTypeE
qn:_abort
S$a:__ZN6prcoreL26RemapGenericFloatToIntegerI18TexFormatARGBFloat17TexFormatARGB8888EEvPKNS_9InnerInfoE
uLp:_List_1_set_Capacity_m1977188119_gshared
WOg:__ZN6il2cpp6icalls8mscorlib6System10Reflection9MonoField16GetValueInternalEP21Il2CppReflectionFieldP12Il2CppObject
HQc:__Z46GetShaderModelNumericValueFromRequirementsMask18ShaderRequirements
Vio:_UTF7Encoding_InternalGetBytes_m797138468
Gvf:_cff_ps_has_glyph_names
Bcf:__ZN5physx15writeWordBufferEPKtjbRNS_14PxOutputStreamE
w0q:_Animation_Play_m2798573761
mtp:_Dictionary_2_Resize_m3287623642_gshared
PRg:_GC_write
Aaj:__Z68RuntimeInvoker_Void_t1185182177_Single_t1397266774_SByte_t1669577662PFvvEPK10MethodInfoPvPS4_
s_:__ZN13ProduceHelperI9AnimationLb0EE7ProduceE10MemLabelId18ObjectCreationMode
jtq:_ExeConfigurationHost_GetStreamName_m4044340703
sSq:__ZL24UnresolvedVirtualCall_43P12Il2CppObjectS0_PK10MethodInfo
Vop:_Dictionary_2_Remove_m4193450060_gshared
Jyc:__Z13tessTesselateP14TESStesselatoriiiiPKf
nsq:_ProtectedConfiguration_get_Section_m3576952161
w9k:_MulticastDelegate_GetObjectData_m3957553424
HIn:_Int64_TryParse_m3606398488
t0j:_RemotingServices_IsTransparentProxy_m1535738947
rkp:_Array_InternalArray__set_Item_TisMark_t3471605523_m1299772331_gshared
U7c:__Z44Register_UnityEngine_GUIStyle_SetDefaultFontv
Zyc:__ZN19SpriteMeshGenerator9MakeShapeEP11ColorRGBA32iifhbjfi
s1b:__Z18Transfer_BlittableI18StreamedBinaryReadILb1EELb1EiEvRK29SerializationCommandArgumentsR31RuntimeSerializationCommandInfo
QU:__ZN9BlobWrite8TransferI22OffsetPtrArrayTransferIKN4math7_float3EEEEvRT_PKc17TransferMetaFlags
GEb:__ZN16MeshSkinningData14GetBoneWeightsEi
yQi:__Z173RuntimeInvoker_Int32_t2950945753_RuntimeObject_Int32_t2950945753_Int32_t2950945753_Int32_t2950945753_RuntimeObject_Int32_t2950945753_SByte_t1669577662_ContextU26_t3937453398PFvvEPK10MethodInfoPvPS4_
JDp:_List_1__ctor_m2576108087_gshared
rsg:__ZN15dense_hashtableINSt3__24pairIK10KeyWrapperINS1_IPK12PropertyInfoP11Il2CppClassEEEjEES9_17ReflectionMapHashIS8_EN14dense_hash_mapIS9_jSD_NS9_14EqualsComparerINS0_8equal_toIS8_EEEENS0_9allocatorISB_EEE9SelectKeyESI_SK_E12maybe_shrinkEv
B5d:__ZN5physx2Sc7BodySim37checkSleepReadinessBesidesWakeCounterEv
Qro:_Transform_1_Invoke_m3966104754_gshared
T1b:__Z18Transfer_BlittableI18StreamedBinaryReadILb1EELb1EsEvRK29SerializationCommandArgumentsR31RuntimeSerializationCommandInfo
JJk:_Action_2_BeginInvoke_m2316533175_gshared
p3q:_NavMeshAgent_set_updateRotation_m333199218
Hho:_StringBuilder_Remove_m940064945
U_k:_BinaryWriter__ctor_m2439641268
sxd:__Z19UpdateSingleRow2TplIL27ParticleSystemCurveEvalMode1ELS0_2EEvfRK11MinMaxCurveS3_RK23ParticleSystemParticlesPfbiii
z0j:_Context_NotifyDynamicSinks_m1841702879
Hyb:__ZL21SetAnisoLimitEnumImplN7Texture20AnisotropicFilteringEb
$Nf:__ZN22BaseUnityConnectClient17OnEnterStateReadyEv
Kwl:_MonoField_get_DeclaringType_m2066594735
ADe:__ZN5physx2Sc10NPhaseCore24createTriggerInteractionERNS0_8ShapeSimES3_NS_7PxFlagsINS_10PxPairFlag4EnumEtEE
ZGm:_Text_get_fontSize_m1677872538
APh:__ZL59XmlRootAttribute_t2306097217_CustomAttributesCacheGeneratorP21CustomAttributesCache
WIk:_List_1_IndexOf_m1324040614_gshared
UDk:_SslStreamBase_get_KeyExchangeStrength_m217695965
Hib:__ZN14GrowableBufferD2Ev
cXc:__Z29Input_CUSTOM_GetMouseButtonUpi
FQd:__ZN5physx2Gu12selectNormalEhff
lmg:__ZN6il2cpp6icalls8mscorlib6System8MonoType16InternalGetEventEP20Il2CppReflectionTypeP12Il2CppStringi
aBj:_Platform_Death_m1484662624
SKi:_Socket_EndSend_m1244041542
Rel:_XmlSchemaComplexType_Read_m2926646157
yxf:_UNITY_tt_face_load_maxp
tXc:__Z46Input_CUSTOM_INTERNAL_set_compositionCursorPosRK13Vector2fIcall
xN:__ZN7mecanim5human12FullBodyMaskEv
Pwe:__ZN5physx3Scb14ParticleSystem16releaseParticlesEjRKNS_16PxStrideIteratorIKjEE
shq:_XmlNodeReaderImpl_MoveToFirstAttribute_m4082259561
HRg:__ZN6il2cpp6icalls8mscorlib6System9Threading10WaitHandle16WaitAny_internalEP11Il2CppArrayib
nLn:_BigInteger_ToString_m3475000413
yUc:__Z36ComputeBuffer_CUSTOM_InternalSetDataP12Il2CppObjectP11Il2CppArrayiiii
_Fb:__ZN19ShaderPropertySheet11ComputeHashEv
Lfg:__ZN30dense_hashtable_const_iteratorI10KeyWrapperIPK19Il2CppGenericMethodES4_N6il2cpp8metadata23Il2CppGenericMethodHashEN14dense_hash_setIS4_S7_NS4_14EqualsComparerINS6_26Il2CppGenericMethodCompareEEENSt3__29allocatorIS4_EEE8IdentityESB_SE_EppEv
zJe:__ZN5physx2Sc5Scene21processLostTouchPairsEv
vFd:__ZN12b2EPCollider24ComputePolygonSeparationEv
L$l:_PermissionRequestEvidence_ToString_m1564439905
p0p:_ReadOnlyCollection_1_System_Collections_ICollection_CopyTo_m95132623_gshared
Aha:__ZN11UnityEngine15CloudWebService20WebRequestRestClient6IsDoneEv
kk:_llvm_fabs_f32
dha:__ZN11UnityEngine15CloudWebService16SessionContainer16GetJsonDataBlockEjRKN4core12basic_stringIcNS2_20StringStorageDefaultIcEEEERS6_PjSA_
aVl:_DeflateStream_ReadZStream_m3405013189
kKf:__ZN2UI6Canvas17EmitWorldGeometryEP6CameraRtb
Avj:_ExtVector3_GetLoc_RandomInCircle_UpX_m1976086698
EMn:_ASN1_Decode_m1695284166
rJ:__ZN7mecanim9animation18ClipMuscleConstant8TransferI14SafeBinaryReadEEvRT_
QXe:__ZN5physx22PxcContactConvexConvexERKNS_2Gu13GeometryUnionES3_RKNS_11PxTransformES6_RKfRNS_10PxcNpCacheERNS0_13ContactBufferE
Nzn:_Enum_ToString_m3248653065
XPd:__ZNK5physx2Gu11ConvexHullV12HillClimbingERKNS_6shdfnd3aos5Vec3VE
yDj:_Trigger_InArea__ctor_m2668055374
_na:__ZN14SafeBinaryReadD2Ev
Cpp:_Dictionary_2_InitArrays_m3466495448_gshared
Dwe:__ZN5physx2Sc18ParticleSystemCore10setDampingEf
rBc:__Z13RegisterClassI7TextureEvv
dSo:_Enumerator_MoveNext_m3859993671_gshared
qap:_LeanTween_move_m2682994019
h3b:__ZN8Gradient8TransferI18StreamedBinaryReadILb1EEEEvRT_
m7g:_Capture__ctor_m3103117740
jTm:_Camera_set_cullingMask_m1402455777
FAb:__ZN4core8hash_mapINS_12basic_stringIcNS_20StringStorageDefaultIcEEEE13dynamic_arrayI4PPtrI6SpriteELj4EENS_4hashIS4_EENSt3__28equal_toIS4_EEEixERKS4_
wPi:__Z113RuntimeInvoker_Void_t1185182177_RuntimeObject_Int64_t3736567304_RuntimeObject_Int64_t3736567304_Int64_t3736567304PFvvEPK10MethodInfoPvPS4_
mKk:_U3CGetEnumeratorU3Ec__Iterator0_Reset_m1192421843_gshared
l2d:__ZN5physx2Sc10NPhaseCore16deleteFilterPairEPNS0_10FilterPairE
jtd:__ZN14ParticleSystem15ThreadedCleanupEv
Tbg:__ZN6il2cpp2vmL17SetupEventsLockedEP11Il2CppClassRKNS_2os12FastAutoLockE
DDg:__ZN6il2cpp6icalls8mscorlib6System4Type15MakeGenericTypeEP20Il2CppReflectionTypeP11Il2CppArray
xYq:_CapsuleCollider_get_center_m1504830057
Plf:_PxCreateBasePhysics
nan:_Shader__ctor_m837260462
Mk:_SDL_PauseAudio
nbr:dynCall_vf
a3m:_Object_Internal_InstantiateSingle_m4074556765
Dwg:_il2cpp_class_from_type
DJi:_SslStream_Read_m576235997
fng:__ZN6il2cpp2os4File11GetStdErrorEv
MTc:__Z48Register_UnityEngine_Camera_set_orthographicSizev
N0q:_AnimationLayerMixerPlayable__ctor_m860721801
l6d:__ZN5physx2Sc5Scene28addActiveBreakableConstraintEPNS0_13ConstraintSimE
sAa:__ZN9ShaderLab19CommonPropertyNames16StaticInitializeEPv
jle:__ZN5physx6shdfnd8PoolBaseINS_16NpParticleSystemENS0_19ReflectionAllocatorIS2_EEE15disposeElementsEv
EYn:_ConsoleDriver_CreateNullConsoleDriver_m3992528564
VW:__ZN7mecanim9animation18CreateAvatarOutputEPKNS0_14AvatarConstantEbbRNS_6memory9AllocatorE
u8o:_LeanTween_descriptions_m2013440628
Gkf:__ZN5physx7profile11EventBufferINS_24PxDefaultContextProviderENS_6shdfnd6MutexTINS0_26WrapperReflectionAllocatorIhEEEENS0_14ScopedLockImplIS7_EENS_24PxProfileNullEventFilterEE10eventValueEtyx
mBk:_TlsServerCertificateRequest_Update_m2763887540
pmd:__Z14UpdateSpeedTplIL27ParticleSystemCurveEvalMode1EEvRK11MinMaxCurveR23ParticleSystemParticlesjj
VKq:_MazeGenerator__ctor_m731914534
f9:__ZN11AudioSource23VirtualRedirectTransferER24GenerateTypeTreeTransfer
jLc:__ZN7Texture11SetWrapModeE15TextureWrapMode
Jgn:_XmlSchemaObjectTable_Clear_m8811103
K3f:_TimedObjectActivator_ReloadLevel_m3297458802
aBb:__ZN14Texture2DArray23VirtualRedirectTransferER14SafeBinaryRead
x7k:_MissingMemberException__ctor_m1220732369
Hkc:__ZNK6Camera21CalculateCanDoShadowsEv
_He:__ZNK5physx2Sc5Scene17getBroadPhaseCapsERNS_16PxBroadPhaseCapsE
Zhe:__ZN5physx9NpFactory14onActorReleaseEPNS_7PxActorE
bGi:_Socket_Connect_m2387904622
HLg:__ZN6il2cpp2os6Thread12SetStackSizeEj
n8d:__ZN5physx2Sc5Actor15onElementAttachERNS0_7ElementE
g1f:_ScreenSpaceAmbientObscurance_OnDisable_m600126550
HAm:_MaskableGraphic_RecalculateMasking_m183336762
$2o:_Array_InternalArray__get_Item_TisRuntimeObject_m3347010206_gshared
Gul:_TypeBuilder_IsSubclassOf_m3458909121
aLc:__ZNK8Renderer16IsVisibleInSceneEv
yll:_Default_check_arguments_with_score_m3467814020
yna:__Z13VFormatBufferPciPKcz
owe:__ZN5physx2Sc18ParticleSystemCore23setSimulationFilterDataERKNS_12PxFilterDataE
n4b:__Z18Transfer_BlittableI18StreamedBinaryReadILb0EELb1EhEvRK29SerializationCommandArgumentsR31RuntimeSerializationCommandInfo
ZAl:_X509Certificate__cctor_m198658613
qDi:_FileWebRequest_EndGetResponse_m1700023619
Q_f:_PostEffectsBase_CheckSupport_m533724629
Wfh:_XsdDecimal_ParseValueType_m3908252346
W$a:__ZN6prcoreL27StretchGenericFloatBilinearI15TexFormatRFloatEEvPKNS_9InnerInfoE
Lsm:_Transform_1_Invoke_m99322058_gshared
gOe:__ZN5physx6shdfnd8internal8HashBaseINS0_4PairIKNS_2Sq13PrunerPayloadEjEES5_NS0_4HashIS5_EENS1_11HashMapBaseIS5_jS9_NS0_9AllocatorEE6GetKeyESB_Lb1EE15reserveInternalEj
Lzi:_ServicePointManagerElement__cctor_m1034988251
ISh:__ZL139ServicePointManager_t170559685_CustomAttributesCacheGenerator_ServicePointManager_t170559685____CheckCertificateRevocationList_PropertyInfoP21CustomAttributesCache
L7g:_CILCompiler_GetMethod_m255348883
aap:_LeanTween_value_m1980052
bAn:_Enum_ToObject_m1628250250
kQ:__Z24ProcessAnimationMixBeginP35AnimationPlayableEvaluationConstantP32AnimationPlayableEvaluationInputP33AnimationPlayableEvaluationOutput
Dnq:_ConfigurationFileMap__ctor_m3234844461
S$k:_StreamWriter_LowLevelWrite_m1081676583
Pnh:_XmlTextReader_ReadComment_m951405007
ZYa:__Z14PadImageBorderR14ImageReferenceii
Tqg:__ZN15dense_hashtableINSt3__24pairIK10KeyWrapperINS1_IPK10MethodInfoP11Il2CppClassEEEjEES9_17ReflectionMapHashIS8_EN14dense_hash_mapIS9_jSD_NS9_14EqualsComparerINS0_8equal_toIS8_EEEENS0_9allocatorISB_EEE9SelectKeyESI_SK_E4findERSA_
Vig:__ZN6il2cpp2vm13MetadataCache28GetFieldDefaultValueForFieldEPK9FieldInfo
XOm:_Array_IndexOf_TisUIVertex_t4057497605_m3336763564_gshared
OQ:__ZN27AnimationLayerMixerPlayableD2Ev
uek:_ColorBlock_Equals_m518833916_AdjustorThunk
TRe:__ZN5physx2Gu22gjkRelativePenetrationINS0_9TriangleVENS0_8CapsuleVEEEjRKT_RKT0_RKNS_6shdfnd3aos15PsMatTransformVERKNSB_6FloatVERNSB_5Vec3VESJ_SJ_RSF_PhSL_Rh
wpj:__Z102RuntimeInvoker_RuntimeObject_RaycastHit_t1056001966_RaycastHit_t1056001966_RuntimeObject_RuntimeObjectPFvvEPK10MethodInfoPvPS4_
nhh:_XsdHexBinary_ParseValue_m909559397
Vdf:__ZN9Rigidbody14SetIsKinematicEb
MRk:_InternalEnumerator_1_System_Collections_IEnumerator_get_Current_m1514266661_AdjustorThunk
B3:__ZN12AudioManager39HandlePendingAudioConfigurationCallbackEv
d8o:_LeanTween_removeTween_m2291521159
ohh:_XsdHexBinary_Length_m3048881351
Ll:_emscripten_glIsFramebuffer
GPn:_RSAManaged_EncryptValue_m799827583
esa:__ZN12_GLOBAL__N_16qAtan2Eff
Wof:__Z13RegisterClassI9RigidbodyEvv
Pl:_JS_Sound_SetLoopPoints
eDa:__ZN15dense_hashtableINSt3__24pairIKyP17VertexDeclarationEEy14GfxGenericHashIyEN14GfxDoubleCacheIyS4_S7_NS0_8equal_toIyEEN31GfxDoubleCacheConcurrencyPolicy11LocklessGetE42GfxDoubleCacheDefaultEmptyDeletedGeneratorIyEE9SelectKeyESA_13stl_allocatorIS5_L18MemLabelIdentifier24ELi16EEE14squash_deletedEv
taa:__ZN12AudioManager17ShouldSourcePauseEb
CWg:__ZN6il2cpp2vm26MetadataAllocGenericMethodEv
OKm:_Array_InternalArray__ICollection_Remove_TisUInt16_t2177724958_m1766181761_gshared
X5a:__ZN19ConstantBuffersGLES12RecordRenderEv
KNe:__ZN5physx13ActorAABBTaskD2Ev
xbd:__ZN9JSONWrite8TransferI10RectOffsetEEvRT_PKc17TransferMetaFlags
EYa:__ZN4crnd12symbol_codec11decode_bitsEj
RFd:__ZN15b2CircleContact8EvaluateEP10b2ManifoldRK11b2TransformS4_
lgd:__ZN16ParticleRenderer16GenerateUVFramesEv
QGn:__Z37il2cpp_codegen_check_mul_overflow_i64xxxx
Onb:__ZN10Matrix3x4f8TransferI24GenerateTypeTreeTransferEEvRT_
wBc:__Z13RegisterClassI15QualitySettingsEvv
F3:__ZN4FMOD6System12createReverbEPPNS_6ReverbE
oOo:_Enumerator_System_Collections_IEnumerator_get_Current_m4162459881_gshared
sUi:__Z77RuntimeInvoker_ConsoleKeyInfo_t1802691652_Int32_t2950945753_SByte_t1669577662PFvvEPK10MethodInfoPvPS4_
Cxh:__ZL48Queue_t3637523393_CustomAttributesCacheGeneratorP21CustomAttributesCache
FQ:__ZN7mecanim19ValueArrayBlendNodeILb1EEEvRKNS_10ValueArrayERKNS_14ValueArrayMaskERS1_RS4_RNS_16ValueArrayWeightEf
hOb:__Z16MarkDependenciesR27GarbageCollectorThreadStatej
P_:__Z13RegisterClassI6AvatarEvv
xWj:_TypeDelegator_GetEvent_m3148520673
b$j:_RemotingServices_DisposeIdentity_m2605848806
hUc:__Z36Register_UnityEngine_Camera_CopyFromv
uzd:__ZNSt3__211__sift_downIRNS_4lessI23TransformAccessReadOnlyEEPS2_EEvT0_S6_T_NS_15iterator_traitsIS6_E15difference_typeES6_
ISm:_Bounds_set_size_m4127623202
eFn:_GuidParser_Reset_m2640004655
MWp:_Collection_1_IsFixedSize_m2612508295_gshared
zlb:__ZN23SharedMeshRenderingData18UnloadVertexStreamEi
RZd:__ZN5physx3Cct13HandleManager3AddEPv
tMc:__ZN17MemoryCacheWriterD2Ev
JHc:__ZN31CanvasBatchIntermediateRenderer11AddSubBatchERK16DrawBuffersRangePK19ShaderPropertySheet
iGc:__ZN19RenderEventsContextC2Ei
jfa:__Z6simd4fRKf
oRj:_RuntimeTypeHandle_GetObjectData_m1599302095_AdjustorThunk
rm:_emscripten_glEnable
MIg:__ZN6il2cpp2gc16GarbageCollector29RegisterFinalizerForNewObjectEP12Il2CppObject
Dyd:__ZNK14ParticleSystem16GetParticleCountEv
Bgb:__ZN10TagManager23VirtualRedirectTransferER14SafeBinaryRead
Iki:__ZL51RawImage_t3182918964_CustomAttributesCacheGeneratorP21CustomAttributesCache
$6e:__ZNK5physx2Sc15ClothFabricCore9getNbSetsEv
iNn:_AuthenticodeBase_GetHash_m1654455787
TBi:_CookieCollection_GetEnumerator_m1309307657
O0d:__ZThn12_N5physx3Ext5JointINS_15PxDistanceJointENS_30PxDistanceJointGeneratedValuesEE15getSerializableEv
cbn:_SystemInfo_get_supports3DTextures_m3262866358
qnc:__Z15InitLightMeshesv
mwl:_MonoCMethod_ToString_m3992577062
fHe:__ZNK5physx7NpScene26getNbContactDataBlocksUsedEv
Dp:FUNCTION_TABLE_iifiii
_mp:_Dictionary_2_Resize_m3318342354_gshared
BVd:__ZN5physx2Gu29computeCapsule_HeightFieldMTDERKNS_21PxHeightFieldGeometryERKNS_11PxTransformERNS0_8CapsuleVEffbjRNS_10PxSweepHitE
ENp:_Stack_1_Push_m1669856732_gshared
s8e:__ZN5physx2Gu11HeightField15exportExtraDataERNS_22PxSerializationContextE
yyb:__ZN15QualitySettings8TransferI19StreamedBinaryWriteILb0EEEEvRT_
aBn:_Exception__ctor_m1406832249
Qzm:_LayoutUtility_U3CGetFlexibleHeightU3Em__7_m2991026842
ctf:_cf2_arrstack_init
k3o:_Array_InternalArray__get_Item_TisResourceCacheItem_t51292791_m1306056717_gshared
vgp:_Array_InternalArray__ICollection_CopyTo_TisSlot_t384495010_m793189633_gshared
Ylh:_XsdValidatingReader_MoveToAttribute_m3532443150
ola:__Z15CleanLogHandler7LogTypePKcz
Kal:_NumberFormatter_NumberToString_m2481532188
cEk:_SslStreamBase_EndRead_m495357226
tMa:__ZN9ShaderLab19SerializedSubShader8TransferI19StreamedBinaryWriteILb0EEEEvRT_
kne:__ZN5physx10NpMaterialC2ERKNS_2Sc12MaterialCoreE
dEm:_ScrollRect_InternalGetBounds_m599803667
L_e:__ZN5physx9PxTaskMgr10resolveRowEjb
n_q:_Rigidbody_set_angularVelocity_m4254006699
Beo:_Uri_GetInt_m3269354035
F7b:__ZN6Camera17RemoveImageFilterERK11ImageFilter
_Na:__ZNSt3__218__insertion_sort_3IR25ValueParameterArraySorterPN20GpuProgramParameters14ValueParameterEEEvT0_S6_T_
nJd:__ZN10ClipperLib7Clipper27ProcessEdgesAtTopOfScanbeamEx
Ajd:__ZN14EmissionModule15AccumulateBurstER27ParticleSystemEmissionStateRK11MinMaxCurvef
yTn:_Comparer__cctor_m3311686689
htd:__ZN11ShapeModule17MainThreadCleanupEv
Rsd:__ZN9SubModule5ResetEv
ww:__ZN12NavMeshAgent13SetBaseOffsetEf
h0m:_Material_SetBuffer_m1722300056
oB:__ZN12NavMeshQuery20UpdateSlicedFindPathEiPi
Uim:_Enumerator_VerifyState_m1203790900_gshared
NK:__ZN17AnimationCurveTplI11QuaternionfE8TransferI14SafeBinaryReadEEvRT_
toq:_Configuration_GetParentWithFile_m3689386240
WSk:_InternalEnumerator_1_get_Current_m3500427238_AdjustorThunk
dLf:__ZN2UI26InitializeDeviceForOverlayEi
v6e:__ZNK5physx13NpClothFabric13getRestvaluesEPfj
tza:__Z27LogRepeatingStringWithFlagsRKN4core12basic_stringIcNS_20StringStorageDefaultIcEEEE15LogMessageFlagsi
SSd:__ZN5physx2Gu16_gjkLocalRayCastINS0_9TriangleVENS0_11ConvexHullVEEEbRT_RT0_RKNS_6shdfnd3aos6FloatVERKNS9_5Vec3VESF_RSA_RSD_SH_f
Vko:_Thread__cctor_m817723615
sQq:_AudioExtensionManager_RegisterBuiltinDefinitions_m2742744104
YN:__ZN17AnimationPlayable28ComputeNeedsBindingRebuildedEv
dN:__ZN17AnimationPlayable23RequestAllocateBindingsEv
w6d:__ZN5physx6shdfnd8PoolBaseINS_2Cm5BlockIPvLj32EEENS0_19ReflectionAllocatorIS5_EEE17releaseEmptySlabsEv
bYm:_RenderPipelineManager_set_currentPipeline_m3492857006
YTe:__ZN5physx23PxsBroadPhaseContextSap21batchUpdateFewUpdatesEjRPNS_17PxcBroadPhasePairERjS4_
Cfo:_DecoderReplacementFallbackBuffer_Fallback_m1261056214
gWd:__ZN5physx3Cct17getSceneTimestampEPKNS0_30InternalCBData_FindTouchedGeomE
ill:_Binder_get_DefaultBinder_m950908649
Qap:_LTBezierPath_gizmoDraw_m3656982411
GQf:__ZN18UnityConnectClient33OnPlayerSessionStateChangedStaticEPS_jyy
xbm:_Comparer_1__cctor_m298632577_gshared
qkn:_RSA_ToXmlString_m2922661427
fci:__ZL75g_UnityEngine_ParticlesLegacyModule_Assembly_CustomAttributesCacheGeneratorP21CustomAttributesCache
zBj:_Player_FireOnClick_fpsControlled_AteAwake_m1106735674
kia:__ZNK11UnityEngine15CloudWebService23WebRequestUploadHandler11GetProgressEv
Dzl:_Uri_get_LocalPath_m3693494488
EVa:__ZN7ApiGLES4LoadE16GfxDeviceLevelGL
Pxb:__ZN18StreamedBinaryReadILb0EE21TransferSTLStyleArrayI13dynamic_arrayI31EnlightenSystemAtlasInformationLj8EEEEvRT_17TransferMetaFlags
huk:_ASN1_Add_m2431139999
tme:__ZN5physx9NpPhysics15createAggregateEjb
yYa:__ZN4crnd12crn_unpacker22decode_color_endpointsEv
cu:__ZL19ProjectToPolyDetailPK11NavMeshTilePK11NavMeshPolyRK8Vector3fPf
$Gg:__ZN15dense_hashtableI10KeyWrapperIP18Il2CppGenericClassES3_N6il2cpp8metadata22Il2CppGenericClassHashEN14dense_hash_setIS3_S6_NS3_14EqualsComparerINS5_25Il2CppGenericClassCompareEEENSt3__29allocatorIS3_EEE8IdentityESA_SD_E15insert_noresizeERKS3_
Iao:_RxInterpreter_GetLastDefined_m1892187359
BEc:__ZZL31RegisterOtherRendererPropertiesR22GenericPropertyBindingEN30Wrapper_RendererReceiveShadows13GetFloatValueEPv
zhf:__ZN9Rigidbody5ResetEv
QKm:_Array_InternalArray__ICollection_Remove_TisUInt64_t4134040092_m2664745791_gshared
gwb:__ZN17SharedTextureDataC2E10MemLabelIdii13TextureFormatjiibb
Vaj:__Z114RuntimeInvoker_RuntimeObject_RuntimeObject_Int32_t2950945753_Int32_t2950945753_Int32_t2950945753_Int32_t2950945753PFvvEPK10MethodInfoPvPS4_
Mac:__ZN8Material11SetPassFastEPN9ShaderLab4PassER17ShaderPassContextP6Shaderib
f3c:__Z31Renderer_Set_Custom_PropEnabledP12Il2CppObjectb
s2c:__Z25GL_CUSTOM_ClearWithSkyboxbP12Il2CppObject
EQf:__ZN11UnityEngine7Connect20BasePersistentValues10SaveValuesER9JSONWrite
LBj:_PlayerGameObject_AteAwake_m1156621738
E2n:_DateTime_System_IConvertible_ToDouble_m2116720007
uWm:_Display_GetSystemExtImpl_m2808197389
Qjh:_XsdString_get_AllowedFacets_m1282858144
wsd:__ZN11ShapeModule18MultiModeParameterIN25IParticleSystemProperties8PropertyIfNS1_5ClampILi0ELi360EEEEEE8TransferI19StreamedBinaryWriteILb0EEEEvRT_
UGb:__ZN14SafeBinaryRead21TransferSTLStyleArrayINSt3__26vectorI17SubstanceEnumItemNS1_9allocatorIS3_EEEEEEvRT_17TransferMetaFlags
xKk:_ArrayReadOnlyList_1_GetEnumerator_m1835926958_gshared
C_e:__ZN5physx9PxTaskMgr12addReferenceEj
AGd:__ZNSt3__27__sort4IR24RayHitsByDepthComparitorP12RaycastHit2DEEjT0_S5_S5_S5_T_
DNc:__Z14ScaleCurveTimeR17AnimationCurveTplIfEf
GCa:__ZN22VirtualJoystickManagerC2Ev
gCa:__ZN20GlobalCachingManager7DisposeEv
Fhc:__Z12SetupLODFadeR9GfxDeviceR17ShaderPassContextf
_tb:__ZNK14PlayableOutput7GetTypeEv
BEd:__ZN26b2PolygonAndCapsuleContact6CreateEP9b2FixtureiS1_iP16b2BlockAllocator
Uy:__ZNSt3__27__sort4IR17DetailNodeZSorterP16DetailMeshBVNodeEEjT0_S5_S5_S5_T_
kNq:_UIntPtr_System_Runtime_Serialization_ISerializable_GetObjectData_m1767630151_AdjustorThunk
dnc:__ZL24CollectForwardObjectsJobP27CollectForwardObjectsHeader
xKp:_List_1_get_Item_m1378751541_gshared
_oc:__Z13IsNodeVisibleRK9SceneNodeRK4AABBRK22SceneCullingParameters
aKn:_SortKeyBuffer_AppendCJKExtension_m2591091991
y$f:_ContrastStretch_OnDisable_m3333872094
gzd:__ZN11ShapeModuleC2E10MemLabelId
njo:_UTF8Encoding_GetByteCount_m4153686982
arf:__Z52Register_UnityEngine_Rigidbody_INTERNAL_get_positionv
dbm:_Comparer_1__cctor_m1333080997_gshared
_pc:__Z24ScheduleCullingAllGroupsR8JobFenceRK22SceneCullingParametersiRK13CullingOutputRK13dynamic_arrayIP12CullingGroupLj4EERKS_
cMq:_TestingPunch_U3CtweenStaticallyU3Em__3_m3552757348
ylr:_emscripten_glStencilMask__wrapper
iOi:__Z49RuntimeInvoker_Void_t1185182177_Double_t594665363PFvvEPK10MethodInfoPvPS4_
Bfg:__ZN15dense_hashtableI10KeyWrapperIPK19Il2CppGenericMethodES4_N6il2cpp8metadata23Il2CppGenericMethodHashEN14dense_hash_setIS4_S7_NS4_14EqualsComparerINS6_26Il2CppGenericMethodCompareEEENSt3__29allocatorIS4_EEE8IdentityESB_SE_EC2ERKSH_j
bhg:__ZN15dense_hashtableINSt3__24pairIK10KeyWrapperIN6il2cpp5utils13dynamic_arrayIPK10Il2CppTypeLj4EEEEPFvvEEESA_NS3_8metadata19Il2CppSignatureHashEN14dense_hash_mapISA_SD_SG_NSA_14EqualsComparerINSF_22Il2CppSignatureCompareEEENS0_9allocatorISE_EEE9SelectKeyESK_SM_EC2EjRKSG_RKSK_RKSO_
Bib:__ZN15RenderNodeQueue7CleanupEv
W3h:__ZL66RuntimePlatform_t4159857903_CustomAttributesCacheGenerator_XBOX360P21CustomAttributesCache
xxa:__ZN14LineParameters8TransferI24GenerateTypeTreeTransferEEvRT_
i$d:__ZN16NovodexAllocator8allocateEjPKcS1_i
Rsb:__ZN39DeprecatedFastPropertyNameSerialization8TransferI14SafeBinaryReadEEvRT_
exq:_DeriveBytes_DeriveIV_m973925711
oHn:_Int32_System_IConvertible_ToSByte_m3133688512
Ozl:_Uri_GetSchemeDelimiter_m2222641454
rGq:_IndexedSet_1__ctor_m2250384602_gshared
PPq:_AudioClip__ctor_m1211547677
Q$f:_DepthOfFieldDeprecated_OnDisable_m1721489263
anc:__ZN9ShaderLab10GrabPassesD2Ev
mEm:_ScrollRect_CalculateOffset_m927043599
lBb:__ZN14Texture2DArray13UploadTextureEv
rAm:_MaskableGraphic_UpdateCull_m2805101913
uxc:__ZZL31RegisterTrailRendererPropertiesR22GenericPropertyBindingEN36Wrapper_TrailRendererWidthMultiplier13GetFloatValueEPv
fyf:_tt_cmap14_done
dMb:__ZN18AwakeFromLoadQueue25RegisterObjectInstanceIDsEv
Prn:_SNIP_IsSubsetOf_m157520153
bmo:_Scheduler_ShrinkIfNeeded_m820085397
TQ:__ZNK27AnimationLayerMixerPlayable11DerivesFromE17ScriptingClassPtr
rEf:__ZN20TextRenderingPrivate19NativeTextGenerator15InsertCharacterEiPj
SHe:__ZN5physx2Sc5Scene22removeBroadPhaseRegionEj
h_d:__ZN5physx2Cm12RenderBuffer5clearEv
Dgm:_Enumerator_get_CurrentValue_m3438280969_gshared
z8m:_RenderTexture_Internal_SetWidth_m1838533947
Ete:__ZNK5physx2Sc9ClothCore21getStiffnessFrequencyEv
Rrk:_XmlEntityReference_get_Entity_m1498839901
zBd:__ZN11b2RopeJoint24SolveVelocityConstraintsERK12b2SolverData
y8k:_MonoType_get_attributes_m1332507727
YCj:_SimpleFollowMouse_UpdateFrameLength_m2399361825
HBq:_GUIContent_ClearStaticCache_m1205116045
TAi:_WebRequestModulesSection__cctor_m1494955898
Qod:__ZN24OptimizedPolynomialCurve19BuildOptimizedCurveERK17AnimationCurveTplIfEf
hQe:__ZN5physx13PxsCCDContext14postCCDAdvanceEPNS_10PxBaseTaskE
v1l:_WindowsIdentity_Dispose_m3466258450
Sdn:_XmlSchemaObjectTable_get_Item_m170185878
Ajg:__ZNSt3__214__split_bufferIN6il2cpp2os11PollRequestERNS_9allocatorIS3_EEED2Ev
gcp:_LTDescrImpl_setUseFrames_m3076448715
gJl:_Char_System_IConvertible_ToByte_m2347554595
lMo:_KeyValuePair_2_ToString_m65692449_AdjustorThunk
ZBg:__ZN6il2cpp6icalls8mscorlib6System2IO6MonoIO20GetFileSystemEntriesEP12Il2CppStringS6_iiPi
_Ff:__ZN20TextRenderingPrivate15DynamicFontData21GetFontMetricsForFaceERK13dynamic_arrayIN4core17string_with_labelILi35EEELj4EEiRKS1_I4PPtrIN13TextRendering4FontEELj4EEPfSF_
sqo:_UInt16_TryParse_m4139137016
M8m:_RenderTextureDescriptor__ctor_m505960146
HNg:__ZN6il2cpp2gc16GarbageCollector9FreeFixedEPv
ggo:_Encoding__ctor_m2997749867
p$m:_ManagedStreamHelpers_ManagedStreamSeek_m3158782053
Fco:_ExpressionAssertion_Compile_m2166597834
Y6b:__ZN16ScriptingManagerD0Ev
X2l:_Single_System_IConvertible_ToSByte_m1208276900_AdjustorThunk
F2c:__Z29Register_UnityEngine_GL_Beginv
p5o:_LeanTest_printOutLength_m2499575098
xWe:__ZNK5physx10BPWorkTask7getNameEv
Xnq:_Configuration__ctor_m169178873
Fie:__ZN5physx2Sc8ShapeSim16onResetFilteringEv
WQj:_RuntimeFieldHandle_GetObjectData_m95767031_AdjustorThunk
CFg:__ZN30dense_hashtable_const_iteratorINSt3__24pairIK10KeyWrapperINS1_IPKcS4_EEEiEES6_24NamespaceAndNamePairHashN14dense_hash_mapIS6_iS9_NS6_14EqualsComparerI26NamespaceAndNamePairEqualsEENS0_9allocatorIS8_EEE9SelectKeyESD_SF_EppEv
Xbi:__ZL114ParticleSystem_t1800779281_CustomAttributesCacheGenerator_ParticleSystem_t1800779281____startLifetime_PropertyInfoP21CustomAttributesCache
rUc:__Z44Register_UnityEngine_Component_get_transformv
kVc:__Z39GameObject_CUSTOM_FindGameObjectWithTagP12Il2CppString
UV:__ZN12_GLOBAL__N_120ProcessPlayableGraphERN8Animator11AnimatorJobER35AnimationPlayableEvaluationConstantR32AnimationPlayableEvaluationInputR33AnimationPlayableEvaluationOutputPFvS4_R17AnimationPlayableEPFvS4_S6_S8_EPFvS8_S4_S6_S8_fESE_MS9_FvPS3_PS5_PS7_E
SEn:_TextInfo_ToLower_m2744057472
Jdc:__ZN17ArchiveFileSystem12MountArchiveEPKcS1_
cWc:__Z34Graphics_CUSTOM_Internal_SetNullRTv
XIo:_EqualityComparer_1_System_Collections_IEqualityComparer_Equals_m3977314386_gshared
Cad:__Z18Transfer_BlittableI9JSONWriteLb1E8Vector4fEvRK29SerializationCommandArgumentsR31RuntimeSerializationCommandInfo
xp:FUNCTION_TABLE_viififiii
T4k:_StringWriter__ctor_m1259274362
jJf:__ZN2UI13CanvasManagerD0Ev
ezl:_Uri_Parse_m3848432633
Ula:__ZThn32_NK8Renderer14GetSubsetIndexEi
_Um:_Debug_get_unityLogger_m2239795986
$9q:dynCall_iiiiiiiiiiiiffffii
jpn:_GacIdentityPermission_Intersect_m1232866077
bOh:__ZL112XmlSchemaImport_t3509836441_CustomAttributesCacheGenerator_XmlSchemaImport_t3509836441____Namespace_PropertyInfoP21CustomAttributesCache
f8p:_ReadOnlyCollection_1_System_Collections_IList_Add_m4240023232_gshared
tSa:__ZN9GfxDevice15ImmediateVertexEfff
$Ac:__Z13RegisterClassI8MaterialEvv
_wb:__ZNK16LightmapSettings22GetTypeVirtualInternalEv
Cqn:_RegistryPermission__ctor_m2010290529
d_o:_Array_Sort_TisUIVertex_t4057497605_TisUIVertex_t4057497605_m4243853890_gshared
LPa:__ZN13GfxDeviceGLES15SetStencilStateEPK18DeviceStencilStatei
Fro:_Transform_1_BeginInvoke_m3419665620_gshared
$Hl:_Buffer_BlockCopyInternal_m418318694
Y4q:_cycle
XFp:_List_1_System_Collections_IList_set_Item_m1580996229_gshared
YPi:__Z76RuntimeInvoker_Void_t1185182177_RuntimeObject_RuntimeFieldHandle_t1871169219PFvvEPK10MethodInfoPvPS4_
oAp:_Rijndael_Create_m3053077028
Ye:_emscripten_glUniform1iv
s0q:_RectTransformUtility__cctor_m1529820864
xlo:_Thread_get_ManagedThreadId_m1068113671
eEd:__ZN15b2DistanceProxy3SetEPK7b2Shapei
VRb:__ZN16MemoryFileSystemD2Ev
nQi:__Z150RuntimeInvoker_Int32_t2950945753_RuntimeObject_Int32_t2950945753_Int32_t2950945753_RuntimeObject_Int32_t2950945753_Int32_t2950945753_Int32_t2950945753PFvvEPK10MethodInfoPvPS4_
Pbl:_XmlAttributeTokenInfo_get_Value_m3359513343
$Gl:_BitConverter_DoubleToInt64Bits_m3574395137
ncm:_Enumerator_System_Collections_IEnumerator_get_Current_m2827596946_AdjustorThunk
ODp:_List_1_System_Collections_IList_Add_m1540114404_gshared
dWm:_Debug_LogException_m2248249292
NTc:__Z37Register_UnityEngine_Camera_get_depthv
x_:__ZN13AnimationClip24SetDidModifyClipCallbackEPFvPS_R4ListI8ListNodeI14AnimationStateEEE
PGg:__ZNK15dense_hashtableI10KeyWrapperIP18Il2CppGenericClassES3_N6il2cpp8metadata22Il2CppGenericClassHashEN14dense_hash_setIS3_S6_NS3_14EqualsComparerINS5_25Il2CppGenericClassCompareEEENSt3__29allocatorIS3_EEE8IdentityESA_SD_E10test_emptyERK30dense_hashtable_const_iteratorIS3_S3_S6_SF_SA_SD_E
hKg:__ZN6il2cpp2os5posix15PosixWaitObject4WaitEjb
nxm:_Selectable_StartColorTween_m3618813981
q7j:_BaseInputModule_HandlePointerExitAndEnter_m1705532066
Ijf:__ZN5physx7profile8ZoneImplINS_28PxProfileNameProviderForwardEE10startEventEty
BQe:__ZN5physx10PxsCCDPair17sweepAdvanceToToiEfb
vvc:__Z23ConvertIntegerToTypePtrItEbPvR14SafeBinaryRead
wkl:_Assembly_get_GrantedPermissionSet_m1570356177
_bl:_DTDReader_get_BaseURI_m1592238113
Lal:_NumberFormatter_IntegerToString_m1679294587
x2m:_MonoBehaviour_StopCoroutine_m615723318
V4p:_ReadOnlyCollection_1_System_Collections_IList_RemoveAt_m422909114_gshared
zW:__ZN7mecanim5human29HumanGetGoalOrientationOffsetENS0_4GoalE
of:_emscripten_glStencilFunc
V9o:_LeanTween_scale_m3887364082
Hhe:__ZN5physx6shdfnd8PoolBaseINS_2Cm5BlockIhLj384EEENS0_19ReflectionAllocatorIS4_EEE17releaseEmptySlabsEv
C4e:__ZN5physx16PxsIslandManager11freeBuffersEv
trn:_SiteIdentityPermission_ToXml_m2415371146
t0p:_ReadOnlyCollection_1_System_Collections_IList_Contains_m1942059508_gshared
Jfm:_Enumerator_Reset_m4274926190_AdjustorThunk
lnh:_XmlTextReader_IncrementAttributeToken_m1983457952
qae:__ZN5physx2Cm12DelegateTaskINS_2Sc17ParticleSystemSimEXadL_ZNS3_21prepareCollisionInputEPNS_10PxBaseTaskEEEE11runInternalEv
P6f:__Z46il2cpp_codegen_get_marshal_directive_exceptionPKc
mOa:__ZN9ShaderLab20SerializedSubProgram14AddMatrixParamEPKcii15ShaderParamTypei
Nnb:__ZN24GenerateTypeTreeTransfer8TransferI13dynamic_arrayI8Vector3fLj4EEEEvRT_PKc17TransferMetaFlags
vf:_glGetActiveUniformBlockName
Q0d:__ZThn12_N5physx3Ext13DistanceJointD0Ev
YP:__ZN7mecanim13CopyValueMaskILb0EEEvPKNS_14ValueArrayMaskEPS1_
dnk:_TypeData_get_ListItemType_m2212788481
Bgh:_XsdFloat__ctor_m2327975209
l1f:_ScreenSpaceAmbientOcclusion_OnDisable_m2013453898
_G:__ZN9Animation20GetClipLegacyWarningEP13AnimationClip
_co:_Parser_IsIgnoreCase_m2210120858
WQl:_PropertyDescriptorCollection_Remove_m3035251257
pud:__ZN31CollisionModulePropertyBindings13GetFloatValueERK14ParticleSystemi
crn:_SecurityPermission_IsSubsetOf_m545000671
Emr:b187
$Xc:__Z39Quaternion_CUSTOM_INTERNAL_CALL_InverseRK11QuaternionfRS_
xPh:__ZL58XmlEnumAttribute_t106705320_CustomAttributesCacheGeneratorP21CustomAttributesCache
A4:__ZN4FMOD7Channel20set3DConeOrientationEP11FMOD_VECTOR
op:FUNCTION_TABLE_iiifii
oml:_AssemblyBuilder_not_supported_m1735277432
NJg:__ZN6il2cpp2vm12GenericClass11SetupEventsEP11Il2CppClass
t4:__ZN4FMOD7Channel7setModeEj
Dyf:_tt_cmap12_get_info
LEg:__ZN6il2cpp2vm15ReboxIReferenceEP14Il2CppIUnknownP11Il2CppClass
Wso:_Transform_1_Invoke_m1274531750_gshared
Spn:_KeyContainerPermissionAccessEntryCollection__ctor_m1064940544
Dag:__ZN6il2cpp6icalls8mscorlib6System7Decimal14decimalCompareEP19il2cpp_decimal_reprS5_
Uop:_Dictionary_2_OnDeserialization_m4209543208_gshared
_Qg:__ZThn4_N6il2cpp2vm13CachedCCWBaseINS0_13ManagedObjectEE7ReleaseEv
Pce:__ZN5physx26PxcFsComputeJointLoadsSimdERKNS_9PxcFsDataEPKNS_12PxcFsInertiaEPNS_6shdfnd3aos6Mat33VEPKfjjNS_21PxcFsScratchAllocatorE
z6l:_TermInfoDriver_AddStringMapping_m1259028031
D_:__ZN29AnimationStateNetworkProvider24GetNetworkAnimationStateER9AnimationP24AnimationStateForNetworki
vCe:__ZN5physx6shdfnd8SyncImpl7getSizeEv
bhl:_XmlSchemaChoice_SetParent_m1353541134
p1i:__Z100RuntimeInvoker_Void_t1185182177_RuntimeObject_Int32_t2950945753_Int32_t2950945753_UInt16_t2177724958PFvvEPK10MethodInfoPvPS4_
iir:_glCopyTexImage2D__wrapper
PLd:__ZN16PhysicsManager2D11CreateWorldERK8Vector2f
odg:_il2cpp_z_deflateEnd
iya:__GLOBAL__sub_I_runtime_graphics_billboard_0_cpp
ufk:_FloatTween_TweenValue_m52237061
pAd:__Z61Register_UnityEngine_ParticleSystem_EmissionModule_SetEnabledv
Xac:__Z18ClearByDrawingQuad13GfxClearFlagsRK10ColorRGBAffjR17ShaderPassContext
t$a:__ZN6prcoreL17RemapGenericFloatI14TexFormatRHalf15TexFormatRFloatEEvPKNS_9InnerInfoE
vWf:_ThirdPersonCharacter_Start_m2075315744
ebl:_NumberFormatter_FormatExponential_m2139559983
uhc:__Z16ShouldUseShadowsb
DEa:__ZN15DirectorManager21RebuildStageCallbacksEv
jPo:_Enumerator_MoveNext_m1131351993_gshared
ibc:__ZN19RuntimeSceneManager9LoadSceneERKN4core12basic_stringIcNS0_20StringStorageDefaultIcEEEES6_S6_RK9UnityGUIDiNS_11LoadingModeE
zOo:_Enumerator_System_Collections_IEnumerator_get_Current_m3187544823_gshared
LUa:__ZN7ApiGLES10DrawArraysE16GfxPrimitiveTypejjj
X1:__ZN10SampleClip13LoadBaseSoundEv
ATd:__ZN5physx2Gu22gjkRelativePenetrationINS0_17ShrunkConvexHullVES2_EEjRKT_RKT0_RKNS_6shdfnd3aos15PsMatTransformVERKNSA_6FloatVERNSA_5Vec3VESI_SI_RSE_PhSK_Rh
vZ:__ZN18StreamedBinaryReadILb0EE21TransferSTLStyleArrayI22OffsetPtrArrayTransferIN7mecanim8skeleton4NodeEEEEvRT_17TransferMetaFlags
DCl:_SmallXmlParser_SkipWhitespaces_m4243606597
tCn:_CompareInfo_IndexOf_m2631915198
Unk:_XmlAttribute_get_NamespaceURI_m3814509381
DIl:_Byte_CompareTo_m4285128861
J8j:_TriggerEvent__ctor_m87299207
fea:__Z57AudioSource_CUSTOM_INTERNAL_CALL_ClearExtensionPropertiesP12Il2CppObjectRK12PropertyName
kM:__ZN7mecanim9animation4Clip8TransferI19StreamedBinaryWriteILb0EEEEvRT_
$Ig:__ZN15dense_hashtableINSt3__24pairIK10KeyWrapperIP12Il2CppObjectEN6il2cpp2gc9CachedCCWEEES5_NS7_5utils11PointerHashIS3_EEN14dense_hash_mapIS5_S9_SD_NS5_14EqualsComparerINS0_8equal_toIS4_EEEENS0_9allocatorISA_EEE9SelectKeyESI_SK_E15insert_noresizeERKSA_
Bhm:_Enumerator_get_CurrentKey_m2790302967_gshared
A5e:__ZN5physx2Sc19ParticlePacketShapeC2ERNS0_17ParticleSystemSimEjPNS_16PxvParticleShapeE
pLl:_DictionaryNodeCollection_get_Count_m4057745757
SAq:_GUI_CalculateScaledTextureRects_m518609609
Vtb:__ZN22DeviceMVPMatricesStateC2ER9GfxDevice
yld:__Z9UpdateTplIL27ParticleSystemCurveEvalMode1EEvRK11MinMaxCurveS3_S3_R23ParticleSystemParticlesjjRKN4math8float3x3ERKNS6_7_float4E
vme:__ZN5physx9NpPhysics18createTriangleMeshERNS_13PxInputStreamE
Ep:FUNCTION_TABLE_iiiiifiiiif
To:FUNCTION_TABLE_iifii
f0j:_Context_get_ContextProperties_m3283598326
Hzb:__ZNSt3__26vectorI13dynamic_arrayI8Vector2fLj4EENS_9allocatorIS3_EEE6assignINS_11__wrap_iterIPS3_EEEENS_9enable_ifIXaasr21__is_forward_iteratorIT_EE5valuesr16is_constructibleIS3_NS_15iterator_traitsISC_E9referenceEEE5valueEvE4typeESC_SC_
fxb:__ZN21EnlightenSceneMapping8TransferI14SafeBinaryReadEEvRT_
Pon:_FileIOPermission_set_AllFiles_m3075410880
vVf:_FirstPersonController_RotateView_m1176986746
wo:FUNCTION_TABLE_iiffi
ud:invoke_viiifi
pZj:_RuntimeEnvironment_get_SystemConfigurationFile_m4061971677
aVj:_MonoProperty_GetCustomAttributes_m3619796755
O9e:__ZN5physx6shdfnd5ArrayIPNS_7PxActorENS0_19ReflectionAllocatorIS3_EEE8recreateEj
b4j:_MethodDictionary_System_Collections_IEnumerable_GetEnumerator_m4169036899
Hsj:_Collider_Sphere__ctor_m294840122
aJk:_List_1_InnerRemoveAt_m2788784521_gshared
Tab:__ZNK11AssetBundle14GetPreloadDataEiR13dynamic_arrayIiLj4EE
m9l:_InternalEnumerator_1_get_Current_m1477715453_AdjustorThunk
Oyk:_ClientRecordProtocol_ProcessHandshakeMessage_m1002991731
Jlq:_XmlTextWriter_WriteString_m406191177
W5q:_strstr
Sjn:_RIPEMD160Managed_JJJ_m4161373884
vLj:_SoapServices_get_XmlNsForClrTypeWithNsAndAssembly_m2954042252
Eg:_JS_Sound_SetPosition
Ipb:__ZN19RenderBufferManager13GetTempBufferEii17DepthBufferFormat19RenderTextureFormatj22RenderTextureReadWrite14VRTextureUsagei23RenderTextureMemoryless
bep:_Array_InternalArray__ICollection_Add_TisMoveDirection_t883568195_m2394786633_gshared
vig:__ZL13GetSharedInstPK17Il2CppGenericInst
teg:__ZNK15dense_hashtableINSt3__24pairIK10KeyWrapperIPKcEP11Il2CppClassEES5_N6il2cpp5utils11StringUtils12StringHasherIS4_EEN14dense_hash_mapIS5_S8_SE_NS5_14EqualsComparerINSB_13VmStringUtils21CaseSensitiveComparerEEENS0_9allocatorIS9_EEE9SelectKeyESJ_SL_E3endEv
wlq:_XmlTextWriter_DetermineAttributePrefix_m2990155447
hOf:__ZN22BaseUnityConnectClient17SaveSessionValuesEv
ZQk:_InternalEnumerator_1_get_Current_m476140818_gshared
Tpe:__ZNK5physx7NpCloth14getNbParticlesEv
FKi:_NetworkStream_BeginRead_m194067695
r2d:__ZN5physx2Sc10NPhaseCore24releaseShapeInstancePairEPNS0_19ShapeInstancePairLLEjj
Fan:_SpriteRenderer_set_sprite_m1286893786
wbn:_Texture2D_INTERNAL_CALL_SetPixel_m4151298262
gnc:__Z24SetupActiveLightsContextR21ActiveLightingContextRK12ActiveLightsRK11CullResultsP14ShadowMapCacheRK10MinMaxAABB
_hh:_XsdInteger_get_TypeCode_m1862004525
F_c:__Z38Sprite_CUSTOM_INTERNAL_get_textureRectP12Il2CppObjectP5RectTIfE
Eug:__ZNK15dense_hashtableINSt3__24pairIK10KeyWrapperIPK22Il2CppGenericParameterEPK24MonoGenericParameterInfoEES6_N6il2cpp5utils11PointerHashIS4_EEN14dense_hash_mapIS6_SA_SF_NS6_14EqualsComparerINS0_8equal_toIS5_EEEENS0_9allocatorISB_EEE9SelectKeyESK_SM_E3endEv
EQc:__ZN9TextAsset7SetTextERKN4core12basic_stringIcNS0_20StringStorageDefaultIcEEEE
yhb:__ZN6Camera8TransferI24GenerateTypeTreeTransferEEvRT_
eb:invoke_iiiiiiif
Ya:invoke_iiiiiiii
yjp:_Array_InternalArray__set_Item_TisByte_t1134296376_m3104140039_gshared
VYi:__Z194RuntimeInvoker_Int32_t2950945753_RuntimeObject_Int32_t2950945753_Int32_t2950945753_RuntimeObject_Int32_t2950945753_SByte_t1669577662_Int32U26_t1369213839_BooleanU26_t4125257963_SByte_t1669577662PFvvEPK10MethodInfoPvPS4_
Ixq:_PKCS12_GetBytes_m415958948
yqc:__ZN8Renderer17PendingAddToSceneEv
oie:__ZN5physx7NpActor18releaseConstraintsERNS_12PxRigidActorE
n_d:__ZN5physx6shdfnd5ArrayINS_11PxDebugLineENS0_19ReflectionAllocatorIS2_EEE8recreateEj
eir:b125
dir:b124
gir:b127
fir:b126
oir:b129
pZc:__Z52Register_UnityEngine_RectTransform_INTERNAL_get_rectv
Ilk:_XmlSchemaSimpleTypeRestriction_getDatatype_m687103007
Joa:__Z21PostprocessStacktracePKcRN4core12basic_stringIcNS1_20StringStorageDefaultIcEEEE
q$m:_ManagedStreamHelpers_ManagedStreamLength_m2930872960
_Jb:__ZN18StreamedBinaryReadILb0EE21TransferSTLStyleArrayI13dynamic_arrayI16SplashScreenLogoLj4EEEEvRT_17TransferMetaFlags
gAe:__ZNK5physx14NpRigidDynamic25getContactReportThresholdEv
B2k:_FileStreamAsyncResult_CBWrapper_m1670848754
eUc:__Z47Register_UnityEngine_Camera_get_allCamerasCountv
w0f:_ImageEffectBase_OnDisable_m1683232942
JZ:__ZN16MecanimAnimation25RegisterIAnimationBindingEPKN5Unity4TypeEiP17IAnimationBinding
bMc:__ZNSt3__26vectorIj13stl_allocatorIjL18MemLabelIdentifier1ELi16EEE6assignIPKtEENS_9enable_ifIXaasr21__is_forward_iteratorIT_EE5valuesr16is_constructibleIjNS_15iterator_traitsIS9_E9referenceEEE5valueEvE4typeES9_S9_
kV:__ZN7mecanim9animation16EvaluateAvatarIKEPKNS0_14AvatarConstantEPKNS0_11AvatarInputEPNS0_12AvatarOutputEPNS0_12AvatarMemoryEPNS0_15AvatarWorkspaceEb
dS:__ZN26AnimatorControllerPlayable10GetIntegerEiRi
c1e:__Z22updateIslandsToProcessRKN5physx2Cm10BitMapBaseINS_6shdfnd9AllocatorEEEPKjRKNS_11NodeManagerERS4_
Itj:_ProjectileShooter_FireProjectile_m2270433620
EGi:_FtpWebResponse_Close_m3407016815
Vec:__ZN12InputManager13InputEndFrameEv
BCd:__ZN15b2RevoluteJointC2EPK18b2RevoluteJointDef
d2m:_Object_get_name_m4211327027
brm:_ShimEnumerator_get_Entry_m1893112574_gshared
V9q:dynCall_viififfii
Hzg:__ZN6il2cpp2vm6Thread5SetupEP12Il2CppThread
Edf:__ZN8Collider30GetRelativePositionAndRotationERK9TransformR10Matrix4x4f
HQe:__ZN5physx35PxcSweepEstimateAnyShapeHeightfieldERKNS_11PxsCCDShapeES2_PKNS_12PxsRigidBodyES5_RKNS_11PxTransformES8_f
Ajm:_Enumerator_System_Collections_IDictionaryEnumerator_get_Key_m2500634048_gshared
ffn:_XmlSchemaGroupRef_ValidateDerivationByRestriction_m3591843779
I_d:__ZN5physx3Cct13BoxControllerC2ERKNS_16PxControllerDescERNS_9PxPhysicsEPNS_7PxSceneE
f6q:___munmap
DPn:_RSAManaged_get_PublicOnly_m595121416
wh:_localtime_r
$fc:__ZN22RenderingCommandBuffer13GetAndCheckRTE24BuiltinRenderTextureTypeRKN9ShaderLab16FastPropertyNameEPKcPP13RenderTexture
ukd:__ZN14ParticleSystem13KillParticlesILb1EEEvRjbR24ParticleSystemUpdateDataR23ParticleSystemParticlesjPj
dDa:__ZN14GfxDoubleCacheIyP17VertexDeclaration14GfxGenericHashIyENSt3__28equal_toIyEEN31GfxDoubleCacheConcurrencyPolicy11LocklessGetE42GfxDoubleCacheDefaultEmptyDeletedGeneratorIyEEC2Ev
Cwd:__Z16UpdateSpritesTplIL27ParticleSystemCurveEvalMode3EEvfRK11MinMaxCurveS3_RK23ParticleSystemParticlesPf
dla:__Z19free_alloc_internalPv10MemLabelId
BRm:_AnimationCurve_get_length_m1548433259
Pio:_UTF32Decoder_GetChars_m1925558948
Ah:_strftime
S3a:__ZN7Texture33SetStoredColorSpaceNoDirtyNoApplyE17TextureColorSpace
IXj:_ResourceSet__ctor_m3618395942
qvn:_Decimal_System_IConvertible_ToDouble_m3125524987_AdjustorThunk
Kra:__ZN12FileAccessorD2Ev
Mlb:__ZN14VertexDataInfoC2Ev
rNg:__ZN6il2cpp2gc16GarbageCollector14CollectALittleEv
WDf:__ZN13sorted_vectorIN20TextRenderingPrivate8FontImpl13CharacterInfoENSt3__24lessIS2_EE13stl_allocatorIS2_L18MemLabelIdentifier35ELi16EEE10insert_oneERKS2_
mIc:__ZNK9HPlayable15GetPlayableTypeEv
G2b:__ZL17Transfer_GUIStyleI18StreamedBinaryReadILb1EELb1EEvRK29SerializationCommandArgumentsR31RuntimeSerializationCommandInfo
qkd:__ZNSt3__227__insertion_sort_incompleteIR31SortCollisionEventsByGameObjectP22ParticleCollisionEventEEbT0_S5_T_
BBm:_RectMask2D_IsRaycastLocationValid_m1652308696
bmg:__ZN6il2cpp6icalls8mscorlib6SystemL9IsPrivateEPK12PropertyInfo
vZm:_Graphics_Internal_BlitMaterial_m1736695369
NQe:__ZNK5physx18PxcConvexTriangles16getPolygonNormalEj
H7m:_RectTransform_add_reapplyDrivenProperties_m1374850920
tBi:_Cookie_get_Path_m3866976232
kWm:_DebugLogHandler_Internal_LogException_m4213045108
qAa:__ZN9shadertag10InitializeEv
Hhc:__ZN13BatchRenderer20RenderSingleWithPassER17ShaderPassContextPK18SharedMaterialDataP6ShaderPN9ShaderLab4PassEiPKNS7_10GrabPassesEjib15BatchBreakCause
Zkf:__ZN5physx24NpPtrTableStorageManager8canReuseEjj
vyb:__ZN15QualitySettings14QualitySetting8TransferI24GenerateTypeTreeTransferEEvRT_
aIi:_HttpWebResponse_Dispose_m2105431493
YEe:__ZN5physx2Sc27ConstraintProjectionManager33processConstraintForGroupBuildingEPNS0_13ConstraintSimERNS0_20ScratchAllocatorListIS3_Lj64EEE
dMq:_TestingPunch_U3CUpdateU3Em__4_m501966601
Vlq:_XmlValidatingReader_get_Depth_m2789143630
nif:__ZN5Unity11SpringJoint5ResetEv
x5k:_SynchronizedWriter_WriteLine_m1784969977
EHf:__Z28Font_Get_Custom_PropMaterialP12Il2CppObject
Acj:__Z110RuntimeInvoker_Void_t1185182177_RuntimeObject_RuntimeObject_Int32_t2950945753_Single_t1397266774_RuntimeObjectPFvvEPK10MethodInfoPvPS4_
ijq:_CharGetter_BeginInvoke_m1792834121
FJc:__ZN22BlockMemoryCacheWriter14LockCacheBlockEjPPhS1_
bCp:_List_1_Add_m2024781851_gshared
bDe:__ZN5physx2Cm29ConstraintImmediateVisualizer19visualizeDoubleConeERKNS_11PxTransformEfb
med:__Z22TransferField_NonArrayI8JSONRead27Converter_SimpleNativeClassI8GUIStyleEEvRK23StaticTransferFieldInfoR31RuntimeSerializationCommandInfoRT0_
aOd:__ZN5physx6shdfnd5ArrayINS_13PxExtendedBoxENS0_19ReflectionAllocatorIS2_EEE8recreateEj
pWe:__ZN5physx20ProcessBPResultsTask11runInternalEv
B6d:__ZN5physx6shdfnd5ArrayIPvNS0_19ReflectionAllocatorINS_2Cm5BlockIS2_Lj16EEEEEE4copyINS0_15InlineAllocatorILj256ES7_EEEEvRKNS1_IS2_T_EE
gi:_llvm_eh_typeid_for
QAc:__Z13RegisterClassI10GameObjectEvv
Vcm:_Enumerator_System_Collections_IDictionaryEnumerator_get_Key_m1100618804_gshared
HTl:_DiagnosticsConfigurationHandler_AddTraceListener_m2705949763
Ptq:_ProtectedConfigurationSection__cctor_m3322760344
K3j:_RemotingServices_FindInterfaceMethod_m2125212568
mT:__ZNK23AnimationPlayableOutput7GetTypeEv
EFe:__ZN5physx7NpScene19getActiveTransformsERjh
y4k:_StreamWriter__cctor_m1229272693
s2d:__ZN5physx2Sc10NPhaseCore39pool_deleteParticleElementRbElementPairEPNS0_35ParticleElementRbElementInteractionEjj
sbj:__Z109RuntimeInvoker_RuntimeObject_Ray_t3785851493_Single_t1397266774_Int32_t2950945753_RuntimeObject_RuntimeObjectPFvvEPK10MethodInfoPvPS4_
wha:__Z7ToUpperIN4core12basic_stringIcNS0_20StringStorageDefaultIcEEEEET_RKS5_
U4b:__Z18Transfer_BlittableI18StreamedBinaryReadILb0EELb1E8Vector4fEvRK29SerializationCommandArgumentsR31RuntimeSerializationCommandInfo
Gpk:_XmlConvert_FromBinHexString_m666921948
_kr:_glBindVertexArray__wrapper
kcf:__ZN5physx6shdfnd5ArrayINS_11RTreeNodeNQENS0_19ReflectionAllocatorIS2_EEE19resizeUninitializedEj
n3d:__ZNK5physx2Sc16InteractionScene18getLLIslandManagerEv
vNj:_SerializationInfo__ctor_m2923079689
Ljn:_RIPEMD160Managed_CompressFinal_m497690796
_4d:__ZN5physx2Gu21intersectSphereConvexERKNS0_6SphereERKNS0_10ConvexMeshERKNS_11PxMeshScaleERKNS_11PxTransformEPNS_6PxVec3E
wsb:__ZN8Material8TransferI14SafeBinaryReadEEvRT_
kQe:__ZN5physx17PxcNpMemBlockPool34acquireExceptionalConstraintMemoryEj
Iub:__ZN12CubemapArray17UploadToGfxDeviceEv
KGn:_Int32_JumpOverWhite_m208298144
d0l:_StrongNameMembershipCondition_FromXml_m2156013368
ndm:_Enumerator_VerifyCurrent_m2219863940_gshared
RRl:_StringConverter_ConvertFrom_m3963535236
wRe:__ZN5physxL23PxcSweepConvexTrianglesERKNS_11PxsCCDShapeES2_RKNS_11PxTransformES5_S5_S5_fRNS_6PxVec3ES7_RNS_10PxcNpCacheERNS_18PxcNpThreadContextERKNS_2Cm23FastVertex2ShapeScalingERNS_2Gu9TriangleVEf
Xne:__ZNK5physx7NpShape16getPlaneGeometryERNS_15PxPlaneGeometryE
nhj:__Z53RuntimeInvoker_Int32_t2950945753_UIVertex_t4057497605PFvvEPK10MethodInfoPvPS4_
Qjr:_emscripten_glGetUniformiv__wrapper
TQg:__ZN6il2cpp2vm13ManagedObject14QueryInterfaceERK10Il2CppGuidPPv
HK:__ZNSt3__26vectorI24CompressedAnimationCurve13stl_allocatorIS1_L18MemLabelIdentifier26ELi16EEE6assignINS_11__wrap_iterIPS1_EEEENS_9enable_ifIXaasr21__is_forward_iteratorIT_EE5valuesr16is_constructibleIS1_NS_15iterator_traitsISB_E9referenceEEE5valueEvE4typeESB_SB_
ucf:__ZN5physx27InternalTriangleMeshBuilder14fillRemapTableEv
t2:__ZN11AudioSource4StopEb
Oae:__ZN5physx6shdfnd8PoolBaseINS_13NpRigidStaticENS0_19ReflectionAllocatorIS2_EEE17releaseEmptySlabsEv
GXq:_GUIText_set_text_m2265981083
AWb:__ZN14SafeBinaryRead21TransferSTLStyleArrayI13dynamic_arrayI10Matrix4x4fLj4EEEEvRT_17TransferMetaFlags
lib:__ZN15LODGroupManager26CollectAllLODGroupManagersERK16CoreCameraValuesR13dynamic_arrayIPS_Lj4EEb
E$f:_DepthOfField__ctor_m1398689108
s6a:__ZN18GlslGpuProgramGLESD2Ev
Nsc:__ZN13RenderTexture14SetVolumeDepthEi
FMo:_KeyValuePair_2_ToString_m1533115588_AdjustorThunk
Tjf:__ZThn116_NK5physx7profile8ZoneImplINS_28PxProfileNameProviderForwardEE10hasClientsEv
FZe:__ZN5physx2Gu20pcmContactCapsuleBoxERKNS0_13GeometryUnionES3_RKNS_11PxTransformES6_RKfRNS0_5CacheERNS0_13ContactBufferE
E0i:__Z86RuntimeInvoker_Void_t1185182177_UInt16_t2177724958_SByte_t1669577662_SByte_t1669577662PFvvEPK10MethodInfoPvPS4_
ONa:__Z22LoadGpuProgramFromDataPKhS0_Rj
Sed:__ZN10Matrix4x4f8TransferI8JSONReadEEvRT_
nDf:__ZN14SafeBinaryRead21TransferSTLStyleArrayI13dynamic_arrayIN4core17string_with_labelILi35EEELj4EEEEvRT_17TransferMetaFlags
lBm:_PositionAsUV1_ModifyMesh_m4231919476
aUn:_Hashtable__ctor_m1941859523
X0k:_MonoIO_DeleteFile_m3839141322
Ax:__Z21CleanupNavMeshManagerv
jC:__Z55Register_UnityEngine_AI_NavMeshAgent_set_updateRotationv
sdq:_Getter_2_Invoke_m3667195478_gshared
ana:__ZN17PersistentManager18ReadObjectThreadedEi
h3a:__ZN25TransformFeedbackSkinning31CleanupTransformFeedbackShadersEv
$hb:__Z22scripting_object_unbox18ScriptingObjectPtr
tEf:__ZNK20TextRenderingPrivate8FontImpl19GetCharacterAdvanceEjijfPj
nfp:_Array_InternalArray__ICollection_Add_TisUriScheme_t722425697_m3142345403_gshared
tfm:_Enumerator_System_Collections_IEnumerator_Reset_m3350288645_gshared
z4q:_fmt_u
iAb:__ZN10VertexData8TransferI18StreamedBinaryReadILb0EEEEvRT_
Cae:__ZN5physx2Sc5Scene9addStaticERNS0_10StaticCoreEPKPvjj
$dm:_Enumerator_get_CurrentValue_m376520895_gshared
ipq:_ConfigurationElement_GetKeyProperties_m1307937984
a9k:_MonoType_get_Assembly_m4290914179
zZ:__ZN6Avatar8TransferI19StreamedBinaryWriteILb0EEEEvRT_
IOa:__ZN9ShaderLab7ProgramC2E10MemLabelIdi10ShaderType
Zsc:__ZN14PreloadManager16UpdatePreloadingEv
rnb:__ZN14SafeBinaryRead21TransferSTLStyleArrayI19StaticArrayTransferIiLi4EEEEvRT_17TransferMetaFlags
rOo:_Enumerator_VerifyState_m1771609810_AdjustorThunk
Dod:__ZN11NoiseModule8TransferI14SafeBinaryReadEEvRT_
O6o:_LTBezierPath_getRationInOneRange_m2456186456
kMe:__ZN5physx2Sc5Scene9addShapesEPKPvjjRNS0_8RigidSimEPNS_12PxsRigidBodyERPNS0_8ShapeSimEPNS_9PxBounds3E
Qkp:_Array_InternalArray__set_Item_TisUILineInfo_t4195266810_m2313892078_gshared
w9o:_LeanTween_moveSpline_m716520449
cVg:__ZN6il2cpp6icalls8mscorlib6System10Reflection4Emit13ModuleBuilder10basic_initEP29Il2CppReflectionModuleBuilder
NZl:_DefaultPolicies_get_FullTrust_m2195397749
Xpn:_KeyContainerPermissionAccessEntry_Equals_m1469203282
K3m:_PlayableAsset__ctor_m2395156306
zum:_InputField_SendOnValueChanged_m2560301445
vYe:__ZN5physx23PxcPCMContactConvexMeshERKNS_2Gu13GeometryUnionES3_RKNS_11PxTransformES6_RKfRNS_10PxcNpCacheERNS0_13ContactBufferE
C8:__ZN15AudioMixerGroup8TransferI14SafeBinaryReadEEvRT_
cka:__ZNK21UnityDefaultAllocatorI17LowLevelAllocatorE8ContainsEPKv
pRj:_RuntimeTypeHandle_Equals_m2857439487
rj:_emscripten_get_main_loop_timing
nEi:_FtpWebRequest_CloseDataConnection_m473296206
yZj:_SafeHandle_Finalize_m3866180675
uGg:_il2cpp_z_inflate_fast
uyb:__ZN24GenerateTypeTreeTransfer21TransferSTLStyleArrayINSt3__26vectorIN15QualitySettings14QualitySettingENS1_9allocatorIS4_EEEEEEvRT_17TransferMetaFlags
cHb:__ZNSt3__26vectorI14SubstanceInputNS_9allocatorIS1_EEE8__appendEj
c3k:_MemoryStream_ToArray_m3911744835
fao:_RxCompiler_EmitBalanceStart_m1238237762
LZi:__Z123RuntimeInvoker_Void_t1185182177_RuntimeObject_RuntimeObject_RuntimeObject_RuntimeObject_SByte_t1669577662_SByte_t1669577662PFvvEPK10MethodInfoPvPS4_
swk:_RSAManaged_ExportParameters_m1754454264
Ooo:_Type_GetHashCode_m1947148725
lYi:__Z91RuntimeInvoker_Void_t1185182177_RuntimeObject_RuntimeObject_RuntimeObject_SByte_t1669577662PFvvEPK10MethodInfoPvPS4_
iPb:__ZNK2UI13RectTransform22GetTypeVirtualInternalEv
Whd:__ZNK15PolynomialCurve18EvaluateIntegratedERKN4math7_float4E
Wr:getTempRet0
lfh:_XsdBase64Binary_isPad_m1038271513
dNl:_StringDictionary__ctor_m4172756934
lvd:__ZN26SizeModulePropertyBindings13GetFloatValueERK14ParticleSystemi
N9o:_LeanTween_rotate_m1513826583
O_g:_SocketException__ctor_m480722159
JOo:_Enumerator_System_Collections_IEnumerator_Reset_m2394182378_AdjustorThunk
I7j:_BaseRaycaster_OnEnable_m2678466030
GHc:__Z15ClearWithSkyboxbPK6Camera
iim:_Enumerator_get_CurrentKey_m627428048_AdjustorThunk
DXm:_UnityEventBase__ctor_m1851535676
o_o:_Array_Sort_TisVector4_t3319028937_m2797285308_gshared
hxo:_Enumerator_get_Current_m1908012892_gshared
Nrl:_ILGenerator_EmitCall_m2478864924
IZq:_Physics_RaycastAll_m3796226007
sBg:__ZN6il2cpp6icalls8mscorlib6System9ThreadingL21lookup_cached_cultureEP12Il2CppThreadi
oVg:__ZN6il2cpp2os11EventHandleD2Ev
l9f:_NetFxCoreExtensions_CreateDelegate_m751211712
Znc:__ZN18DeferredRenderLoopD2Ev
P4m:_Quaternion_INTERNAL_CALL_Lerp_m2252429057
Iti:__ZL65GlobalFog_t900542613_CustomAttributesCacheGenerator_startDistanceP21CustomAttributesCache
Wsa:__ZNK16TypeTreeIterator4NameEv
YHm:_Array_InternalArray__ICollection_Contains_TisMouseState_t2297408031_m3870042367_gshared
Msn:_PermissionSet__cctor_m2513210405
ira:__ZN15FileSystemEntry3SetEPKc
y3e:__ZN5physx6shdfnd5ArrayIPNS_13PxcNpMemBlockENS0_19ReflectionAllocatorIS3_EEE6resizeEjRKS3_
Amr:b183
rSc:__Z52Register_UnityEngine_Application_set_targetFrameRatev
p1p:_ReadOnlyCollection_1_System_Collections_Generic_IListU3CTU3E_Insert_m568455025_gshared
j4:__ZN20SoundChannelInstance15ParameterBuffer5ApplyEPN4FMOD7ChannelE
JPp:_Collection_1_CheckWritable_m2727304722_gshared
uRl:_ReferenceConverter_CanConvertFrom_m3454720706
RCi:_IPv6Address__ctor_m4117281080
hrk:_XmlDocumentType_get_SystemId_m3515778358
j0n:_Convert_ToInt64_m2075293963
qEf:__ZN20TextRenderingPrivate19NativeTextGenerator9InsertTabEv
pro:_UInt32_TryParse_m2819179361
lld:__Z13DragUpdateTplIL27ParticleSystemCurveEvalMode2EEvRK11MinMaxCurvebbR23ParticleSystemParticlesjjRKN4math7_float4E
zmr:b182
Ejd:__ZN14ParticleSystem12StartModulesER24ParticleSystemUpdateDataRK27ParticleSystemEmissionStatebRK8Vector3fRK10Matrix4x4fR23ParticleSystemParticlesjRKffjfjRjb
oSo:_Enumerator_VerifyState_m3474272061_AdjustorThunk
zjf:__ZN5physx7profile8ZoneImplINS_28PxProfileNameProviderForwardEE21setProfileZoneManagerEPNS_20PxProfileZoneManagerE
kPo:_Enumerator_MoveNext_m1131351993_AdjustorThunk
POf:__ZN11UnityEngine15PlatformWrapper24GetRuntimePlatformStringEv
bk:_glIsEnabled
iYd:__ZN5physx3Cct17CapsuleController15setFootPositionERKNS_14PxExtendedVec3E
GVd:__ZN5physx2Gu33PCMCapsuleVsMeshContactGeneration13generateEEMTDERKNS_6shdfnd3aos5Vec3VES6_RKNS3_6FloatVES6_jS6_S6_PNS0_21MeshPersistentContactERj
pVb:__Z25scripting_class_get_image17ScriptingClassPtr
qbn:_Texture_get_texelSize_m2409716740
XXo:_List_1_RemoveAt_m2730968292_gshared
HLb:__ZNSt3__26vectorIN4core12basic_stringIcNS1_20StringStorageDefaultIcEEEE13stl_allocatorIS5_L18MemLabelIdentifier13ELi16EEEC2INS_11__wrap_iterIPS5_EEEET_SE_RKS8_PNS_9enable_ifIXaasr21__is_forward_iteratorISE_EE5valuesr16is_constructibleIS5_NS_15iterator_traitsISE_E9referenceEEE5valueEvE4typeE
fk:_emscripten_glDrawElementsInstanced
$R:__ZN26AnimatorControllerPlayable27SetupStateMachineBehavioursEv
ymr:b181
T6o:_LTRect_resetForRotation_m1438513466
jsk:_XmlInputStream__ctor_m3269376818
IJp:_List_1_System_Collections_IList_Contains_m2131605266_gshared
Bym:_LayoutGroup_get_preferredWidth_m3816902260
Tjb:__ZN18JobBatchDispatcherD2Ev
dPb:__ZN9Transform17MainThreadCleanupEv
zAi:_WebRequestModuleElement_get_Prefix_m4037610496
RTg:_GC_clear_hdr_marks
Txd:__Z17UpdateSprites2TplIL27ParticleSystemCurveEvalMode1ELS0_4EEvfRK11MinMaxCurveS3_RK23ParticleSystemParticlesPf
LYm:_Gizmos_get_color_m712612415
Asf:_cff_fd_select_get
QGm:_Text_set_resizeTextForBestFit_m4095249125
UZ:__Z13RegisterClassI18AnimatorControllerEvv
BIk:_List_1_System_Collections_IList_set_Item_m555640759_gshared
iNq:_UIntPtr__cctor_m3513964473
G3g:_OidEnumerator_MoveNext_m3138911739
Vbp:_LTDescrImpl_setTo_m1386424333
qk:_emscripten_glGetShaderiv
Obl:_XmlTokenInfo__ctor_m3168572862
j5:__ZN4FMOD6System10getVersionEPj
t4e:__ZN5physx2Sc7BodySim10sleepCheckEffb
oIf:__ZN2UI6Canvas23VirtualRedirectTransferER24GenerateTypeTreeTransfer
mnk:_TypeTranslator_GetPrimitiveTypeData_m2492367760
cFm:_Selectable_set_animationTriggers_m2970345687
ucd:__ZN9JSONWrite8TransferIN4math12int2_storageEEEvRT_PKc17TransferMetaFlags
$Cf:__ZN13TextRendering4Font13AwakeFromLoadE17AwakeFromLoadMode
zCn:_CompareInfo_LastIndexOf_m2688553706
WIj:_TriggeredBehaviour_Sequencer_OnEnteredComplete_m3904018687
ZQa:__ZN9GfxDevice21ReleaseSharedMeshDataEP14SharedMeshData
vno:_Parser_ParseWhiteSpace_m4032762092
bnm:_KeyCollection_System_Collections_ICollection_get_SyncRoot_m2959452200_gshared
tak:_MouseState__ctor_m1467839005
Ndo:_Uri_IsDomainAddress_m2867513594
QIb:__ZNSt3__27__sort5IRNS_6__lessINS_4pairIPKN5Unity4TypeE7Hash128EES8_EEPS8_EEjT0_SC_SC_SC_SC_T_
Dgk:_Dropdown_CreateItem_m2954407740
sNh:__ZL80XmlSchemaDerivationMethod_t1774354337_CustomAttributesCacheGenerator_RestrictionP21CustomAttributesCache
fQm:_Array_InternalArray__IndexOf_TisSingle_t1397266774_m2563096608_gshared
YSg:_GC_unreachable_finalize_mark_proc
c5g:_X509Chain_ProcessCrlExtensions_m236234529
elh:_XsdValidatingReader_get_XmlSpace_m893776782
uh:___syscall192
cmk:_XmlSchemaUtil_SplitList_m1641535596
uUg:_maybe_finalize
Gpd:__ZN13dynamic_arrayI27ParticleSystemEmissionBurstLj4EE18resize_initializedEj12ResizePolicy
Aqd:__ZN11ShapeModule18MultiModeParameterIN25IParticleSystemProperties8PropertyIfNS1_5ClampILi0ELi360EEEEEE8TransferI24GenerateTypeTreeTransferEEvRT_
hZc:__Z43RectTransform_CUSTOM_INTERNAL_get_anchorMaxP12Il2CppObjectP13Vector2fIcall
_iq:_XmlReader_ReadEndElement_m3403071701
Yie:__ZN5physx14NpShapeManagerC2Ev
ZOq:_ImplicitConversionEmitter__ctor_m2921623518
Rwb:__ZN8Material28UpdateHashesOnPropertyChangeEN9ShaderLab16FastPropertyNameE
yQj:_SerializationInfo_GetInt64_m2503729515
x_c:__Z53Register_UnityEngine_SortingLayer_GetLayerValueFromIDv
DUn:_Hashtable_CopyToArray_m320168007
puk:_ASN1_GetBytes_m1968380955
hUb:__Z18Transfer_BlittableI14SafeBinaryReadLb1E8Vector4fEvRK29SerializationCommandArgumentsR31RuntimeSerializationCommandInfo
Vmq:_XmlWriter_WriteAttributeString_m2341773285
rso:_Transform_1_BeginInvoke_m2866839704_gshared
jhl:_XmlSchemaCollection__ctor_m3228921192
tck:_AspectRatioFitter_SetDirty_m2910185270
j9:__ZN11AudioSource12AddToManagerEv
NM:__ZN8Animator23VirtualRedirectTransferER19StreamedBinaryWriteILb0EE
gUm:_Color_Equals_m3887740140
IT:__ZN11UnityEngine9Animation32CreateAnimatorGenericBindingsOptERKNS0_20AnimationSetBindingsER9TransformPKN7mecanim9animation14AvatarConstantEPKNS0_21AvatarBindingConstantEbRNS6_6memory9AllocatorER8Animator
vkl:_Assembly_LoadAssemblyPermissions_m1441429482
d8:__ZN18StreamedBinaryReadILb0EE21TransferSTLStyleArrayI22OffsetPtrArrayTransferIN5audio5mixer13GroupConstantEEEEvRT_17TransferMetaFlags
har:dynCall_vdddddd
xLa:__ZN24GenerateTypeTreeTransfer21TransferSTLStyleArrayINSt3__26vectorIN9ShaderLab14SerializedPassENS1_9allocatorIS4_EEEEEEvRT_17TransferMetaFlags
QAa:__ZL32MarkLevelGameManagerDependenciesR27GarbageCollectorThreadState
vTa:__ZNK13GfxDeviceGLES26HasActiveRandomWriteTargetEv
fyj:_HudText_GetHudTextOfType_m482260299
zHn:_Int32_System_IConvertible_ToUInt64_m2502338186_AdjustorThunk
esh:__ZL54_MemberInfo_t3922476713_CustomAttributesCacheGeneratorP21CustomAttributesCache
Sel:_XmlSchemaAttributeGroup_Read_m1384675368
lgr:_glGetActiveUniformsiv__wrapper
u_c:__Z43Register_UnityEngine_Material_EnableKeywordv
ENd:__ZNK5physx3Cct10Controller16getInternalStateERNS_17PxControllerStateE
Iwc:__Z17BuildSmoothCornerILb0EEvjRPhRKN4math8float4x4EPK15LineBuilderDataRKfSA_RK11ColorRGBA32
uoa:__ZN13MonoBehaviour19SetupScriptingCacheE17ScriptingClassPtrP10MonoScript
Tam:_Comparer_1__cctor_m1735723161_gshared
oI:__Z20AnimationEventToMonoRK14AnimationEventR18MonoAnimationEvent
v5i:__Z106RuntimeInvoker_Void_t1185182177_Single_t1397266774_Single_t1397266774_Single_t1397266774_Int32_t2950945753PFvvEPK10MethodInfoPvPS4_
Jna:__ZN17PersistentManager29ReadAndActivateObjectThreadedEiRK26SerializedObjectIdentifierP14SerializedFilebb
iak:_PointerEventData_get_dragging_m746831934
kLe:__ZN5physx10PxsContext15setScratchBlockEPvj
e8p:_ReadOnlyCollection_1_System_Collections_IEnumerable_GetEnumerator_m2781605075_gshared
rEa:__ZZN15DirectorManager15InitializeClassEvEN52PreLateUpdateDirectorUpdateAnimationBeginRegistrator7ForwardEv
qCg:__ZN6il2cpp2vm13LivenessState18ShouldProcessValueEP12Il2CppObjectP11Il2CppClass
Hik:_Graphic_RegisterDirtyMaterialCallback_m106898453
vBq:_GUIClip_Unclip_Vector2_m3548149109
xZm:_Graphics_BlitMultiTap_m4113634267
Fmr:b188
R1d:__ZN5physx2Cm27getDynamicGlobalPoseAlignedERKNS_11PxTransformES3_S3_RS1_
eTe:__ZN5physx12solve1DBlockEPKNS_23PxcSolverConstraintDescEjRNS_16PxcSolverContextE
baf:__ZN5physx6shdfnd5ArrayIPvNS0_19ReflectionAllocatorIN17PxcPoolMallocData10PoolData32EEEE15growAndPushBackERKS2_
_Ja:__ZNSt3__26vectorIN9ShaderLab20SerializedSubProgram13BufferBindingENS_9allocatorIS3_EEEC2INS_11__wrap_iterIPS3_EEEET_SB_RKS5_PNS_9enable_ifIXaasr21__is_forward_iteratorISB_EE5valuesr16is_constructibleIS3_NS_15iterator_traitsISB_E9referenceEEE5valueEvE4typeE
g0l:_PolicyLevel_ResolveClassName_m1024075074
GDd:__ZNK16PhysicsManager2D21GetAutoSyncTransformsEv
HFc:__ZZL23RegisterLightPropertiesR22GenericPropertyBindingEN20Wrapper_LightColorb213GetFloatValueEPv
Mbh:_EntityResolvingXmlReader__ctor_m354844612
gCd:__ZN12b2WheelJoint24SolveVelocityConstraintsERK12b2SolverData
jtl:_ModuleBuilderTokenGenerator_GetToken_m1396347424
G6l:_TermInfoDriver_Read_m20464343
Yam:_Comparer_1_System_Collections_IComparer_Compare_m3647429906_gshared
ywb:__ZN9Texture2D23VirtualRedirectTransferER18StreamedBinaryReadILb0EE
lKd:__ZN10Collider2D8TransferI24GenerateTypeTreeTransferEEvRT_
F2n:_DateTime_System_IConvertible_ToDouble_m2116720007_AdjustorThunk
yWg:__ZN6il2cpp2vm20MetadataAllocCleanupEv
zSn:_BitArrayEnumerator__ctor_m2359341397
Rfm:_Enumerator_VerifyCurrent_m405413688_gshared
t6l:_TermInfoDriver_IsSpecialKey_m2147989117
u9o:_LTSpline__ctor_m3370541708
dfm:_Enumerator_MoveNext_m3941073381_gshared
xDj:_TriggeredBehaviour_RequestPlaying_m3988836743
h7h:__ZL73g_UnityEngine_TextRenderingModule_Assembly_CustomAttributesCacheGeneratorP21CustomAttributesCache
Spa:__ZN16ScriptingManager27NativeTypeForScriptingClassE17ScriptingClassPtr
sMq:_UInt64_System_IConvertible_ToDateTime_m3434604642
roo:_Type_get_IsSerializable_m1040556850
oxf:_get_sfnt_table
v5m:_Random_INTERNAL_get_onUnitSphere_m797556502
jpq:_ConfigurationPropertyCollection__ctor_m1951498512
I8n:_Parser_ResolveReferences_m1518052352
YAc:__Z13RegisterClassI5LightEvv
o$b:__Z29Transfer_Blittable_ArrayFieldI24GenerateTypeTreeTransferiEvRT_R9ArrayInfoRK23StaticTransferFieldInfo
spc:__ZL22ScheduleSceneNodesJobsP25ScheduleSceneNodesJobDataj
PTe:__ZN5physx22concludeContactCoulombERKNS_23PxcSolverConstraintDescERNS_16PxcSolverContextE
im:_emscripten_set_canvas_size
Mhk:_Graphic_SetVerticesDirty_m2124914069
ive:__ZNK5physx15NpParticleFluid12getStiffnessEv
CCn:_CultureInfo__ctor_m3285927757
qAm:_MaskableGraphic_get_rootCanvasRect_m3492154629
Afm:_Enumerator_System_Collections_IDictionaryEnumerator_get_Key_m397023221_AdjustorThunk
cmp:_Array_Resize_TisRaycastResult_t3360306849_m1811054291_gshared
tKa:__ZNSt3__26vectorIN9ShaderLab20SerializedSubProgramENS_9allocatorIS2_EEE8__appendEj
Mka:__ZN20DynamicHeapAllocatorI17LowLevelAllocatorE8AllocateEji
KHq:_Locale_GetText_m2427493201
mic:__ZN20DynamicPropertySheet15SetVectorQueuedERKN9ShaderLab16FastPropertyNameERK8Vector4fN19ShaderPropertySheet8SetFlagsE
SPk:_InternalEnumerator_1_System_Collections_IEnumerator_get_Current_m3198942301_gshared
vU:__ZN7mecanim9animation22EvaluateAvatarRetargetEPKNS0_14AvatarConstantEPKNS0_11AvatarInputEPNS0_12AvatarOutputEPNS0_12AvatarMemoryEPNS0_15AvatarWorkspaceEb
Bob:__ZN14RenderSettings23VirtualRedirectTransferER19StreamedBinaryWriteILb0EE
pNg:__ZN6il2cpp2gc16GarbageCollector14UninitializeGCEv
seh:_XsdAllValidationState_EvaluateIsEmptiable_m3790110921
Tad:__ZL26Transfer_SimpleNativeClassI9JSONWrite10RectOffsetLb0EEvRK29SerializationCommandArgumentsR31RuntimeSerializationCommandInfo
qTg:_GC_push_conditional
v8j:_EventTrigger_OnPointerDown_m303405860
yXa:__ZN17GenericDynamicVBO10AllocateVBEjR21DynamicVBOChunkHandle
Ygl:_XmlSchemaAttributeGroup_Validate_m859228759
VXe:__ZL27PxcTestFacesSepAxesBackfaceRKN5physx2Gu13PolygonalDataES3_RKNS_2Cm8Matrix34ES7_RKNS4_23FastVertex2ShapeScalingESA_S7_RKNS_6PxVec3ERfRSB_RjPjSG_fSD_
Fun:_DBNull_ToString_m3638608738
NGg:__ZN30dense_hashtable_const_iteratorI10KeyWrapperIP18Il2CppGenericClassES3_N6il2cpp8metadata22Il2CppGenericClassHashEN14dense_hash_setIS3_S6_NS3_14EqualsComparerINS5_25Il2CppGenericClassCompareEEENSt3__29allocatorIS3_EEE8IdentityESA_SD_EppEv
wSn:_BitArray_Clone_m3537018332
ZMj:_ObjectRecord_UnchainFixup_m3191243952
Jel:_XmlSchema_SetParent_m192427842
UZl:_DefaultPolicies_get_SkipVerification_m3863779176
Oih:_XsdNCName_get_TypeCode_m477198172
W2o:_Array_InternalArray__get_Item_TisDouble_t594665363_m850827605_gshared
Hm:_glMapBufferRange
qwb:__ZN9Texture2D8TransferI18StreamedBinaryReadILb0EEEEvRT_
bXc:__Z31Input_CUSTOM_GetMouseButtonDowni
uIc:__ZN13PlayableGraph4PlayEv
LHc:__Z29AddCanvasIntermediateRendererPN2UI6CanvasEPNS_13CanvasBuffersEP17VertexDeclarationjRK10Matrix4x4ftRK4AABB4PPtrI8MaterialEi17ShadowCastingModebP6Camerab
Agc:__ZNK9Transform16GetLocalPositionEv
d9k:_MonoType_get_BaseType_m1098640416
lab:__ZN13LoadOperation19IntegrateTimeSlicedEi
fwq:_TlsStream_Read_m3392972801
nVe:__ZN5physx16PxsBroadPhaseMBP9updatePPUEPNS_10PxBaseTaskE
GTa:__ZN13GfxDeviceGLES22DispatchComputeProgramE12ObjectHandleI18ComputeProgram_TagPvE15ComputeBufferIDj
nho:_Latin1Encoding_GetString_m254210343
kNb:__Z17TransformAABBSlowRK4AABBRK10Matrix4x4fRS_
ZFl:_Array_combsort_m4052486289
Szb:__ZN15SerializeTraitsI13dynamic_arrayI12SpriteVertexLj4EEE19ResizeSTLStyleArrayERS2_i
QIa:__ZN9ShaderLab21SerializedShaderState8TransferI14SafeBinaryReadEEvRT_
NAn:_Environment_GetWindowsFolderPath_m1738399646
Xjh:_XsdTime_get_TypeCode_m3666192423
z_n:_DateTime_op_LessThan_m2497205152
_8e:__ZN5physx2Gu13RTreeMidphaseC2Ev
Btf:_cf2_stack_pushInt
mU:__ZN8Animator19FireAnimationEventsERNS_11AnimatorJobE
rxe:__ZN5physx6shdfnd8PoolBaseINS_16NpParticleSystemENS0_19ReflectionAllocatorIS2_EEE12allocateSlabEv
RSj:_CryptoConfig_EncodeOID_m2635914623
CNk:_InternalEnumerator_1_get_Current_m4293194123_AdjustorThunk
zLa:__ZN15SerializeTraitsINSt3__24pairIN4core12basic_stringIcNS2_20StringStorageDefaultIcEEEES6_EEE8TransferI24GenerateTypeTreeTransferEEvRS7_RT_
Yer:b89
mDi:_FileWebRequest_Abort_m3846575800
Oer:b81
Ner:b80
c4a:__ZN7ApiGLES19CreateSparseTextureEjj14GraphicsFormatiiiiRiS1_S1_
Aqa:__ZN18ResourceImageGroup7CleanupEv
Ser:b85
F4d:__ZN5physx2Gu36closestPtPointTetrahedronTesselationEPNS_6shdfnd3aos5Vec3VES4_S4_RjRS3_S6_
Wer:b87
iYe:__ZN5physx25PxcPCMContactSphereConvexERKNS_2Gu13GeometryUnionES3_RKNS_11PxTransformES6_RKfRNS_10PxcNpCacheERNS0_13ContactBufferE
d5j:_RemotingSurrogateSelector_GetSurrogate_m3900875713
hBk:_TlsServerCertificate_validateCertificates_m4242999387
_wk:_CertificateValidationCallback_Invoke_m1014111289
zpb:__ZN8Playable19SetOutputConnectionEPS_i
V1j:_LifetimeServices_get_RenewOnCallTime_m4192398854
Odg:__ZN15dense_hashtableINSt3__24pairIK10KeyWrapperIPK11Il2CppClassEPKcEES6_N6il2cpp5utils11PointerHashIS3_EEN14dense_hash_mapIS6_S9_SE_NS6_14EqualsComparerINS0_8equal_toIS5_EEEENS0_9allocatorISA_EEE9SelectKeyESJ_SL_EC2ERKSO_j
Yu:__ZN14SafeBinaryRead21TransferSTLStyleArrayINSt3__26vectorIN22NavMeshProjectSettings15NavMeshAreaDataENS1_9allocatorIS4_EEEEEEvRT_17TransferMetaFlags
wn:_glDeleteShader
jZo:_Array_Sort_TisChar_t3634460470_TisChar_t3634460470_m992244203_gshared
B$a:__ZN6prcoreL17RemapGenericFloatI15TexFormatRGHalf16TexFormatRGFloatEEvPKNS_9InnerInfoE
$Zo:_Array_Sort_TisUICharInfo_t75501106_m128665067_gshared
Uvf:_otv_GSUB_validate
Vkn:_RSAPKCS1SignatureDeformatter_SetHashAlgorithm_m1602190713
nle:__ZN5physx6shdfnd8PoolBaseINS_10NpMaterialENS0_19ReflectionAllocatorIS2_EEE15disposeElementsEv
Jop:_Dictionary_2_CopyToCheck_m45332585_gshared
Cll:_ConstructorInfo__cctor_m1016079270
APf:__ZN11UnityEngine15PlatformWrapper20IsRootedOrJailbrokenEv
KQc:__Z27scripting_add_internal_callPKcPKv
hen:_XmlSchemaException__ctor_m840420279
kvg:__ZN13Il2CppHashMapINSt3__24pairIPK9EventInfoP11Il2CppClassEEj17ReflectionMapHashIS7_ENS0_8equal_toIS7_EENS0_9allocatorINS1_IK10KeyWrapperIS7_EjEEEEEC2EjRKS9_RKSB_
iIg:__GLOBAL__sub_I_GarbageCollector_cpp
sPq:_RuntimeServices_EqualityOperator_m2384872086
GLl:_NameObjectCollectionBase__ctor_m682415100
gCq:_GUIStyle_get_padding_m3526264743
cnh:_XmlTextReader_MoveToAttribute_m2645062189
V4i:__Z85RuntimeInvoker_Void_t1185182177_Int32_t2950945753_Int32_t2950945753_Color_t2555686324PFvvEPK10MethodInfoPvPS4_
DXl:_ConnectionManagementSection__cctor_m2703334163
ank:_TypeData__ctor_m812170617
iN:__ZN26AnimatorControllerPlayable18SetLayerAutoWeightEv
lAq:_GUI_get_blendMaterial_m1996809730
Ic:invoke_vffff
fEc:__ZN12CubemapArrayC2E10MemLabelId18ObjectCreationMode
PKf:__ZN2UI14CanvasRenderer12SyncMaterialENS0_8SyncFlagE
R$k:_StreamWriter_Write_m1660535366
vxc:__ZZL31RegisterTrailRendererPropertiesR22GenericPropertyBindingEN36Wrapper_TrailRendererWidthMultiplier13SetFloatValueEPvf
BXg:__ZN6il2cpp2vm9Parameter30GetDefaultParameterValueObjectEPK10MethodInfoPK13ParameterInfoPb
mjo:_UTF8Encoding_GetByteCount_m4152118078
SJi:_ServicePoint_set_UseNagleAlgorithm_m1374731041
GDj:_Trigger_InArea_GameObjectIsAllowedType_m545719438
UOn:_KeyPairPersistence__CanSecure_m3516574278
Rmf:__ZN13ProduceHelperI15CapsuleColliderLb0EE7ProduceE10MemLabelId18ObjectCreationMode
VUm:_ComputeBuffer_InitBuffer_m559520312
bEj:_TriggeredBehaviour_AteUpdate_m1484803166
VUp:_Collection_1_System_Collections_IList_get_Item_m2422562729_gshared
SQh:__ZL80AuthenticationModuleElementCollection_t1161221431_CustomAttributesCacheGeneratorP21CustomAttributesCache
Cjb:__ZN12LightManager28IsLightTransformDataUpToDateEPK5Light
fM:__ZN14AnimationEvent8TransferI19StreamedBinaryWriteILb0EEEEvRT_
iL:__ZN7mecanim9animation9DenseClip8TransferI24GenerateTypeTreeTransferEEvRT_
kRm:_EventManager_Unregister_TisEventType_Updates_t3163710157_TisRuntimeObject_m86004735_gshared
zaq:_Comparison_1_Invoke_m172111447_gshared
byf:_UNITY_tt_face_done_kern
_5j:_ObjRef_GetObjectData_m270012899
NGb:__ZN14SafeBinaryRead21TransferSTLStyleArrayINSt3__26vectorI14SubstanceInputNS1_9allocatorIS3_EEEEEEvRT_17TransferMetaFlags
iDb:__ZN12BoneWeights48TransferI24GenerateTypeTreeTransferEEvRT_
Ohn:_XmlSchemaReader_GetHashCode_m3766654376
bkc:__ZNSt3__211__sift_downIRN22MotionVectorRenderLoop18RenderObjectSorterEP18RPDataMotionVectorEEvT0_S6_T_NS_15iterator_traitsIS6_E15difference_typeES6_
Dz:__ZN15HeightMeshQuery13AddHeightDataEiffPKNSt3__26vectorI14HeightMeshData13stl_allocatorIS2_L18MemLabelIdentifier76ELi16EEEEPK13dynamic_arrayI13HeightmapDataLj4EE
_9b:__Z19scripting_gc_enablev
zZk:_InternalEnumerator_1_get_Current_m2907722321_gshared
aec:__ZZ23InitPlayerLoopCallbacksvEN41InitializationPlayerUpdateTimeRegistrator7ForwardEv
oQc:__ZN11UTF16StringC2ERKS_10MemLabelId
Ikf:__ZN5physx7profile11EventBufferINS_24PxDefaultContextProviderENS_6shdfnd6MutexTINS0_26WrapperReflectionAllocatorIhEEEENS0_14ScopedLockImplIS7_EENS_24PxProfileNullEventFilterEE9stopEventEty
cno:_TimeSpan_Equals_m3956248018_AdjustorThunk
G6o:_LeanTween_tweenOnCurveVector_m2995598856
W6l:_InternalEnumerator_1_System_Collections_IEnumerator_get_Current_m3854084659_gshared
FMf:__Z55Register_UnityEngine_CanvasRenderer_DisableRectClippingv
m6l:_TermInfoDriver_CheckWindowDimensions_m3009787601
JCb:__ZN14SafeBinaryRead21TransferSTLStyleArrayI13dynamic_arrayI11ColorRGBA32Lj4EEEEvRT_17TransferMetaFlags
ljh:_XsdNonPositiveInteger_ParseValueType_m2157064807
rFk:_Callback_2_Invoke_m3781693205_gshared
xSk:_InternalEnumerator_1_get_Current_m2894466703_gshared
kOm:_Array_compare_TisRaycastResult_t3360306849_m822404090_gshared
d3m:_Object_Destroy_m3118546832
Ejq:_XmlStreamReader_Dispose_m3655811970
_2n:_DateTime_FromTicks_m4059645178_AdjustorThunk
t2o:_Array_InternalArray__get_Item_TisClientCertificateType_t1004704908_m2297379651_gshared
J$j:_ConfigHandler_ParseTime_m1787834288
zNa:__ZN9ShaderLab7Program27CreateFromSerializedProgramERKNS_17SerializedProgramE10ShaderTypeiP16PropertyNamesSetPK6Shader
gkl:_Assembly_Load_m3487507613
hmb:__ZNSt3__27__sort4IRNS_6__lessIN4core12basic_stringIcNS2_20StringStorageDefaultIcEEEES6_EEPS6_EEjT0_SA_SA_SA_T_
Var:dynCall_viiiifii
Ojq:_XmlTextReader__ctor_m2599872682
Otg:__ZN6il2cpp2gc19AppendOnlyGCHashMapINSt3__24pairIPK11Il2CppImageP11Il2CppClassEEP22Il2CppReflectionModule17ReflectionMapHashIS9_ENS2_8equal_toIS9_EEEC2Ev
Zma:__Z20GetPersistentManagerv
rBf:_UNITY_TT_Set_Var_Design
Gya:__ZN21SystemInfoStringCache16StaticInitializeEPv
aMl:_NameObjectCollectionBase_FindFirstMatchedItem_m840305173
PRp:_Collection_1__ctor_m3380123530_gshared
k3d:__ZN5physx2Sc7BodySim18internalWakeUpBaseEf
BNg:__ZN6il2cpp2gc16GarbageCollector23MakeDescriptorForObjectEPji
UJa:__ZNSt3__26vectorIN9ShaderLab20SerializedSubProgram15StructParameterENS_9allocatorIS3_EEE6assignIPS3_EENS_9enable_ifIXaasr21__is_forward_iteratorIT_EE5valuesr16is_constructibleIS3_NS_15iterator_traitsISA_E9referenceEEE5valueEvE4typeESA_SA_
xom:_KeyCollection_System_Collections_Generic_ICollectionU3CTKeyU3E_Clear_m784285364_gshared
n7b:__ZNK13MonoBehaviour7GetNameEv
IBf:_ft_var_load_item_variation_store
nOb:__ZN19ScriptingInvocation28AdjustArgumentsToMatchMethodEv
ZGg:__ZN15dense_hashtableI10KeyWrapperIP18Il2CppGenericClassES3_N6il2cpp8metadata22Il2CppGenericClassHashEN14dense_hash_setIS3_S6_NS3_14EqualsComparerINS5_25Il2CppGenericClassCompareEEENSt3__29allocatorIS3_EEE8IdentityESA_SD_E6insertERKS3_
W1:__Z15_CheckFMODError11FMOD_RESULTPKciS1_
ZQo:_Enumerator_MoveNext_m323331155_gshared
Skb:__Z20RenderMultipleMeshesRK15RenderNodeQueueRK18RenderMultipleData17ShaderChannelMask
qfq:_XmlNode_CheckNodeInsertion_m2455978936
Dmp:_Dictionary_2_System_Collections_IDictionary_Contains_m877129844_gshared
_yp:_HMAC_KeySetup_m661741544
Igo:_Latin1Encoding__ctor_m498920120
Dpp:_Dictionary_2_CopyToCheck_m39009926_gshared
Cog:__ZN6il2cpp2vm4Type19GetGenericParameterEPK10Il2CppType
v$k:_StreamReader_Peek_m2272511193
Mic:__ZNSt3__26__sortIRNS_6__lessI11CulledLightS2_EEPS2_EEvT0_S6_T_
eMf:__Z51Register_UnityEngine_CanvasGroup_get_blocksRaycastsv
iyf:_tt_cmap14_char_var_index
MZi:__Z64RuntimeInvoker_Int32_t2950945753_RuntimeObject_SByte_t1669577662PFvvEPK10MethodInfoPvPS4_
s7e:__ZN5physx13BigConvexData5VLoadERNS_13PxInputStreamE
Qkm:_Enumerator_get_Current_m3658857563_AdjustorThunk
Qqq:_ConfigurationElementCollection_BaseRemoveAt_m1867305933
epo:_Type_GetConstructor_m1195697116
Me:_glBeginQuery
EWf:_CrossPlatformInputManager_RegisterVirtualAxis_m3479801628
UD:__ZN18AnimatorController19TransferRuntimeDataI24GenerateTypeTreeTransferEEvRT_
lRg:__ZN6il2cpp2vmL9ends_withEPKcS2_
tPq:_RuntimeServices_EqualityOperator_m2541246096
uNe:__ZN5physx11NodeManager6resizeEj
mLd:__ZN10Effector2D25CheckEffectorColliderMaskEP10Collider2DS1_
Bfc:__ZN6Camera12RenderStereoENS_10RenderFlagE8CullFlagPNS_24PerformEyeRenderFunctionE
VQe:__ZN5physx25PxcGetMaterialHeightFieldEPKNS_12PxsShapeCoreEjRNS_18PxcNpThreadContextEPNS_15PxsMaterialInfoE
qRb:__ZN20LocalFileSystemPosix10ToAbsoluteEPKc
Hkb:__ZN20TierGraphicsSettings8TransferI19StreamedBinaryWriteILb0EEEEvRT_
Phr:b111
UWo:_List_1_CheckIndex_m581273900_gshared
lya:__GLOBAL__sub_I_runtime_input_0_cpp
gQg:__ZN6il2cpp2vm13ComObjectBase16DisconnectObjectEj
UGe:__ZNK5physx7NpScene28getSceneQueryStaticTimestampEv
iH:__ZN14AnimationState19SetupUnstoppedStateEv
D5q:_getcwd
dhf:__ZNSt3__26vectorI9CollisionNS_9allocatorIS1_EEE21__push_back_slow_pathIKS1_EEvRT_
xEd:__ZN16b2CapsuleContact6CreateEP9b2FixtureiS1_iP16b2BlockAllocator
x9a:__ZN25ThreadsafeLinearAllocatorD2Ev
Grl:_ILGenerator_Emit_m3083135129
SPc:__ZL50GetAndClearChangedTransformsForMultilpleSystemsJobP45GetChangedTransformsForMultipleSystemsJobDatajPK23TransformAccessReadOnlyPKyj
VOe:__ZN5physx2Sq10AABBPruner11preallocateEj
BMb:__Z21SendMessageToEveryoneRK17MessageIdentifier11MessageData
ZCa:__ZN21BillboardBatchManager16StaticInitializeEPv
Yhr:b117
F_n:_DateTime_AbsoluteDays_m4235097773
Tza:__ZN12_GLOBAL__N_138ArchiveRedirectFileSystemStaticDestroyEPv
OLi:__Z74RuntimeInvoker_RuntimeObject_RuntimeObject_RuntimeObject_SByte_t1669577662PFvvEPK10MethodInfoPvPS4_
$gp:_Array_InternalArray__ICollection_CopyTo_TisNsDecl_t3938094415_m2655361531_gshared
Pjh:_XsdShort_Compare_m1538926388
Fub:__ZN12CubemapArray34UpdateFileTextureUploadInstructionEP26FileAssetUploadInstructionj
tEe:__ZN5physx2Sc19ShapeInstancePairLLC2ERNS0_8ShapeSimES3_RNS0_9ActorPairENS_7PxFlagsINS_10PxPairFlag4EnumEtEE
i$i:__Z105RuntimeInvoker_Void_t1185182177_RuntimeObject_RuntimeObject_RuntimeObject_Int32_t2950945753_RuntimeObjectPFvvEPK10MethodInfoPvPS4_
D1f:_Tonemapping_OnRenderImage_m3080456075
Cil:_XmlSchemaComplexType_ValidateContentModel_m3099040528
b4a:__Z23CreateSparseTextureGLES9TextureIDii14GraphicsFormati
Awf:_otv_Anchor_validate
OFi:_FtpWebResponse__ctor_m3273086612
jJp:_List_1_CheckIndex_m1185871911_gshared
Sxd:__Z17UpdateSprites2TplIL27ParticleSystemCurveEvalMode1ELS0_1EEvfRK11MinMaxCurveS3_RK23ParticleSystemParticlesPf
s1m:_Matrix4x4_MultiplyPoint3x4_m4145063176
ABn:_CCMath_mod_m3631663509
rno:_TimeSpan_Negate_m1889505500_AdjustorThunk
p5p:_ReadOnlyCollection_1_System_Collections_ICollection_CopyTo_m2715087453_gshared
_Mh:__ZL121XmlSchemaComplexType_t3740801802_CustomAttributesCacheGenerator_XmlSchemaComplexType_t3740801802____Particle_PropertyInfoP21CustomAttributesCache
_Ef:__ZNSt3__23mapIN20TextRenderingPrivate7FontRefEP11FT_FaceRec_NS_4lessIS2_EENS_9allocatorINS_4pairIKS2_S4_EEEEEixERS9_
Rbb:__ZN17ArchiveFileSystem10AddStorageEP20ArchiveStorageReader
ete:__ZN5physx2Sc9ClothCore16setStretchConfigENS_22PxClothFabricPhaseType4EnumERKNS_20PxClothStretchConfigE
oxd:__Z19UpdateSingleRow2TplIL27ParticleSystemCurveEvalMode4ELS0_1EEvfRK11MinMaxCurveS3_RK23ParticleSystemParticlesPfbiii
gsd:__ZN9SubModule8TransferI19StreamedBinaryWriteILb0EEEEvRT_
DPl:_EnumConverter_ConvertFrom_m1625779591
Cmf:_PxCreateFoundation
gBd:__ZNK12b2MotorJoint16GetReactionForceEf
yPq:_RuntimeServices_UnboxSingle_m2705046659
Qbg:__ZN6il2cpp2vm5Class15GetEnumBaseTypeEP11Il2CppClass
oBq:_GUILayoutGroup__ctor_m3245996524
$zk:_Context_set_WriteSequenceNumber_m942577065
rf:_glVertexAttrib4fv
qah:_XmlTextReader_InitializeContext_m2462395792
ydk:_CanvasScaler_SetScaleFactor_m3006968999
Koj:__Z78RuntimeInvoker_Boolean_t97287965_Navigation_t3049316579_Navigation_t3049316579PFvvEPK10MethodInfoPvPS4_
Hvb:__ZNK9Texture2D16GetNpotTexelSizeEv
mal:_NumberFormatter_Init_m3576155222
nbb:__ZL33FileEntryInfoListToFolderContentsRKN4core12basic_stringIcNS_20StringStorageDefaultIcEEEERK19dynamic_block_arrayI13FileEntryInfoLj32EERNSt3__23setIS3_NSB_4lessIS3_EENSB_9allocatorIS3_EEEE
Bzm:_LayoutUtility_GetLayoutProperty_m714717302
zXi:__Z71RuntimeInvoker_RuntimeObject_RuntimeObject_StreamingContext_t3711869237PFvvEPK10MethodInfoPvPS4_
fnm:_KeyCollection__ctor_m3374520250_gshared
Uld:__Z20EvaluateSlowThreadedRK11MinMaxCurveRNS_5CacheERKN4math7_float4ES7_
fTn:_CollectionBase_System_Collections_IList_get_Item_m3743372945
_Cg:__ZN6il2cpp2vm9Exception18GetSystemExceptionEv
NQa:__ZN9GfxDevice22GetDefaultVertexBufferE26GfxDefaultVertexBufferTypej
HIm:_Array_InternalArray__ICollection_Contains_TisInt64_t3736567304_m2911357929_gshared
E$m:_Material_INTERNAL_CALL_SetColorImpl_m4283161378
I2c:__Z39Register_UnityEngine_GL_ClearWithSkyboxv
gVp:_Collection_1_Remove_m3022471627_gshared
V5q:___fseeko_unlocked
Uil:_Object_ToString_m1740002499
N5q:_sscanf
r_d:__ZN5physx3Cct17CapsuleControllerC2ERKNS_16PxControllerDescERNS_9PxPhysicsEPNS_7PxSceneE
WCb:__ZN14SafeBinaryRead21TransferSTLStyleArrayINSt3__26vectorI17BlendShapeChannelNS1_9allocatorIS3_EEEEEEvRT_17TransferMetaFlags
Zac:__Z17BeginSplashScreenv
imp:_Array_Resize_TisUILineInfo_t4195266810_m3763058392_gshared
fSj:_SByte_ToString_m3584531119_AdjustorThunk
rhm:_Enumerator_System_Collections_IEnumerator_get_Current_m2436830876_gshared
qMa:__ZN9ShaderLab16SerializedShader8TransferI19StreamedBinaryWriteILb0EEEEvRT_
SW:__ZN7mecanim9animation18CreateAvatarMemoryEPKNS0_14AvatarConstantERNS_6memory9AllocatorE
itk:_ModulusRing__ctor_m2420310199
L_n:_Convert_ToDateTime_m626620011
pYf:_MobileInput_AddButton_m1457048403
RYn:_ConsoleKeyInfo_SetModifiers_m223200508_AdjustorThunk
Cjm:_Enumerator_System_Collections_IDictionaryEnumerator_get_Key_m2500634048_AdjustorThunk
Yxd:__Z17UpdateSprites2TplIL27ParticleSystemCurveEvalMode2ELS0_4EEvfRK11MinMaxCurveS3_RK23ParticleSystemParticlesPf
EV:__ZN7mecanim8skeleton16SkeletonPoseCopyIN4math4trsXENS2_7affineXEEEvPKNS0_13SkeletonPoseTIT_EEPNS5_IT0_EE
gXa:__ZN18GfxFramebufferGLES18GetFramebufferNameERK20GfxRenderTargetSetup
KTg:_GC_print_block_list
Rng:__ZN6il2cpp2vm14TypeNameParser12ParseVersionERKNSt3__212basic_stringIcNS2_11char_traitsIcEENS2_9allocatorIcEEEERtSB_SB_SB_
Kmk:_XmlSchemaUtil_AttributeWildcardItemValid_m34123625
Pwm:_InputField_MoveDown_m1455948167
z6c:__Z30Event_Get_Custom_PropCharacterP12Il2CppObject
MEa:__ZN13PlayableGraph27SchedulePlayableDestructionERK9HPlayable
Lvf:_cff_get_mm_var
CWd:__ZN5physx6shdfnd5ArrayINS_12PxDebugPointENS0_19ReflectionAllocatorIS2_EEE15growAndPushBackERKS2_
nfr:_glGetFramebufferAttachmentParameteriv__wrapper
B_j:_ChannelServices_GetCurrentChannelInfo_m3041604116
rSf:__Z13RegisterClassI20UnityConnectSettingsEvv
Fti:__ZL61GlobalFog_t900542613_CustomAttributesCacheGenerator_heightFogP21CustomAttributesCache
mVb:__Z22scripting_array_length17ScriptingArrayPtr
vef:__ZN8Collider13AwakeFromLoadE17AwakeFromLoadMode
Vuk:_HMAC_set_Key_m3535779141
Sub:__ZN14SafeBinaryRead20TransferTypelessDataEjPvi
xCe:__ZN5physx6shdfnd13ReadWriteLockC2Ev
sFb:__ZN14SpriteRenderer18UpdateCachedSpriteEb
S_i:__Z82RuntimeInvoker_IntPtr_t_Int32_t2950945753_SByte_t1669577662_RuntimeObject_IntPtr_tPFvvEPK10MethodInfoPvPS4_
Idr:b34
Caa:__ZN13dynamic_arrayI12SoundChannelLj4EE9push_backERKS0_
nva:__Z19GetActiveColorSpacev
rrd:__ZN17SizeBySpeedModule8TransferI18StreamedBinaryReadILb0EEEEvRT_
E_l:_Site__ctor_m1500805961
Dxf:_UNITY_tt_face_load_kern
DUj:_MonoMethodInfo_GetDeclaringType_m2924452727
kcc:__ZN13sorted_vectorINSt3__24pairIiN17InstancingBatcher12PropertyTypeEEEN10vector_mapIiS3_NS0_4lessIiEE13stl_allocatorIS4_L18MemLabelIdentifier1ELi16EEE13value_compareESA_E21sort_clear_duplicatesEv
ugn:_XmlSchemaObject_CopyInfo_m2964206326
Cbp:_LTDescrImpl_set_onUpdateVector3Object_m1460904572
LLf:__ZZN2UI14CanvasRenderer15InitializeClassEvEN38FunctorImpl_909kCanvasHierarchyChanged4CallEPviR11MessageData
Ppa:__Z6StrCmpPKcS0_
HOa:__Z21CheckGpuProgramUsable20ShaderGpuProgramType
CCc:__ZN13ProduceHelperI14Texture2DArrayLb0EE7ProduceE10MemLabelId18ObjectCreationMode
GMg:__ZN6il2cpp2os9Directory20GetFileSystemEntriesERKNSt3__212basic_stringIcNS2_11char_traitsIcEENS2_9allocatorIcEEEESA_iiPi
csm:_ShimEnumerator_MoveNext_m3662031441_gshared
KEl:_Array_System_Collections_IList_Add_m1063688101
Ohe:__ZN5physx6shdfnd5ArrayIPvNS0_19ReflectionAllocatorINS_2Cm5BlockIhLj128EEEEEE4copyINS0_15InlineAllocatorILj256ES7_EEEEvRKNS1_IS2_T_EE
iEf:__ZN20TextRenderingPrivate19NativeTextGenerator5SetupEv
Hmc:__ZNK15SharedLightData24GetFinalShadowResolutionEv
tle:__ZN5physx6shdfnd8PoolBaseINS_16NpConnectorArrayENS0_19ReflectionAllocatorIS2_EEE15disposeElementsEv
XJb:__ZN12AspectRatios8TransferI18StreamedBinaryReadILb0EEEEvRT_
Cnf:__ZN14PhysicsManager19CreatePvdConnectionEv
l0n:_Convert_ToInt64_m3916071102
xHc:__ZN10GameObject14CopyPropertiesERS_
N7c:__Z44Register_UnityEngine_GUIStyle_get_fixedWidthv
kKm:_Array_InternalArray__ICollection_Remove_TisLink_t544317964_m1280781374_gshared
ZGl:_BitConverter_DoubleWordsAreSwapped_m1474345095
e8i:__Z114RuntimeInvoker_Int32_t2950945753_Vector2_t2156229523_Vector2_t2156229523_ContactFilter2D_t3805203441_RuntimeObjectPFvvEPK10MethodInfoPvPS4_
izb:__ZNK13ScreenManager12IsFullScreenEv
qRn:_FixedSizeArrayListWrapper_set_Capacity_m4221053039
o6q:_rand
Rfr:_emscripten_glFramebufferRenderbuffer__wrapper
MMc:__ZN13MeshScripting10CreateMeshE21ScriptingObjectOfTypeI4MeshE
Cke:__ZNK5physx12NpConstraint9getActorsERPNS_12PxRigidActorES3_
rGm:_Slider_FindSelectableOnLeft_m1667068522
V4m:_Quaternion_INTERNAL_CALL_Internal_ToEulerRad_m1913372122
iWb:__ZN14SafeBinaryRead21TransferSTLStyleArrayINSt3__26vectorI17AnimationCurveTplIfE13stl_allocatorIS4_L18MemLabelIdentifier1ELi16EEEEEEvRT_17TransferMetaFlags
VRn:_SynchronizedArrayListWrapper_Contains_m3809499313
CWl:_ChunkStream_ReadFromChunks_m2517119044
X9e:__ZN5physx6shdfnd8PoolBaseIN17PxcPoolMallocData10PoolData16ENS0_19ReflectionAllocatorIS3_EEE15disposeElementsEv
Ydf:__ZN9Rigidbody23UpdateInterpolationNodeEv
Ssq:_ConfigurationValidatorAttribute_get_ValidatorInstance_m2184650311
xmn:_SymmetricAlgorithm_set_IV_m3196220308
bpc:__Z22PrepareOptimizedPlanesPK5PlaneiPKN4math7_float4E
Uwj:_DelayedInvoker_InvokeCallbacks_m1705189907
Aja:__ZN11UnityEngine15CloudWebService17WebFileDownloaderINS0_20WebRequestRestClientENS0_23WebRequestRestHeaderMapEE10InitializeERKN4core12basic_stringIcNS5_20StringStorageDefaultIcEEEE
XCa:__ZN17UniqueIDGenerator15CreatePureIndexEv
eG:__ZN11UnityEngine9Animation28GenericAnimationBindingCache15DidReloadDomainEv
$br:dynCall_fiifi
Fdr:b31
ktq:_ExeConfigurationHost_InitForConfiguration_m2698528531
dCb:__ZN16BlitStereoHelper16PrepareEyeRenderEiRK19ShaderPropertySheetRS0_bRK8Vector2fS6_14VRTextureUsage
vFe:__ZN5physx7NpScene8addActorERNS_7PxActorE
NKb:__ZNSt3__26vectorIN15ResourceManager10DependencyE13stl_allocatorIS2_L18MemLabelIdentifier52ELi16EEE6assignINS_11__wrap_iterIPS2_EEEENS_9enable_ifIXaasr21__is_forward_iteratorIT_EE5valuesr16is_constructibleIS2_NS_15iterator_traitsISC_E9referenceEEE5valueEvE4typeESC_SC_
pF:__ZN19StreamedBinaryWriteILb0EE8TransferIN7mecanim9animation23BlendDirectDataConstantEEEvRT_PKc17TransferMetaFlags
blh:_XsdValidatingReader_get_Value_m1079312851
cbg:__ZN15dense_hashtableINSt3__24pairIK10KeyWrapperIPK22Il2CppGenericParameterEP11Il2CppClassEES6_N6il2cpp5utils11PointerHashIS4_EEN14dense_hash_mapIS6_S9_SE_NS6_14EqualsComparerINS0_8equal_toIS5_EEEENS0_9allocatorISA_EEE9SelectKeyESJ_SL_E14squash_deletedEv
Lrb:__ZN9ShaderLabL27GetDesiredRenderTextureDescEPK6Camera
XCd:__ZNK12b2MouseJoint17GetReactionTorqueEf
i1g:_WebConnectionStream_get_CanRead_m3058525165
SZa:__ZN6prcoreL29inner_stretch_rgb565_bilinearEPKNS_9InnerInfoE
SFc:__ZZL23RegisterLightPropertiesR22GenericPropertyBindingEN18Wrapper_LightRange13SetFloatValueEPvf
Dhm:_Enumerator_System_Collections_IDictionaryEnumerator_get_Value_m3440202777_gshared
OK:__ZN14SafeBinaryRead21TransferSTLStyleArrayI13dynamic_arrayI11KeyframeTplI11QuaternionfELj4EEEEvRT_17TransferMetaFlags
y3o:_Array_InternalArray__get_Item_TisNsScope_t3958624705_m3796816205_gshared
z4j:_MethodReturnDictionary__cctor_m278392388
T_f:_CameraMotionBlur_GetTmpCam_m490925305
Hma:__ZNK9Transform18TransformDirectionERK8Vector3f
Q5e:__ZN5physx21PxsBodyTransformVault6updateEv
K0d:__ZThn12_N5physx3Ext5JointINS_15PxDistanceJointENS_30PxDistanceJointGeneratedValuesEE19onConstraintReleaseEv
lwf:_otv_MarkLigPos_validate
WLn:_PrimalityTests_RabinMillerTest_m1471415870
wOd:__ZL29GeomMTDCallback_CapsuleConvexRN5physx6PxVec3ERfRKNS_10PxGeometryERKNS_11PxTransformES5_S8_
ZLk:_InternalEnumerator_1_get_Current_m2488682845_gshared
Yuo:_Enumerator_get_Current_m700063073_AdjustorThunk
Ghg:__ZN15dense_hashtableINSt3__24pairIK10KeyWrapperIPK11Il2CppClassEPKcEES6_N6il2cpp5utils11PointerHashIS3_EEN14dense_hash_mapIS6_S9_SE_NS6_14EqualsComparerINS0_8equal_toIS5_EEEENS0_9allocatorISA_EEE9SelectKeyESJ_SL_E12resize_deltaEjj
qv:__ZNSt3__26vectorIN22NavMeshProjectSettings15NavMeshAreaDataENS_9allocatorIS2_EEE8__appendEj
ntk:_Kernel_LeftShift_m4140742987
Ujl:_Assembly_GetManifestResourceInternal_m1224391897
CXa:__Z30AddDefaultStreamsToMeshBuffersR9GfxDeviceR11MeshBuffersj17ShaderChannelMaskS3_
Cza:__ZL16GetInterfaceImpl18UnityInterfaceGUID
hcg:__ZN6il2cpp2vmL17SetupFieldOffsetsENS0_15FieldLayoutKindEP11Il2CppClassjRKNSt3__26vectorIjNS4_9allocatorIjEEEE
UK:__ZNSt3__26vectorIN13AnimationClip15QuaternionCurveE13stl_allocatorIS2_L18MemLabelIdentifier26ELi16EEE10deallocateEv
kOc:__Z15AngularDistanceRK11QuaternionfS1_
B2f:_FOVKick_FOVKickUp_m3024089749
XPg:__ZN6il2cpp6icalls8mscorlib6System15MonoCustomAttrs27GetCustomAttributesInternalEP12Il2CppObjectP20Il2CppReflectionTypeb
cWk:_InternalEnumerator_1_get_Current_m1408339225_AdjustorThunk
OBf:_UNITY_TT_Set_MM_Blend
mya:__GLOBAL__sub_I_runtime_math_random_0_cpp
kbc:__ZN14PreloadManager35WaitForAllAsyncOperationsToCompleteEv
Nye:__ZN5physx14NpRigidDynamicC2ERKNS_11PxTransformE
jSd:__Z27sweepCCTBox_HeightFieldGeomRKN5physx10PxGeometryERKNS_11PxTransformERKNS_2Gu3BoxERKNS_6PxVec3EfRNS_10PxSweepHitENS_7PxFlagsINS_9PxHitFlag4EnumEtEEf
D3:__ZL31InitializeAudioScriptingClassesv
Rgh:_XsdGMonth_ParseValueType_m15842391
vgc:__Z14SortGUIByDepthP10GUIElementS0_
_Lh:__ZL103XmlSchema_t3742557897_CustomAttributesCacheGenerator_XmlSchema_t3742557897____FinalDefault_PropertyInfoP21CustomAttributesCache
tjd:__Z19UpdateProceduralTplIL27ParticleSystemCurveEvalMode0EEvRK20DualMinMaxPolyCurvesR23ParticleSystemParticlesPfRKN4math7_float4E
pW:__ZN12_GLOBAL__N_120ProcessRootMotionMixER33AnimationPlayableEvaluationOutputR35AnimationPlayableEvaluationConstantR32AnimationPlayableEvaluationInputS1_f
eXq:_UriParser__cctor_m3655686731
eOd:__ZN5physx3Cct9SweepTest18updateTouchedGeomsEPKNS0_30InternalCBData_FindTouchedGeomERKNS0_13UserObstaclesERKNS_17PxExtendedBounds3ERKNS_19PxControllerFiltersERKNS_6PxVec3E
$$m:_Material_SetColor_m355160541
rzm:_LayoutRebuilder_U3Cs_RebuildersU3Em__0_m589488547
ywp:_EqualityComparer_1__cctor_m3269975279_gshared
Pkf:_PxCloseExtensions
SRb:__ZNK20LocalFileSystemPosix21GetAvailableDiskSpaceEPKcRy
Mya:__ZNSt3__26__treeIiNS_4lessIiEENS_9allocatorIiEEE7destroyEPNS_11__tree_nodeIiPvEE
gQa:__ZNK9GfxDevice14GetWorldMatrixEv
Weo:_ASCIIEncoding_GetMaxCharCount_m3025651522
uWf:_ThirdPersonCharacter__ctor_m567285248
L5f:_Transform_set_parent_m786917804
gQb:__Z19scripting_array_new17ScriptingClassPtrjj
Y$n:_Convert_ToInt32_m2128774575
qaa:__ZN11SoundHandle13CreateChannelEb
LJo:_GenericEqualityComparer_1_Equals_m1942949784_gshared
hxb:__ZN14SafeBinaryRead21TransferSTLStyleArrayI13dynamic_arrayI12LightmapDataLj4EEEEvRT_17TransferMetaFlags
BKa:__ZNSt3__26vectorIN9ShaderLab20SerializedSubProgram16TextureParameterENS_9allocatorIS3_EEE6assignIPS3_EENS_9enable_ifIXaasr21__is_forward_iteratorIT_EE5valuesr16is_constructibleIS3_NS_15iterator_traitsISA_E9referenceEEE5valueEvE4typeESA_SA_
hgg:__ZN13Il2CppHashMapIN6il2cpp5utils13dynamic_arrayIPK10Il2CppTypeLj4EEEPFvvENS0_8metadata19Il2CppSignatureHashENS9_22Il2CppSignatureCompareENSt3__29allocatorINSC_4pairIK10KeyWrapperIS6_ES8_EEEEEC2EjRKSA_RKSB_
aYc:__Z51Quaternion_CUSTOM_INTERNAL_CALL_Internal_ToEulerRadRK11QuaternionfR8Vector3f
uug:__ZN15dense_hashtableINSt3__24pairIK10KeyWrapperIPK22Il2CppGenericParameterEPK24MonoGenericParameterInfoEES6_N6il2cpp5utils11PointerHashIS4_EEN14dense_hash_mapIS6_SA_SF_NS6_14EqualsComparerINS0_8equal_toIS5_EEEENS0_9allocatorISB_EEE9SelectKeyESK_SM_E15set_deleted_keyERKSB_
dSj:_SByte_TryParse_m2431806379
klo:_Thread_set_IsBackground_m3868016371
Wxc:__ZN6prcoreL11inner_clearILj2EEEvPhjjj
e2f:_CameraRefocus_SetFocusPoint_m2276275782
Wsi:__ZL57BloomAndFlares_t2848767628_CustomAttributesCacheGeneratorP21CustomAttributesCache
hCd:__ZN12b2WheelJoint24SolvePositionConstraintsERK12b2SolverData
Ix:__ZNK14NavMeshManager25GetLoadedNavMeshDataCountEv
Sse:__ZNK5physx2Sc9ClothCore20getNbCollisionPlanesEv
ei:_emscripten_exit_fullscreen
ZIf:__ZN2UI11CanvasGroup23VirtualRedirectTransferER18StreamedBinaryReadILb0EE
W7e:__ZNK5physx13GuMeshFactory17getNbHeightFieldsEv
Fnf:__ZN14PhysicsManager19CreateDynamicsSceneEbb14BroadphaseType16ContactPairsModeRK4AABBi
Til:_Object_MemberwiseClone_m1474068832
Uuo:_Enumerator_Dispose_m2412849637_AdjustorThunk
fLg:__ZN6il2cpp6icalls8mscorlib6System6String19InternalAllocateStrEi
sfd:__Z29Transfer_Blittable_ArrayFieldI8JSONRead11QuaternionfEvRT_R9ArrayInfoRK23StaticTransferFieldInfo
sFl:_Array_SetValue_m282347242
hPe:__ZNK5physx2Gu12OBBAABBTestsILb1EEclENS_6shdfnd3aos5Vec3VES5_
Pjg:__ZN6il2cpp6icalls6System6System3Net7Sockets6Socket8ShutdownEiNS4_14SocketShutdownEPi
ZTc:__Z45Register_UnityEngine_Camera_get_targetDisplayv
SEc:__ZNK24RendererAnimationBinding15GenerateBindingERKN4core12basic_stringIcNS0_20StringStorageDefaultIcEEEEbRN11UnityEngine9Animation14GenericBindingE
ukq:_XmlTextReader_CopyProperties_m12151598
Qgc:__Z15GetFlareManagerv
zNd:__ZN5physx3Cct9SweepTestD2Ev
GT:__ZN8Animator13GetAvatarRootEv
Xyo:_ValueCollection__ctor_m1544938729_gshared
r9b:__ZNSt3__26vectorI10vector_mapIiiNS_4lessIiEE13stl_allocatorINS_4pairIiiEEL18MemLabelIdentifier38ELi16EEES4_IS9_LS7_38ELi16EEE26__swap_out_circular_bufferERNS_14__split_bufferIS9_RSA_EE
xgm:_Enumerator_System_Collections_IDictionaryEnumerator_get_Entry_m1355283127_gshared
Lsk:_BigInteger_get_Rng_m3283260184
NSh:__ZL110WebProxy_t2016760542_CustomAttributesCacheGenerator_WebProxy_t2016760542____UseDefaultCredentials_PropertyInfoP21CustomAttributesCache
M$:__ZN8Animator22ScriptingStringToCRC32ERK11ICallString
rW:__ZN7mecanim9animation16EvaluateAvatarDXEPKNS0_14AvatarConstantEPKNS0_11AvatarInputEPNS0_12AvatarMemoryEPNS0_15AvatarWorkspaceEPNS0_12AvatarOutputE
x2a:__ZN4gles20DestroyRenderSurfaceEP7ApiGLESP17RenderSurfaceGLES
Q2o:_Array_InternalArray__get_Item_TisKeyValuePair_2_t2530217319_m2886833132_gshared
qEm:_ScrollRect_OnEndDrag_m3202230060
MLg:__ZN6il2cpp2os6Thread4JoinEj
_0c:__Z34Transform_CUSTOM_SetAsFirstSiblingP12Il2CppObject
csd:__ZN21RotationBySpeedModule8TransferI19StreamedBinaryWriteILb0EEEEvRT_
Ewm:_InputField_Delete_m3471899192
O_j:_RemotingConfiguration_get_ProcessId_m2180277012
Cpn:_IsolatedStoragePermission_FromXml_m350209472
yta:__ZN17PersistentManager40GlobalToLocalSerializedFileIndexInternalERK26SerializedObjectIdentifier
xga:__ZN11UnityEngine15CloudWebService17SessionEventQueue14ParseEventDataERKN4core12basic_stringIcNS2_20StringStorageDefaultIcEEEE
TUl:_DeflateStream_UnmanagedWrite_m2215906742
zrf:__Z62Register_UnityEngine_CharacterController_INTERNAL_get_velocityv
cke:__ZN12GeomQueryAnyIN5physx10PxSweepHitEE7geomHitERKNS0_2Sq17SceneQueryManagerERKNS0_15MultiQueryInputERKNS3_9ShapeDataERKNS0_10PxGeometryERKNS0_11PxTransformENS0_7PxFlagsINS0_9PxHitFlag4EnumEtEEjPS1_fbPNS0_9PxBounds3E
vso:_Transform_1_BeginInvoke_m4058251461_gshared
GVa:__ZN13TranslateGLES4InitERK12GraphicsCaps16GfxDeviceLevelGL
BQd:__ZN43CapsuleHeightfieldContactGenerationCallback7onEventEjPj
Dgf:__ZThn4_N12MemoryStream4readEPvj
rIn:_Int64_System_IConvertible_ToUInt16_m848637338_AdjustorThunk
keo:_Uri_get_PathAndQuery_m2396197970
CXg:__ZN6il2cpp5utils9Exception26FormatInvalidCastExceptionEPK11Il2CppClassS4_
HPm:_Array_InternalArray__IndexOf_TisLink_t544317964_m455584088_gshared
QMp:_Enumerator_get_Current_m2282646120_AdjustorThunk
d5p:_ReadOnlyCollection_1_IndexOf_m2539022912_gshared
Cti:__ZL63GlobalFog_t900542613_CustomAttributesCacheGenerator_distanceFogP21CustomAttributesCache
rli:__ZL66Selectable_t3250028441_CustomAttributesCacheGenerator_m_TransitionP21CustomAttributesCache
jYg:__ZN6il2cpp2os6Memory12AlignedAllocEjj
YGm:_Text_set_alignByGeometry_m3828822280
wRg:__ZN6il2cpp8metadataL7CompareEPK10Il2CppTypeS3_
CKl:_HybridDictionary__ctor_m1681134385
Ez:__ZN13sorted_vectorINSt3__24pairIiN14NavMeshManager15SurfaceInstanceEEEN10vector_mapIiS3_NS0_4lessIiEE13stl_allocatorIS4_L18MemLabelIdentifier76ELi16EEE13value_compareESA_E14find_or_insertIiS3_EEvRPT0_RKT_
eTl:_ConfigurationException__ctor_m3251818005
jsa:__ZN21ScalableBufferManager11GetInstanceEv
F4b:__Z18Transfer_BlittableI18StreamedBinaryReadILb0EELb1E10ColorRGBAfEvRK29SerializationCommandArgumentsR31RuntimeSerializationCommandInfo
Kno:_TimeSpan_op_LessThan_m1594498345
TQc:__ZL27GetComponentsImplementationILb0ELi0EEbR10GameObjectbRK17CompareParametersRK39GetComponentsImplementation_ReturnValue
$7b:__ZN9Scripting36IsSystemCollectionsGenericDictionaryE17ScriptingClassPtr
HFq:_UnityEvent_1_FindMethod_Impl_m322741469_gshared
K0m:_Mathf_LerpAngle_m295352085
Quo:_Enumerator_System_Collections_IEnumerator_get_Current_m882460019_AdjustorThunk
Oie:__ZN5physx12NpConstraint12actorDeletedEPNS_12PxRigidActorE
x6f:_Enumerator_get_Current_m2591725252
cra:__ZL16ReadTypeTreeImplILb0EEbR8TypeTreeRK16TypeTreeIteratorRPKhS6_i
y6n:_Interval_Contains_m110351300_AdjustorThunk
S$n:_Convert_ToInt32_m3048308591
SF:__ZN25RuntimeAnimatorControllerD2Ev
r4n:_DateTimeOffset_Equals_m3030958070
y1d:__ZN5physx2Sc8ShapeSim18reinsertBroadPhaseEv
Sob:__ZNK22BuiltinResourceManager21GetResourceInstanceIDEPKN5Unity4TypeERKN4core12basic_stringIcNS4_20StringStorageDefaultIcEEEE
QWc:__Z42Register_UnityEngine_RectOffset_set_bottomv
gCo:_Dictionary_2_Resize_m461958433_gshared
LHi:_HttpWebResponse_ReadAll_m677937028
Aic:__ZN28LightProbeProxyVolumeContext8CopyFromERKS_
p6p:_ReadOnlyCollection_1_System_Collections_Generic_IListU3CTU3E_Insert_m2489506856_gshared
Owa:__ZN23TransformChangeDispatch32QueueTransformChangeIfHasChangedER18TransformHierarchy
OJn:_SimpleCollator_ToDashTypeValue_m6184468
G8i:__Z105RuntimeInvoker_RuntimeObject_Vector3_t3722313464_Vector3_t3722313464_Single_t1397266774_Int32_t2950945753PFvvEPK10MethodInfoPvPS4_
y2a:__ZN7ApiGLES18DeleteRenderbufferERj
i5d:__ZN5physx6shdfnd5ArrayIPvNS0_15InlineAllocatorILj256ENS0_19ReflectionAllocatorINS_16NpConnectorArrayEEEEEE15growAndPushBackERKS2_
a1a:__ZL23ProgramUniformMatrix4fvPK7ApiGLESjiihPKv
H2a:__ZN7ApiGLES13CreateTextureEjj14GraphicsFormatiiiii
cGl:_Array_new_gap_m262136975
UWe:__ZN5physx14SingleAABBTaskC2Ev
fKa:__ZN9ShaderLab20SerializedSubProgram15MatrixParameter8TransferI14SafeBinaryReadEEvRT_
oGl:_Array_CopyTo_m3358199659
dEj:_TriggeredBehaviour_DataReset_m3959154192
VQc:__ZL27GetComponentsImplementationILb0ELi1EEbR10GameObjectbRK17CompareParametersRK39GetComponentsImplementation_ReturnValue
h5g:_X509Store__ctor_m275383717
f5f:_Transform_INTERNAL_get_position_m1310184257
Dcf:__ZN5physx12storeIndicesEjjPKjRNS_14PxOutputStreamEb
t3a:__ZN13RenderTexture7ReleaseEv
Rcd:__Z18Transfer_BlittableI8JSONReadLb1EN4math12int3_storageEEvRK29SerializationCommandArgumentsR31RuntimeSerializationCommandInfo
dEb:__ZN10MeshFilter23VirtualRedirectTransferER14SafeBinaryRead
IPd:__ZNK5physx2Cm23FastVertex2ShapeScaling20transformQueryBoundsERNS_6PxVec3ES3_RNS_7PxMat33E
Jwc:__Z8BuildCapILb0EEvjRPhRKN4math8float4x4EPK15LineBuilderDataRKfRKNS2_7_float4ERK11ColorRGBA32SA_bRKNS2_7_float2E
bEk:_SslStreamBase_BeginWrite_m2003981130
n6a:__ZN22CreateGpuProgramOutput12CreateParamsEv
k5k:_SynchronizedWriter_Flush_m1415610297
O4:__ZN10ObjectPoolIN4FMOD7ChannelENS0_8ChannelIEE7GetFreeEi
B6l:_TermInfoReader_GetStringBytes_m3509133699
Ool:_DynamicMethod_IsDefined_m2556354904
Ffe:__ZNK5physx18NpArticulationLink11getChildrenEPPNS_18PxArticulationLinkEj
iTk:_InternalEnumerator_1_System_Collections_IEnumerator_get_Current_m548105685_gshared
wVa:__ZNK14GfxContextGLES13GetDefaultFBOEv
aIl:_Byte_System_IConvertible_ToType_m2251112646
vv:__ZN22NavMeshProjectSettings8TransferI18StreamedBinaryReadILb0EEEEvRT_
taj:__Z81RuntimeInvoker_Char_t3634460470_RuntimeObject_Int32_t2950945753_Int16_t2552820387PFvvEPK10MethodInfoPvPS4_
n3e:__Z15atomIntegrationfPKPN5physx11PxsBodyCoreEPKPNS_12PxsRigidBodyEjPKNS_2Cm13SpatialVectorEPNS_13PxcSolverBodyEPNS_17PxcSolverBodyDataEPS9_RjSH_
enh:_XmlTextReader_MoveToAttribute_m2658488543
Dac:__ZN14GraphicsHelper5ClearE13GfxClearFlagsRK10ColorRGBAffjR17ShaderPassContext
dbh:_DTDObjectModel_set_IsStandalone_m3249616546
o_l:_Evidence_Equals_m1478353107
zBe:__ZN5physx13NpRigidStatic11createShapeERKNS_10PxGeometryEPKPNS_10PxMaterialEtNS_7PxFlagsINS_11PxShapeFlag4EnumEhEE
kKc:__Z13GetImagePixelI10ColorRGBAfET_PKhii13TextureFormat15TextureWrapModeS5_ii
Gwg:_il2cpp_class_is_enum
Nzg:__ZN6il2cpp2vm6Thread49CheckCurrentThreadForInterruptAndThrowIfNecessaryEv
sAn:_Enum_ToObject_m1136033697
vva:__ZNSt3__23mapIN9ShaderLab16FastPropertyNameEN18UnityPropertySheet11UnityTexEnvENS_4lessIS2_EENS_9allocatorINS_4pairIKS2_S4_EEEEEixERS9_
B1a:__ZNK13TranslateGLES25GetTextureTargetDimensionEj
k9d:__ZN5physx11NpAggregate22removeActorAndReinsertERNS_7PxActorEb
I2p:_ReadOnlyCollection_1_System_Collections_IList_Remove_m1842121503_gshared
Paf:__ZZL19ExtractHullPolygonsRjRN5physx2Gu9ContainerERKNS0_17ConvexHullBuilderEPS2_S3_EN5Local9FloodFillES3_PKNS0_11AdjTriangleEjPb
BYq:_CapsuleCollider_get_radius_m3672925813
d1k:_File_OpenRead_m2936789020
l$c:__Z47Texture2D_CUSTOM_INTERNAL_CALL_GetPixelBilinearP12Il2CppObjectffR10ColorRGBAf
Boa:__ZN9Scripting12LogExceptionE21ScriptingExceptionPtriPKcb
bMl:_NameObjectCollectionBase_BaseGetKey_m2677971642
Sbp:_LTDescrImpl_setOvershoot_m75839170
Kfr:_emscripten_glUniformMatrix4fv__wrapper
ndp:_LTGUI_checkWithinRect_m670986542
J6i:__Z94RuntimeInvoker_Void_t1185182177_RuntimeObject_PlayableGraph_t3515989261_RuntimeObject_IntPtr_tPFvvEPK10MethodInfoPvPS4_
gk:_emscripten_glVertexAttrib4f
byn:_StackTrace_init_frames_m641783388
aKq:_GeneralBasicJS_U24U24advancedExamplesU24closureU244U24closureU246_m2642886230
brk:_XmlDocumentType_get_InternalSubset_m105575790
JGj:_TriggeredBehaviour_ModPlayerWalkSpeed_OnEnteredPlaying_Reset_m3243658698
cOa:__ZNSt3__26vectorIN20GpuProgramParameters14ConstantBufferENS_9allocatorIS2_EEE8__appendEj
S5g:_X509CertificateCollection_AddRange_m3683116910
q7i:__Z142RuntimeInvoker_RuntimeObject_RuntimeObject_Int32_t2950945753_Int32_t2950945753_Int32_t2950945753_SByte_t1669577662_RuntimeObject_RuntimeObjectPFvvEPK10MethodInfoPvPS4_
HKi:_Socket_BeginReceive_m2439065097
ucq:_Predicate_1_Invoke_m2315049893_gshared
iq:FUNCTION_TABLE_vf
vjh:_XsdValidationContext__ctor_m2223902376
Ube:__ZN5physx14NpArticulation26setMaxProjectionIterationsEj
IZd:__ZN5physx3Cct15ObstacleContext14removeObstacleEj
Tll:_CustomAttributeTypedArgument_Equals_m2261980307
FR:__ZN7mecanim12statemachine24CreateStateMachineMemoryEPKNS0_20StateMachineConstantERNS_6memory9AllocatorE
R2o:_Array_InternalArray__get_Item_TisLink_t544317964_m1669566993_gshared
OSa:__ZN9GfxDevice18SetGlobalDepthBiasEff
$kg:__ZN6il2cpp6icalls8mscorlib6System8MonoType12get_AssemblyEP20Il2CppReflectionType
C8n:_RxCompiler__ctor_m2082601808
Hwc:__Z16BuildLineSegmentILb0EEvjRPhRKN4math8float4x4EPK15LineBuilderDataRKfSA_11ColorRGBA32
Nmf:__ZN15CapsuleCollider9SetCenterERK8Vector3f
Azm:_LayoutUtility_GetLayoutProperty_m3731360667
uk:_emscripten_glGetPointerv
IZo:_Array_Sort_TisSingle_t1397266774_TisSingle_t1397266774_m1233431437_gshared
hqp:_Dictionary_2_System_Collections_IDictionary_Remove_m615884538_gshared
d1o:_Dictionary_2_Do_CopyTo_TisKeyValuePair_2_t3842366416_TisRuntimeObject_m1564656153_gshared
fBj:_PlatformGenerator_Patrol_Direct__ctor_m942379414
eW:__ZN8Animator22ApplyBuiltinRootMotionEv
Nac:__Z26ApplyMaterialPassWithCacheRK18SharedMaterialDataR17ShaderPassContextP6ShaderPN9ShaderLab4PassEibPKNS6_10GrabPassesEPNS6_11SubProgramsEPK22DeviceRenderStateBlock
ujf:__ZN5physx7profile8ZoneImplINS_28PxProfileNameProviderForwardEE17handleBufferFlushEPKhj
mGp:_List_1_CheckIndex_m4218361407_gshared
h9d:__ZN5physx2Sc5ActorC2ERNS0_16InteractionSceneEhNS0_14IslandNodeInfo4TypeE
C9k:_MulticastDelegate_KPM_m22863605
jrq:_ConfigurationErrorsException__ctor_m3905749919
Olh:_XsdValidatingReader_ValidateEndElementKeyConstraints_m2157464943
ogd:__ZN15ParticleEmitter20UpdateParticleSystemEf
sXk:_InternalEnumerator_1_get_Current_m1897120917_AdjustorThunk
U_q:_SphereCollider_INTERNAL_set_center_m1804487430
Z8k:_MonoType_ReorderParamArrayArguments_m2458683451
qMj:_FormatterConverter_ToInt16_m4282804414
CXi:__Z81RuntimeInvoker_Void_t1185182177_Int64_t3736567304_RuntimeObject_Int64_t3736567304PFvvEPK10MethodInfoPvPS4_
hRm:_EventManager_Unregister_TisEventType_Collision_t1865585065_TisRuntimeObject_m1356418129_gshared
vEg:__ZN30dense_hashtable_const_iteratorINSt3__24pairIK10KeyWrapperIP14Il2CppIUnknownEjEES5_N6il2cpp5utils11PointerHashIS3_EEN14dense_hash_mapIS5_jSB_NS5_14EqualsComparerINS0_8equal_toIS4_EEEENS0_9allocatorIS7_EEE9SelectKeyESG_SI_EppEv
$0k:_FileStream__ctor_m3151488352
bGl:_Array_swap_m547389985
Lta:__ZN8Renderer23VirtualRedirectTransferER14SafeBinaryRead
vro:_UInt32_ToString_m2420423038
bz:__ZNSt3__27__sort5IR17DetailNodeXSorterP16DetailMeshBVNodeEEjT0_S5_S5_S5_S5_T_
uIn:_Int64_System_IConvertible_ToUInt64_m2815650160
G1k:_FileStream_get_Length_m426703983
use:__ZN5physx2Sc9ClothCore16setRestPositionsEPKNS_6PxVec4E
J8e:__ZN5physx2Gu12TriangleMesh4loadERNS_13PxInputStreamE
PDj:_Trigger_InArea_OnAteCollisionEnded_m1537832995
Uvc:__ZL13MotionHandleriPK27EmscriptenDeviceMotionEventPv
W8:__ZN18AudioMixerSnapshot8TransferI24GenerateTypeTreeTransferEEvRT_
S6l:_InternalEnumerator_1_get_Current_m3993227736_AdjustorThunk
c0l:_StrongNameMembershipCondition__ctor_m3351906093
j3:__ZN12AudioManager5ResetEv
vOq:_WindowsConsoleDriver_GetConsoleScreenBufferInfo_m3609341087
B3h:__ZL68DisallowMultipleComponent_t1422053217_CustomAttributesCacheGeneratorP21CustomAttributesCache
dIc:__ZN15DirectorManager18ScheduleGraphStartERK14HPlayableGraph
N$a:__ZN6prcoreL17RemapGenericFloatI17TexFormatRGBAHalf15TexFormatRGHalfEEvPKNS_9InnerInfoE
JWn:_SortedList_GetKey_m658905367
NNg:__ZN6il2cpp6icalls8mscorlib6System11Environment20GetWindowsFolderPathEi
kvf:_UNITY_FT_Stream_ReadFields
tQ:__ZN7mecanim5human18HumanPoseBlendNodeERNS0_9HumanPoseEPS1_f
Guf:_UNITY_FT_RoundFix
PAq:_GUI_DrawTexture_m2714147229
ook:_XmlAttributeCollection__ctor_m4067851386
BK:__Z14resize_trimmedINSt3__26vectorI24CompressedAnimationCurve13stl_allocatorIS2_L18MemLabelIdentifier26ELi16EEEEEvRT_j
sSd:__ZNK5physx2Gu15HeightFieldUtil12traceSegmentI24ConvexVsHeightfieldSweepLb0ELb0ELb1EEEvRKNS_6PxVec3ES6_PT_PS5_
TGk:_BasicFSM_1_ShouldSwitchToState_m2474778181_gshared
y7e:__ZNK5physx12PxConvexMesh19getConcreteTypeNameEv
FBi:_Cookie_Equals_m3342877036
M0m:_Mathf_MoveTowards_m2357711114
pEb:__ZNK12MeshRenderer22GetTypeVirtualInternalEv
BJl:_Char_System_IConvertible_ToUInt32_m3901815580
qLd:__ZN13ProduceHelperI13BoxCollider2DLb0EE7ProduceE10MemLabelId18ObjectCreationMode
TSd:__ZN5physx2Gu19gjkLocalPenetrationINS0_9TriangleVENS0_17ShrunkConvexHullVEEEjRKT_RKT0_RKNS_6shdfnd3aos6FloatVERNSB_5Vec3VESG_SG_RSC_PhSI_Rhb
hTi:__Z157RuntimeInvoker_Int32_t2950945753_RuntimeObject_Int32_t2950945753_Int32_t2950945753_Int32_t2950945753_SByte_t1669577662_SByte_t1669577662_Int32U26_t1369213839PFvvEPK10MethodInfoPvPS4_
R5:__ZN4FMOD6System17setSoftwareFormatEi17FMOD_SOUND_FORMATii18FMOD_DSP_RESAMPLER
owq:_AuthorityKeyIdentifierExtension_get_Identifier_m548598067
GTl:_DiagnosticsConfigurationHandler_ValidateInvalidAttributes_m3200349377
zUd:__ZN5physx2Gu15GJKLocalRayCastERNS0_9TriangleVERNS0_4BoxVERKNS_6shdfnd3aos6FloatVERKNS6_5Vec3VESC_RS7_RSA_SE_fb
w1d:__ZN5physx2Sc13ShapeIterator4initERKNS0_8ActorSimE
kpq:_ConfigurationPropertyCollection_Add_m1567726929
IIa:__ZN14SafeBinaryRead19TransferSTLStyleMapINSt3__23mapIN4core12basic_stringIcNS3_20StringStorageDefaultIcEEEES7_NS1_4lessIS7_EE13stl_allocatorINS1_4pairIKS7_S7_EEL18MemLabelIdentifier1ELi16EEEEEEvRT_17TransferMetaFlags
i7k:_Math_Asin_m1268117036
rKf:__ZN2UI6Canvas27UpdateEventIndexesRecursiveERi
bP:__ZN7mecanim9animation18EvaluateRootMotionERKNS0_18ClipMuscleConstantERKNS0_15ClipMuscleInputEPKfS8_RNS0_12MotionOutputEb
Dga:__ZN11UnityEngine15CloudWebService16SessionContainer21PrepareDataErrorEventERN4core12basic_stringIcNS2_20StringStorageDefaultIcEEEE
d9j:_ExecuteEvents_get_pointerUpHandler_m3515704212
Yrj:_ChangeFramelength_ModFramelength_m2845727867
XXj:_SatelliteContractVersionAttribute__ctor_m3630863995
Xiq:_XmlReader_MoveToAttribute_m673667036
fRl:_PropertyDescriptorCollection_System_Collections_IDictionary_get_Values_m3452850275
Mw:__ZNK12NavMeshQuery9GetUpAxisEyP8Vector3f
Rak:_MouseButtonEventData_PressedThisFrame_m1060658845
Fok:_XmlDocument_AddIdenticalAttribute_m1974298806
N0b:__Z19TransferField_ArrayI19StreamedBinaryWriteILb0EE27Converter_SimpleNativeClassI8GUIStyleEEvRK23StaticTransferFieldInfoR31RuntimeSerializationCommandInfoRT0_
BGf:__ZN20TextRenderingPrivate8TextMesh23VirtualRedirectTransferER18StreamedBinaryReadILb0EE
une:__ZN5physx14NpArticulationC2Ev
$8g:_DTDAutomata_TryEndElement_m723950603
v0g:_WebConnection_get_UnsafeAuthenticatedConnectionSharing_m453020971
Uik:_GraphicRegistry_GetGraphicsForCanvas_m4219276355
gB:__ZNK12NavMeshQuery19GetPolyWallSegmentsEyPK11QueryFilterP8Vector3fPyPii
Y9k:_NumberFormatter_FastToDecHex_m699829267
Fcd:__Z35Transfer_Blittable_FixedBufferFieldI8JSONReadiEvRK29SerializationCommandArgumentsR31RuntimeSerializationCommandInfo
aod:__ZN22ParticleSystemRenderer16UpdateCachedMeshEv
Ijg:__ZNSt3__213__vector_baseIN6il2cpp2os19SocketHandleWrapperENS_9allocatorIS3_EEED2Ev
gsh:__ZL48_Type_t3588564251_CustomAttributesCacheGeneratorP21CustomAttributesCache
qqd:__ZN12LightsModule8TransferI24GenerateTypeTreeTransferEEvRT_
nd:invoke_viiffi
MAq:_GUI_DrawTexture_m2312292152
Etc:__ZN13sorted_vectorINSt3__24pairIN4core12basic_stringIcNS2_20StringStorageDefaultIcEEEEPK17MessageIdentifierEEN10vector_mapIS6_S9_NS0_4lessIS6_EENS0_9allocatorISA_EEE13value_compareESF_E10insert_oneERKSA_
QXj:_ResourceSet_ReadResources_m3663669011
D0m:_Mathf_CeilToInt_m432108984
sWf:_ThirdPersonCharacter_UpdateAnimator_m3579810717
dLa:__Z14resize_trimmedINSt3__26vectorIN9ShaderLab18SerializedPropertyENS0_9allocatorIS3_EEEEEvRT_j
exd:__Z20UpdateWholeSheet2TplIL27ParticleSystemCurveEvalMode3ELS0_3EEvfRK11MinMaxCurveS3_RK23ParticleSystemParticlesPf
IEe:__ZN5physx6shdfnd8PoolBaseINS_2Sc9ActorPairENS0_19ReflectionAllocatorIS3_EEE12allocateSlabEv
nhg:__ZN6il2cpp2vm13MetadataCache38GetMethodInfoFromMethodDefinitionIndexEi
O7j:_EventSystem_set_current_m38955169
pli:__ZL53Selectable_t3250028441_CustomAttributesCacheGeneratorP21CustomAttributesCache
Xfo:_EncoderFallbackException__ctor_m1920003269
$zb:__ZN10VertexData8TransferI24GenerateTypeTreeTransferEEvRT_
azn:_Double_IsInfinity_m820013146
iOg:__ZN13Il2CppHashMapIPK19Il2CppGenericMethodP10MethodInfoN6il2cpp8metadata23Il2CppGenericMethodHashENS6_26Il2CppGenericMethodCompareENSt3__29allocatorINS9_4pairIK10KeyWrapperIS2_ES4_EEEEEC2EjRKS7_RKS8_
O9m:_Screen_get_dpi_m495672463
ljo:_UTF8Encoding_InternalGetByteCount_m2120178851
P0f:_NoiseAndScratches_OnRenderImage_m4219551142
xoc:__ZL10CullLightsRK22SceneCullingParametersR11CullResults
Hfm:_Enumerator_get_CurrentKey_m309919545_AdjustorThunk
Xvm:_InputField_SendOnSubmit_m3463846103
Y1n:_Convert_ToUInt64_m3170916409
AR:__ZN7mecanim12statemachine20GetBlendTreeConstantERKNS0_13StateConstantEi
SIk:_List_1_Equals_m1608515849_gshared
LFe:__ZN5physx7NpScene21setDominanceGroupPairEhhRKNS_20PxDominanceGroupPairE
fIn:_Int64_System_IConvertible_ToInt16_m4062196970_AdjustorThunk
v9k:_MonoType_GetGenericTypeDefinition_m3201894896
Nxc:__Z40GetTemporaryCachePathApplicationSpecificv
UQa:__ZN9GfxDevice16EndAsyncJobFrameEv
tbj:__Z99RuntimeInvoker_Int32_t2950945753_Ray_t3785851493_RuntimeObject_Single_t1397266774_Int32_t2950945753PFvvEPK10MethodInfoPvPS4_
wxf:_UNITY_tt_face_load_hhea
sm:___syscall3
$7i:__Z135RuntimeInvoker_RaycastHit2D_t2279581989_Vector2_t2156229523_Vector2_t2156229523_Single_t1397266774_Int32_t2950945753_Single_t1397266774PFvvEPK10MethodInfoPvPS4_
vm:___syscall6
xm:___syscall4
Cha:__ZN11UnityEngine15CloudWebService20WebRequestRestClient17GetResponseStatusEv
xhm:_Enumerator_System_Collections_IEnumerator_Reset_m4220365206_AdjustorThunk
Vwq:_PKCS12_set_Password_m4088935795
NSb:__ZNSt3__26__treeINS_12__value_typeIN4core12basic_stringIcNS2_20StringStorageDefaultIcEEEEPN16MemoryFileSystem4NodeEEENS_19__map_value_compareIS6_SA_NS_4lessIS6_EELb1EEE13stl_allocatorISA_L18MemLabelIdentifier55ELi16EEE7destroyEPNS_11__tree_nodeISA_PvEE
sHk:_BasicFSM_1_GetNextStateID_m3092002207_gshared
i$o:_Dictionary_2_Do_ICollectionCopyTo_TisRuntimeObject_m112026658_gshared
Ppq:_ConfigurationLockCollection_CheckName_m2309108234
f7i:__Z67RuntimeInvoker_Boolean_t97287965_TextGenerationSettings_t1351628751PFvvEPK10MethodInfoPvPS4_
XIg:__ZN6il2cpp2vm3RCW14QueryInterfaceILb1EEEP14Il2CppIUnknownP15Il2CppComObjectRK10Il2CppGuid
lzk:_TlsServerCertificateRequest__ctor_m1334974076
PZq:_Physics_SphereCast_m1259429328
qGd:__ZNSt3__26__sortIR24RayHitsByDepthComparitorP12RaycastHit2DEEvT0_S5_T_
U$n:_Convert_ToInt32_m1613163543
hAm:_MatEntry__ctor_m1949610076
eRc:__ZN9Scripting25BroadcastScriptingMessageER10GameObjectPKc18ScriptingObjectPtr
Mm:_emscripten_glShaderBinary
iZl:_String_op_Inequality_m215368492
Aqo:_UInt16_ToString_m760649087
KRb:__ZNK20LocalFileSystemPosix6ExistsERK13FileEntryData
n7d:__ZN5physx35NpArticulationJointGetBodiesFromScbERNS_3Scb17ArticulationJointERPNS0_4BodyES5_
T6e:__ZNK5physx2Sc15ClothFabricCore16getTetherLengthsEPfj
UOm:_Array_IndexOf_TisKeyCode_t2599294277_m265418098_gshared
SUg:_GC_deinit
ITm:_Camera_GetAllCameras_m668492922
Vzf:_UNITY_TT_Get_HMetrics
Jno:_TimeSpan_op_Inequality_m2467851530
k3b:__ZN17AnimationCurveTplIfE8TransferI18StreamedBinaryReadILb1EEEEvRT_
e_o:_Array_Sort_TisUIVertex_t4057497605_m3996333845_gshared
tlj:__Z88RuntimeInvoker_RuntimeObject_Color_t2555686324_RuntimeObject_RuntimeObject_RuntimeObjectPFvvEPK10MethodInfoPvPS4_
Wmh:_XmlTextReader_get_XmlSpace_m3787306387
hQf:__ZN18UnityConnectClientD2Ev
CRj:_SByte_System_IConvertible_ToDouble_m2381680501
vGl:_Swapper_BeginInvoke_m1688449973
Yvg:_il2cpp_set_data_dir
AKe:__ZN5physx2Sc13ConstraintSim8getForceERNS_6PxVec3ES3_
Y1i:__Z81RuntimeInvoker_Void_t1185182177_RuntimeObject_Int32_t2950945753_Int64_t3736567304PFvvEPK10MethodInfoPvPS4_
ara:__ZN13dynamic_arrayIcLj1EE6insertEPcPKcS3_
ZY:__ZN7mecanim5human5HumanC2Ev
iMc:__Z19WriteObjectToVectorRK6ObjectR13dynamic_arrayIhLj1EE24TransferInstructionFlags
PYi:__Z86RuntimeInvoker_Boolean_t97287965_Int16_t2552820387_Int16_t2552820387_Int32_t2950945753PFvvEPK10MethodInfoPvPS4_
gOd:__ZN5physx15PxGeometryQuery18computePenetrationERNS_6PxVec3ERfRKNS_10PxGeometryERKNS_11PxTransformES6_S9_
CGq:_IndexedSet_1_IndexOf_m241693686_gshared
k$n:_Convert_ToDouble_m1177445661
TA:__ZNK12NavMeshQuery14RetracePortalsEiiPKyiRK8Vector3fPS2_PhPyi
mPf:__ZN11UnityEngine15PlatformWrapper30GetGraphicsDriverLibraryStringEv
hRj:_RuntimeMethodHandle_Equals_m3301340296_AdjustorThunk
TCq:_GUIStyle_set_fontSize_m1566850023
C2o:_Array_InternalArray__get_Item_TisKeyValuePair_2_t2054981775_m3986163180_gshared
hof:__ZN5Unity12PhysicsQueryC2Ev
G4b:__Z18Transfer_BlittableI18StreamedBinaryReadILb0EELb0E4AABBEvRK29SerializationCommandArgumentsR31RuntimeSerializationCommandInfo
SKb:__ZN24GenerateTypeTreeTransfer19TransferSTLStyleMapINSt3__28multimapIN4core12basic_stringIcNS3_20StringStorageDefaultIcEEEE4PPtrI6ObjectENS1_4lessIS7_EE13stl_allocatorINS1_4pairIKS7_SA_EEL18MemLabelIdentifier52ELi16EEEEEEvRT_17TransferMetaFlags
MZ:__ZN16MecanimAnimation24DeleteAnimatedPropertiesERP26IAnimatedPropertyEvaluator
jgp:_Array_InternalArray__ICollection_CopyTo_TisKeyValuePair_2_t394687570_m3897349367_gshared
KMk:_InternalEnumerator_1_System_Collections_IEnumerator_get_Current_m1787482506_gshared
HAh:__ZL57AssemblyBuilder_t359885250_CustomAttributesCacheGeneratorP21CustomAttributesCache
cqd:__ZN11ColorModule8TransferI24GenerateTypeTreeTransferEEvRT_
ffc:__Z14DrawGUITextureRK5RectTIfEP7Texture11ColorRGBA32P8Materiali
Brj:_AteObject_ManagedLateUpdateOne_m3172182709
X2p:_ReadOnlyCollection_1_System_Collections_Generic_ICollectionU3CTU3E_Add_m2686599243_gshared
RU:__ZN9BlobWrite8TransferI22OffsetPtrArrayTransferIKN4math7_float4EEEEvRT_PKc17TransferMetaFlags
Ufc:__ZN22RenderingCommandBuffer20ExecuteCommandBufferER17ShaderPassContextR15RenderNodeQueuejP13dynamic_arrayINSt3__24pairIN9ShaderLab16FastPropertyNameEP13RenderTextureEELj4EE16ComputeQueueTypeSA_
t6f:_Transform_IsChildOf_m224006092
Hqb:__ZN15TextureSettings8TransferI24GenerateTypeTreeTransferEEvRT_
PJq:_DelegatePInvokeWrapper___GeneralSimpleUiJSU24callable6U2434_25___t1522050238
ocd:__ZN9JSONWrite8TransferI4AABBEEvRT_PKc17TransferMetaFlags
odb:__ZN25MultiBlocksMemoryFileData9SetLengthEy
y$g:_WebConnection_CompleteChunkedRead_m618073306
eij:__Z58RuntimeInvoker_Void_t1185182177_ContactPoint2D_t3390240644PFvvEPK10MethodInfoPvPS4_
KVk:_InternalEnumerator_1_get_Current_m3191242573_AdjustorThunk
xlq:_XmlTextWriter_WriteIndentAttribute_m3288075110
hvj:_ExtGameObject_GetDir_AwayFrom_m2692037370
_3e:__ZNK18ScBeforeSolverTask7getNameEv
XHd:__ZN10Collider2D13AwakeFromLoadE17AwakeFromLoadMode
uz:__ZN12CrowdManager11AddObstacleEv
oIq:_Aes__ctor_m178909601
xvb:__ZNK9Texture2D20GetRuntimeMemorySizeEv
c2c:__ZN11Marshalling39CreateNullExceptionForUnityEngineObjectE18ScriptingObjectPtr
iTe:__ZN5physx14solve1D4_BlockEPKNS_23PxcSolverConstraintDescEjRNS_16PxcSolverContextE
u8c:__ZN5Unity9rapidjson13GenericReaderINS0_4UTF8IcEES3_13JSONAllocatorE9ParseTrueILj0ENS0_19GenericStringStreamIS3_EENS0_15GenericDocumentIS3_S4_S4_EEEEvRT0_RT1_
Wn:_emscripten_glUniform2iv
Gge:__ZN5physx2Sc8ShapeSim17onTransformChangeEv
FOd:__ZL33GeomMTDCallback_ConvexHeightFieldRN5physx6PxVec3ERfRKNS_10PxGeometryERKNS_11PxTransformES5_S8_
bsf:_UNITY_FT_Outline_Transform
a$c:__Z60Register_UnityEngine_Sprites_DataUtility_Internal_GetMinSizev
PNq:_ValueType_GetHashCode_m715362416
vcg:__ZN6il2cpp2vm5Class10GetMethodsEP11Il2CppClassPPv
vkc:__Z30AddDefaultStreamsToMeshBuffersR9GfxDeviceR11MeshBuffersRK16DrawBuffersRange17ShaderChannelMaskS6_
Rgd:__Z43ParticleSystemRenderer_RenderMultipleMeshesIL21SpriteMaskInteraction1EEvRK15RenderNodeQueueRK18RenderMultipleData17ShaderChannelMask
M1a:__ZN7ApiGLES17DeleteFramebufferERN2gl6HandleILNS0_10ObjectTypeE9EEES3_
p5a:__ZN15UniformTFMethod13MapBoneBufferEj
mJf:__ZN2UI14CanvasRendererD2Ev
j3o:_Array_InternalArray__get_Item_TisParameterModifier_t1461694466_m29553316_gshared
bvl:_FieldInfo_internal_from_handle_type_m3256989094
xIn:_Int64_CompareTo_m1928360444_AdjustorThunk
EVo:_List_1_System_Collections_IList_set_Item_m1152825125_gshared
pYe:__ZN5physx26PxcPCMContactCapsuleConvexERKNS_2Gu13GeometryUnionES3_RKNS_11PxTransformES6_RKfRNS_10PxcNpCacheERNS0_13ContactBufferE
fdn:_XmlSchemaParticle_CompileOccurence_m2937686890
ovg:__ZN15dense_hashtableINSt3__24pairIK10KeyWrapperINS1_IPK9EventInfoP11Il2CppClassEEEjEES9_17ReflectionMapHashIS8_EN14dense_hash_mapIS9_jSD_NS9_14EqualsComparerINS0_8equal_toIS8_EEEENS0_9allocatorISB_EEE9SelectKeyESI_SK_E15set_deleted_keyERKSB_
L9b:__Z9SetupArgviPPKc
m0n:_Convert_ToInt64_m2075031821
zuq:_SectionInfo_ReadData_m1429163179
$lo:_Scheduler__cctor_m4042462055
crf:__Z57Register_UnityEngine_Rigidbody_INTERNAL_CALL_MoveRotationv
lae:__ZN5physx10PxsContext17addParticleSystemEPNS_15PxsParticleDataERKNS_26PxvParticleSystemParameterEb
h8d:__ZN5physx3Scb5Scene13addRigidNoSimINS0_4BodyELb1ELb1EEEvRT_RNS0_13ObjectTrackerE
yub:__ZN12CubemapArray23VirtualRedirectTransferER24GenerateTypeTreeTransfer
Ira:__ZN12FileAccessor4OpenER15FileSystemEntry14FilePermission16FileAutoBehavior
Yom:_KeyCollection_System_Collections_Generic_ICollectionU3CTKeyU3E_Add_m220590786_gshared
skq:_XmlTextReader_set_Conformance_m4265718394
FMg:__ZN6il2cpp2os9Directory6CreateERKNSt3__212basic_stringIcNS2_11char_traitsIcEENS2_9allocatorIcEEEEPi
RTd:__ZL19sweepBoxVsTrianglesjPKN5physx10PxTriangleERKNS_2Gu3BoxERKNS_6PxVec3EfRNS_10PxSweepHitENS_7PxFlagsINS_9PxHitFlag4EnumEtEEbPKj
Nwa:__ZN23TransformChangeDispatch32QueueTransformChangeIfHasChangedERK15TransformAccess
_if:__ZN9Rigidbody18AddForceAtPositionERK8Vector3fS2_i
u8:__ZN15AudioMixerGroupD0Ev
iRo:_Enumerator_VerifyState_m3505660202_AdjustorThunk
Mjl:_Assembly_get_FullName_m293988418
dMd:__ZN22WorldContactListener2D8PreSolveEP9b2ContactPK10b2Manifold
XNf:__ZN22BaseUnityConnectClientD0Ev
POc:__Z15WeldVertexArrayR13dynamic_arrayI8Vector3fLj4EERS_I12BoneWeights4Lj4EERS_IjLj4EES7_
jsq:_SectionInformation_ProtectSection_m4007543682
c_o:_Array_Sort_TisUILineInfo_t4195266810_m986157765_gshared
eep:_Array_InternalArray__ICollection_Add_TisClickState_t3088378105_m3202014650_gshared
B:tempValue
Qwn:_Decimal_op_Implicit_m3696395396
qVk:_InternalEnumerator_1_get_Current_m356936020_AdjustorThunk
QYp:_Collection_1_CheckWritable_m1583234367_gshared
pTo:_List_1_set_Item_m4257323136_gshared
OHn:_Int32_ToString_m141394615_AdjustorThunk
hpa:__Z29scripting_class_from_fullnamePKcS0_S0_
q0k:_Directory_GetCurrentDirectory_m219218555
U5f:_Transform_TransformDirection_m3784028109
bw:__ZN12NavMeshAgent23VirtualRedirectTransferER24GenerateTypeTreeTransfer
ZR:__ZN26AnimatorControllerPlayable18DeallocateBindingsEv
N6g:_X509EnhancedKeyUsageExtension_get_EnhancedKeyUsages_m2617268680
OOd:__ZN5physx2Gu29ConvexVsMeshContactGeneration20generateLastContactsEv
H$g:_WebHeaderCollection_Add_m928193981
w8i:__Z85RuntimeInvoker_Boolean_t97287965_Ray_t3785851493_Single_t1397266774_Int32_t2950945753PFvvEPK10MethodInfoPvPS4_
DWa:__ZN14DelayedDeletorI15dense_hashtableINSt3__24pairIK9TextureIDiEES3_14GfxGenericHashIS3_EN14GfxDoubleCacheIS3_iS7_NS1_8equal_toIS3_EEN31GfxDoubleCacheConcurrencyPolicy11LocklessGetE42GfxDoubleCacheDefaultEmptyDeletedGeneratorIS3_EE9SelectKeyESA_13stl_allocatorIS5_L18MemLabelIdentifier24ELi16EEEEclEv
wjq:_XmlSignificantWhitespace_set_Value_m2869339402
Haa:__ZN11AudioSource19CreateOpenALRolloffEfff
ocr:dynCall_viiiiifiiii
qxf:_UNITY_FT_Stream_ReadAt
vve:__ZN5physx2Sc17ParticleSystemSim16getParticleStateEv
Rpn:_KeyContainerPermission_Cast_m3744190167
e3e:__ZN5physx6shdfnd5ArrayINS_25PxsCompoundContactManagerENS0_19ReflectionAllocatorIS2_EEE8recreateEj
wgg:__ZN15dense_hashtableINSt3__24pairIK10KeyWrapperIN6il2cpp5utils13dynamic_arrayIPK10Il2CppTypeLj4EEEEPFvvEEESA_NS3_8metadata19Il2CppSignatureHashEN14dense_hash_mapISA_SD_SG_NSA_14EqualsComparerINSF_22Il2CppSignatureCompareEEENS0_9allocatorISE_EEE9SelectKeyESK_SM_E9set_valueEPSE_RKSE_
gZo:_Array_Sort_TisGOType_t2877542885_TisGOType_t2877542885_m1454818846_gshared
Ixl:_ArgumentException__ctor_m1216717135
YYj:_GCHandle_op_Explicit_m976572069
O5m:_Ray_ToString_m1732834890_AdjustorThunk
Dxd:__Z19UpdateSingleRow2TplIL27ParticleSystemCurveEvalMode3ELS0_1EEvfRK11MinMaxCurveS3_RK23ParticleSystemParticlesPfbiii
ynq:_ConfigurationErrorsException__ctor_m4283164494
Fe:_glReadBuffer
OEp:_List_1_System_Collections_IList_Contains_m3860993176_gshared
aWe:__ZN5physx14PxsAABBManagerC2ERNS_2Cm13EventProfilerERNS_19PxcScratchAllocatorE
yba:__ZN11AudioModule22CreateAudioClipFromWWWEP10IWWWStreamPKcbbi
dEc:__ZN9Texture2DC2E10MemLabelId18ObjectCreationMode
Oyj:_PoolManager_Initialize_m1164555566
APj:_ObjectRecord_get_IsUnsolvedObjectReference_m1163921033
Fqo:_UInt32_System_IConvertible_ToBoolean_m1763673183_AdjustorThunk
Afl:_XmlSchemaAll_ComputeEmptiable_m3983949587
EXm:_UnityEvent_AddListener_m2276267359
sLf:__Z13RegisterClassIN2UI11CanvasGroupEEvv
KAp:_RijndaelTransform_Decrypt256_m4151308345
Vfq:_XmlNodeReaderImpl__ctor_m1389705042
Yxc:__ZN6prcoreL11inner_clearILj4EEEvPhjjj
Jg:_emscripten_glClear
l8:__ZN5audio5mixer18AudioMixerConstant8TransferI19StreamedBinaryWriteILb0EEEEvRT_
l0l:_PolicyStatement_FromXml_m265230900
jUg:_GC_initialize_offsets
LEa:__ZNK8Playable6HandleEv
cvm:_SetPropertyUtility_SetColor_m2229203028
dsk:_XmlException__ctor_m3835194378
zlc:__Z30SetupBakedOcclusionForGeometrybRK26SharedLightmapSettingsDataRK15LightmapIndicesR17ShaderPassContext
Opa:__ZN14MessageHandler28MessageIDToMessageIdentifierEi
leo:_Uri_get_Query_m2772518875
vAb:__ZNK11SpriteAtlas20GetRuntimeRenderDataEPK6Sprite
g0k:_FileSystemInfo__ctor_m3035148496
jcl:_DTDReader_SkipWhitespace_m4062589762
SVg:__ZN6il2cpp2vm10WaitHandle19NewManualResetEventEb
hJp:_List_1_IndexOf_m1815347550_gshared
TEf:__ZN20TextRenderingPrivate15DynamicFontData36GetFaceForCharacterIfAvailableInFontERKNS_7FontRefERK13dynamic_arrayI4PPtrIN13TextRendering4FontEELj4EEj
XP:__ZN7mecanim14ValueArrayCopyILb0EEEvPKNS_10ValueArrayEPS1_
l_k:_InvalidOperationException__ctor_m2734335978
x0:__Z51Register_UnityEngine_Animator_get_hasBoundPlayablesv
O8j:_ExecuteEvents_Execute_m3952332304
pBk:_TlsServerFinished__cctor_m3102699406
b5i:__Z190RuntimeInvoker_RuntimeObject_Int32_t2950945753_Int32_t2950945753_Int32_t2950945753_Int32_t2950945753_Int32_t2950945753_Int32_t2950945753_Int32_t2950945753_Int32_t2950945753_SByte_t1669577662PFvvEPK10MethodInfoPvPS4_
Ze:emscriptenWebGLGetUniform
Yq:FUNCTION_TABLE_iiiiiiiiiii
aZm:_GL_Begin_m1290681325
YAq:_GUI_CallWindowDelegate_m3309453386
Jvf:_cff_set_mm_blend
VVd:__ZN5physx2Gu19sweepCapsuleCapsuleERKNS0_7CapsuleES3_RKNS_6PxVec3EfRfRS4_S8_jRt
eqc:__ZL10CleanUpJobP20CullingGroupsJobData
wYl:_ModuleElement_set_Type_m2002670401
Lgq:_XmlParserContext_set_SystemId_m2348109559
$$k:_DirectoryInfo_get_Exists_m3142069876
d_i:__Z113RuntimeInvoker_Void_t1185182177_RuntimeObject_RuntimeObject_SByte_t1669577662_Int32_t2950945753_Int32_t2950945753PFvvEPK10MethodInfoPvPS4_
r7e:__ZN5physx13BigConvexData4LoadERNS_13PxInputStreamE
Yec:__ZN13RenderManager15BatchModeUpdateEv
sIm:_Array_InternalArray__ICollection_Contains_TisKeyValuePair_2_t4237331251_m138928983_gshared
esk:_XmlException__ctor_m1514432650
Lgm:_Enumerator_VerifyState_m1545185457_AdjustorThunk
Fzb:__ZN14SafeBinaryRead21TransferSTLStyleArrayI13dynamic_arrayI8Vector2fLj4EEEEvRT_17TransferMetaFlags
xta:__ZN17PersistentManager51InstanceIDToLocalSerializedObjectIdentifierInternalEiR31LocalSerializedObjectIdentifier
U9g:_DTDObjectModel_AddError_m663438897
x7f:_Vector2_get_one_m738793577
SJd:__ZN10ClipperLib7Clipper15SetWindingCountERNS_5TEdgeE
wPj:_InstanceComparer_System_Collections_IHashCodeProvider_GetHashCode_m1305577427
mKc:__ZNK4Mesh14GetIndexFormatEv
m7f:_Vector2_get_magnitude_m2752892833_AdjustorThunk
qhe:__ZN5physx2Sc8ActorSim24postDominanceGroupChangeEv
qf:_glVertexAttribIPointer
qrj:_AteObject_Awake_m1463689061
d1a:__ZN13dynamic_arrayI21ComputeShaderResourceLj4EE9push_backERKS0_
jjf:__ZN5physx7profile8ZoneImplINS_28PxProfileNameProviderForwardEEC2EPNS_19PxAllocatorCallbackEPKcjRKS2_
fLc:__ZNK6Sprite10GetPaddingE20SpriteRenderDataMode
iie:__ZN5physx2Cm8PtrTable5clearERNS0_22PtrTableStorageManagerE
PKm:_Array_InternalArray__ICollection_Remove_TisUInt32_t2560061978_m733727733_gshared
DSj:_CryptographicException__ctor_m503735289
FZd:__ZN5physx3Cct15ObstacleContext7releaseEv
OSe:__ZN5physx27solveFrictionBlockWriteBackEPKNS_23PxcSolverConstraintDescEjRNS_16PxcSolverContextEPNS_25PxcThresholdStreamElementEjPi
$1k:_Stream_EndRead_m1896469262
hMi:__Z93RuntimeInvoker_Boolean_t97287965_Int32_t2950945753_SByte_t1669577662_ExceptionU26_t3600731591PFvvEPK10MethodInfoPvPS4_
jSl:_StandardValuesCollection_System_Collections_ICollection_get_Count_m2213884831
pic:__ZN14qsort_internal5QSortIP15RODataDepthPassi17ROSorterDepthPassEEvT_S4_T0_T1_
rFn:_Guid_CompareTo_m243656946
ryo:_ValueCollection_System_Collections_ICollection_get_SyncRoot_m4169034619_gshared
f1f:_ScreenSpaceAmbientObscurance_CheckResources_m3289180091
ayf:_UNITY_ft_glyphslot_alloc_bitmap
y0q:_Animation_Play_m577412913
Drp:_Dictionary_2_GetObjectData_m3463318060_gshared
aKl:_Char_ToUpper_m3659851865
Kof:__ZN13PhysicsModule21SetAutoSyncTransformsEbb
ICk:_RSASslSignatureDeformatter_SetHashAlgorithm_m895570787
$yq:_X509CrlEntry__ctor_m4013514048
nnk:_TypeData_GetGenericListItemType_m2145930005
Y0f:_PostEffectsHelper_DrawLowLevelPlaneAlignedWithCamera_m4135922617
wiq:_XmlProcessingInstruction_CloneNode_m1738034480
Tcf:__ZN5physx6shdfnd10Foundation19AlignCheckAllocator8allocateEjPKcS4_i
NVi:__Z95RuntimeInvoker_Void_t1185182177_RuntimeObject_RuntimeObject_SByte_t1669577662_Int32_t2950945753PFvvEPK10MethodInfoPvPS4_
K3c:__Z47Register_UnityEngine_Mesh_RecalculateBoundsImplv
fRa:__ZN9GfxDevice27UpdateComputeSkinPoseBufferEP9GfxBufferP12SkinMeshInfo
_Xc:__Z36Quaternion_CUSTOM_INTERNAL_CALL_LerpRK11QuaternionfS1_fRS_
Atl:_OpCode_get_OperandType_m1634816806_AdjustorThunk
cPj:_ObjectWriter_QueueObject_m3487717536
V4l:_String_LastIndexOf_m3451222878
n7q:__ZNKSt3__221__basic_string_commonILb1EE20__throw_length_errorEv
Gk:_JS_SystemInfo_GetMemory
UEm:_Selectable_get_allSelectables_m868218263
Qar:dynCall_fiffifi
xbn:_Texture2D_GetPixelBilinear_m1950540195
$Pm:_Array_InternalArray__IndexOf_TisParameterModifier_t1461694466_m1227120810_gshared
N2a:__ZN18GfxFramebufferGLES13ReadbackImageER14ImageReferenceiiiiii
Y8c:__ZN5Unity9rapidjson6WriterI16TempBufferWriterNS0_4UTF8IcEES4_13JSONAllocatorE11WriteStringEPKcj
AQi:__Z202RuntimeInvoker_Boolean_t97287965_RuntimeObject_Int32U26_t1369213839_Int32_t2950945753_Int32_t2950945753_RuntimeObject_SByte_t1669577662_Int32_t2950945753_ContractionU26_t961830454_ContextU26_t3937453398PFvvEPK10MethodInfoPvPS4_
q_a:__ZN6prcoreL12RemapGenericI17TexFormatARGB888815TexFormatRGB565EEvPKNS_9InnerInfoE
w4:__ZN4FMOD7Channel19setReverbPropertiesEPK29FMOD_REVERB_CHANNELPROPERTIES
xoa:__ZN13MonoBehaviour22GetScriptFullClassNameEv
gBp:_List_1_AddEnumerable_m1683884858_gshared
Pod:__ZN11MinMaxCurve19GetWritableMinCurveEv
Rjn:_RIPEMD160Managed_JJ_m112143231
pYo:_List_1_System_Collections_IList_Contains_m727430316_gshared
l3e:__ZN5physx6shdfnd4sortIPNS_15PxsContactPatchENS_27SortBoundsPredicateManifoldENS0_19ReflectionAllocatorIS3_EEEEvPT_jRKT0_RKT1_j
GVc:__Z48Register_UnityEngine_GameObject_BroadcastMessagev
Nhc:__ZN13BatchRendererC2ER15RenderLoopStatsRK15RenderNodeQueuebb
ESb:__ZNK16MemoryFileSystem9EnumerateEPKcP19dynamic_block_arrayI13FileEntryInfoLj32EEbPPv19FileEnumerationFlag
J7b:__ZN13MonoBehaviour9CallAwakeEv
vZf:_U3CStartU3Ec__Iterator0_Reset_m455768637
kpb:__ZN20SphericalHarmonicsL211AddWeightedERKS_f
nPi:__Z82RuntimeInvoker_RuntimeObject_Int64_t3736567304_Int64_t3736567304_Int64_t3736567304PFvvEPK10MethodInfoPvPS4_
gwj:__Z14bankers_roundff
SYb:__Z19TransferField_ArrayI17RemapPPtrTransfer27Converter_SimpleNativeClassI8GUIStyleEEvRK23StaticTransferFieldInfoR31RuntimeSerializationCommandInfoRT0_
h0f:_EdgeDetection_CheckResources_m3462534718
Hnm:_KeyCollection__ctor_m519696123_gshared
I9c:__ZN9JSONWrite8TransferI10ColorRGBAfEEvRT_PKc17TransferMetaFlags
_Yd:__ZN5physx3Cct26CharacterControllerManager16createControllerERKNS_16PxControllerDescE
Ipa:__Z25scripting_method_get_name18ScriptingMethodPtr
TCk:_SslCipherSuite_ComputeKeys_m661027754
jXb:__Z19TransferField_ArrayI14SafeBinaryRead16Converter_StringEvRK23StaticTransferFieldInfoR31RuntimeSerializationCommandInfoRT0_
Gjd:__ZN14ParticleSystem17SimulateParticlesER24ParticleSystemUpdateDataR23ParticleSystemParticlesjRKfPj
hwn:_Decimal_Equals_m2486655999
lUg:_GC_exit_check
j1h:__ZL107RenderTexture_t2108887433_CustomAttributesCacheGenerator_RenderTexture_GetTemporary_m1832746092____vrUsage7P21CustomAttributesCache
yJ:__ZN7mecanim9animation9DenseClip8TransferI14SafeBinaryReadEEvRT_
Vvd:__ZL24GenerateParticleGeometryIL24ParticleSystemRenderMode0ELb1ELb1EL25ParticleSystemRenderSpace4EEvPfRK22ParticleSystemTempDataRK26ParticleSystemRendererDataRK21ParticleSystemModulesRK23ParticleSystemParticlesRK31ParticleSystemParticlesTempData
HPd:__ZNK5physx2Gu15OBBTriangleTest10obbTriTestERKNS_6PxVec3ES4_S4_
Twl:_MonoField_ToString_m2518484388
hOn:_DSAManaged_get_Random_m923751780
wto:_Transform_1_Invoke_m2385719192_gshared
fzd:__ZN10SizeModuleC2E10MemLabelId
W7f:_Vector3_set_Item_m1772472431_AdjustorThunk
r5n:_Interpreter_PopulateGroup_m4042796257
Voo:_Type_GetProperty_m3414567179
Wtc:__ZNSt3__26vectorINS_4pairIN4core12basic_stringIcNS2_20StringStorageDefaultIcEEEES6_EE13stl_allocatorIS7_L18MemLabelIdentifier38ELi16EEE6insertENS_11__wrap_iterIPKS7_EERSD_
dYm:_RenderPipelineManager_DoRenderLoop_Internal_m3799666479
j2o:_Array_InternalArray__get_Item_TisActionState_t1840973484_m1610023540_gshared
IU:__ZN9BlobWrite8TransferI22OffsetPtrArrayTransferI9OffsetPtrIN7mecanim12statemachine18StateMachineMemoryEEEEEvRT_PKc17TransferMetaFlags
hXg:__ZN6il2cpp2os12Cryptography23GetCryptographyProviderEv
zVp:_Collection_1_System_Collections_IList_IndexOf_m3894953546_gshared
YMp:_Queue_1_Dequeue_m2346748943_gshared
FLl:_NameObjectCollectionBase_Init_m2525481323
mPg:__ZN6il2cpp2vm6String8NewUtf16EPKDsi
vRj:_SByte_System_IConvertible_ToByte_m2268214252_AdjustorThunk
oMg:__ZN6il2cpp2os10ThreadImpl12QueueUserAPCEPFvPvES2_
Uco:_RegularExpression__ctor_m119502265
ZPf:__ZN22BaseUnityConnectClient10QueueEventERN11UnityEngine15CloudWebService17CloudServiceEventEPKcjb
Y2p:_ReadOnlyCollection_1_System_Collections_Generic_ICollectionU3CTU3E_Clear_m522482168_gshared
z_g:_SocketAsyncResult_Complete_m3054928721
_2j:_ConstructionCall_InitMethodProperty_m2021094586
ny:__ZZL16ClipDetailMeshesR13dynamic_arrayIP17ClippedDetailMeshLj4EERK11DynamicMeshRK10DetailMeshPK11NavMeshTileRK8Vector3ffEN12ClipCallback7processES9_RK14DetailMeshPolyPKii
AVd:__ZNK5physx2Gu15HeightFieldUtil12traceSegmentI25CapsuleTraceSegmentReportLb0ELb0ELb1EEEvRKNS_6PxVec3ES6_PT_PS5_
kZo:_Array_Sort_TisChar_t3634460470_m2306966989_gshared
Zid:__Z9UpdateTplIL27ParticleSystemCurveEvalMode1EEvRK11MinMaxCurveR23ParticleSystemParticlesjjbjRK8Vector2f
oXe:__ZN5physx10PxsContext23prepareCMDiscreteUpdateEPNS_10PxBaseTaskE
xqa:__ZNK14SerializedFile12GetHighestIDEv
jrf:__Z43Register_UnityEngine_SpringJoint_set_damperv
wmi:__ZL74CanvasScaler_t2767979955_CustomAttributesCacheGenerator_m_DefaultSpriteDPIP21CustomAttributesCache
Lhe:__ZN5physx6shdfnd5ArrayIPvNS0_19ReflectionAllocatorINS_2Cm5BlockIhLj256EEEEEE4copyINS0_15InlineAllocatorILj256ES7_EEEEvRKNS1_IS2_T_EE
Tg:_emscripten_glGetError
Ztg:__ZN15dense_hashtableINSt3__24pairIK10KeyWrapperIPK14Il2CppAssemblyEPK22Il2CppMonoAssemblyNameEES6_N6il2cpp5utils11PointerHashIS4_EEN14dense_hash_mapIS6_SA_SF_NS6_14EqualsComparerINS0_8equal_toIS5_EEEENS0_9allocatorISB_EEE9SelectKeyESK_SM_E14squash_deletedEv
lCl:_SmallXmlParser__ctor_m202236734
h5:__Z14FMOD_FILE_SeekPvjS_
ple:__ZN5physx6shdfnd8PoolBaseINS_11NpAggregateENS0_19ReflectionAllocatorIS2_EEE15disposeElementsEv
Gdk:_CanvasUpdateRegistry__ctor_m2005397069
Vpb:__ZN7TextureC2E10MemLabelId18ObjectCreationMode
rym:_LayoutGroup__ctor_m2162961217
OUd:__ZThn4_N16RayRTreeCallbackILi1ELb1EE14processResultsEjPj
frc:__ZNK13RenderTexture32CalculateNeedsInvertedProjectionEv
tZd:__ZN5physx2Gu17RadixSortBuffered4SortEPKfj
$g:emscriptenWebGLGet
dBa:__Z19CanReplaceComponentRN5Unity9ComponentEPKNS_4TypeEPN4core12basic_stringIcNS5_20StringStorageDefaultIcEEEE
H6k:_UnmanagedMemoryStream_Flush_m1540584491
qcn:_XmlSchemaDocumentation_Read_m3738019644
fFn:_GuidParser_ParseGuid2_m1914838819
YDc:__ZN12CubemapArray11InitTextureEiii13TextureFormatb
I_a:__ZN6prcoreL18BlitIntegerToFloatERK14ImageReferenceRS0_
zud:__ZN32CustomDataModulePropertyBindings13SetFloatValueER14ParticleSystemif
lPc:__Z17GetSceneBuildInfoRKN4core12basic_stringIcNS_20StringStorageDefaultIcEEEEiR14SceneBuildInfo
GUj:_MonoMethodInfo_GetCallingConvention_m3156036493
cNk:_InternalEnumerator_1_System_Collections_IEnumerator_get_Current_m55999184_gshared
_5g:_X509CertificateEnumerator_get_Current_m364341970
Zgh:_XsdGYear__ctor_m2629246681
zNn:_BitConverterLE_GetULongBytes_m1393773100
Xhk:_Graphic_get_depth_m815589653
u4d:__ZN27ConvexVsMeshOverlapCallbackC2ERKN5physx2Gu10ConvexMeshERKNS0_11PxMeshScaleERKNS0_2Cm23FastVertex2ShapeScalingERKNS0_11PxTransformESE_bRKNS1_3BoxE
sNc:__Z18SetIParticleSystemP15IParticleSystem
_Zf:_PostEffectsBase_CheckSupport_m2449300828
pV:__ZN7mecanim5human13HumanFixTwistEPKNS0_5HumanEPNS_8skeleton13SkeletonPoseTIN4math4trsXEEES9_iiRKf
gPf:__ZN11UnityEngine15PlatformWrapper12GetBuildTagsEv
dlc:__ZL24AssignProjectorQueuesJobP30AssignProjectorQueuesJobHeader
wom:_KeyCollection_System_Collections_Generic_ICollectionU3CTKeyU3E_Add_m1068121986_gshared
gKi:_ChainValidationHelper_GetStatusFromChain_m788162461
WBl:_X509ExtensionCollection_get_Item_m1319135156
lIg:__ZN14dense_hash_mapI10KeyWrapperIP12Il2CppObjectEN6il2cpp2gc9CachedCCWENS4_5utils11PointerHashIS1_EENS3_14EqualsComparerINSt3__28equal_toIS2_EEEENSB_9allocatorINSB_4pairIKS3_S6_EEEEEC2EjRKS9_RKSE_
Dgg:__ZN15dense_hashtableINSt3__24pairIK10KeyWrapperIN6il2cpp5utils13dynamic_arrayIPK10Il2CppTypeLj4EEEEPFvvEEESA_NS3_8metadata19Il2CppSignatureHashEN14dense_hash_mapISA_SD_SG_NSA_14EqualsComparerINSF_22Il2CppSignatureCompareEEENS0_9allocatorISE_EEE9SelectKeyESK_SM_E4swapERSP_
uGn:_Int16_System_IConvertible_ToUInt32_m3410279543
kOa:__ZN9ShaderLab20SerializedSubProgram14SetConstBufferEPKci
aid:__ZN11ShapeModule9ResetSeedERK27ParticleSystemReadOnlyState
tng:__ZN6il2cpp2os4File5CloseEPNS0_10FileHandleEPi
cgg:__ZNSt3__27__sort5IRN6il2cpp5utils11collections13ArrayValueMapIPK10Il2CppType17Il2CppInteropData26InteropDataToTypeConverterNS1_8metadata14Il2CppTypeLessENSA_26Il2CppTypeEqualityComparerEE12SortComparerEPS8_EEjT0_SH_SH_SH_SH_T_
qof:__ZN13PhysicsModule17SetRigidBodyStateER9RigidbodyRKN8IPhysics14RigidBodyStateE
Zko:_Thread_GetDomain_m1615404259
z3p:_ReadOnlyCollection_1_System_Collections_Generic_ICollectionU3CTU3E_Add_m1324959056_gshared
Tsf:_cf2_getStdVW
RVf:_MouseLook_SetCursorLock_m464164828
iqo:_UInt16_CompareTo_m2664746316_AdjustorThunk
yPl:_EnumConverter_ConvertTo_m1137837802
xPa:__ZN9GfxDevice13SetActiveTierE12GraphicsTier
qOe:__ZN5physx2Sq12BucketPruner11shiftOriginERKNS_6PxVec3E
ued:__Z29Transfer_Blittable_ArrayFieldI8JSONReadjEvRT_R9ArrayInfoRK23StaticTransferFieldInfo
K7d:__ZN5physx6shdfnd5ArrayIPNS_2Sc16ArticulationCoreENS0_19ReflectionAllocatorIS4_EEE15growAndPushBackERKS4_
HKc:__ZL25DrawMeshNowFromScriptImplR4MeshiRK10Matrix4x4f13TransformType
rUg:_GC_check_finalizer_nested
Kkk:_Image__cctor_m1927508576
ocl:_DTDReader_CompileDeclaration_m3829291154
Jh:__setLetterbox
Izl:_Uri_Unescape_m2035793241
M1e:__ZN5physx19normalizePartitionsERNS_6shdfnd5ArrayIjNS0_19ReflectionAllocatorIjEEEEPNS_23PxcSolverConstraintDescEPKNS_13PxcSolverBodyEjjS5_
UIm:_Array_InternalArray__ICollection_Contains_TisResourceCacheItem_t51292791_m2991582559_gshared
Dkp:_Array_InternalArray__set_Item_TisContactPoint2D_t3390240644_m3869682790_gshared
Qfq:_XmlNodeListChildren_Item_m2626929990
LEi:_FtpDataStream_EndWrite_m2288126240
a7h:__ZL72FormerlySerializedAsAttribute_t2859083114_CustomAttributesCacheGeneratorP21CustomAttributesCache
CQd:__ZN18ContactCapsuleMesh20processTriangleCacheILj16EEEbRN5physx2Gu13TriangleCacheIXT_EEE
sem:_Enumerator_System_Collections_IEnumerator_Reset_m3724637148_gshared
d8n:_PatternCompiler_EmitFastRepeat_m3012952683
$Cb:__ZNSt3__26vectorI17BlendShapeChannelNS_9allocatorIS1_EEE6assignINS_11__wrap_iterIPS1_EEEENS_9enable_ifIXaasr21__is_forward_iteratorIT_EE5valuesr16is_constructibleIS1_NS_15iterator_traitsISA_E9referenceEEE5valueEvE4typeESA_SA_
Yyl:_StrongName__ctor_m3939359439
bwc:__ZN11TimeManager11GetRealtimeEv
S$o:_Dictionary_2_Do_ICollectionCopyTo_TisRuntimeObject_m157696431_gshared
r3d:__ZN5physx2Sc16InteractionScene25removeFromActiveActorListERNS0_5ActorE
ojg:__ZN6il2cpp6icalls6System6System3Net7Sockets6Socket4BindEiP19Il2CppSocketAddressPi
B5:__ZN29AudioEffectInternalDefinitionC2EP26UnityAudioEffectDefinitionb
B_i:__Z133RuntimeInvoker_Void_t1185182177_RuntimeObject_RuntimeObject_RuntimeObject_RuntimeObject_RuntimeObject_RuntimeObject_Int32_t2950945753PFvvEPK10MethodInfoPvPS4_
Gcl:_DTDReader_ReadAttributeDefaultValue_m3369915366
Bqo:_UInt16_ToString_m3056878594_AdjustorThunk
Qhd:__ZNK11MinMaxCurve20FindMinMaxIntegratedEv
C_d:__ZN5physx3Ext21InertiaTensorComputer6rotateERKNS_7PxMat33E
QBn:_CultureInfo_get_IcuName_m2258611679
Mbn:_Time_get_unscaledDeltaTime_m4270080131
nKq:_GeneralBasicsJS_U24advancedExamplesU24closureU2410_m3910138527
IIi:_IPv6Address__ctor_m3704187391
MQf:__ZN18UnityConnectClient27OnPlayerSessionStateChangedEjyy
bYi:__Z110RuntimeInvoker_Void_t1185182177_RuntimeObject_StreamingContext_t3711869237_Int32_t2950945753_Int32_t2950945753PFvvEPK10MethodInfoPvPS4_
pZa:_stbir_resize
pOg:__ZN15dense_hashtableINSt3__24pairIK10KeyWrapperIPK19Il2CppGenericMethodEP10MethodInfoEES6_N6il2cpp8metadata23Il2CppGenericMethodHashEN14dense_hash_mapIS6_S9_SD_NS6_14EqualsComparerINSC_26Il2CppGenericMethodCompareEEENS0_9allocatorISA_EEE9SelectKeyESH_SJ_EC2ERKSM_j
kfo:_DecoderExceptionFallback_Equals_m1082173956
ati:__ZL47Blur_t1038294851_CustomAttributesCacheGeneratorP21CustomAttributesCache
pzh:__ZL69Assembly_t_CustomAttributesCacheGenerator_Assembly_GetName_m981771927P21CustomAttributesCache
ktj:_CollisionProcessor_CleanRegistrationData_m2737197236
FEd:__ZN24b2ChainAndCapsuleContact6CreateEP9b2FixtureiS1_iP16b2BlockAllocator
cmq:_XmlValidatingReader_get_LocalName_m3935686416
Lhn:_XmlSchemaReader_Equals_m4279209738
udb:__Z37ReadDirectoryInfo_UnityWebAndUnityRawR12FileAccessorRKN20ArchiveStorageHeader6HeaderERNS1_13DirectoryInfoE
yxq:_PKCS12_get_Keys_m3893933360
oAa:__ZNSt3__26__treeINS_12__value_typeIPKciEENS_19__map_value_compareIS3_S4_15compare_tstringIS3_ELb1EEENS_9allocatorIS4_EEE7destroyEPNS_11__tree_nodeIS4_PvEE
J9p:_Comparison_1_Invoke_m1263512824_gshared
nip:_Array_InternalArray__Insert_TisIntPtr_t_m189626842_gshared
j4g:_X509Certificate2_get_IssuerName_m1277209535
INk:_InternalEnumerator_1_System_Collections_IEnumerator_get_Current_m2062365953_AdjustorThunk
xAp:_RijndaelManaged_CreateEncryptor_m263736311
nic:__ZN20DynamicPropertySheet14SetValueQueuedEN9ShaderLab16FastPropertyNameEN19ShaderPropertySheet12PropertyTypeEjNS2_8SetFlagsE
aKf:__ZN2UI6Canvas26MarkAllNestedCanvasesDirtyEv
KEg:__ZN6il2cpp2vm12ReboxIfBoxedEP14Il2CppIUnknownP11Il2CppClass
j9b:__ZN25PathNamePersistentManagerD2Ev
$ma:__ZN17PersistentManager48IntegrateObjectAndUnlockIntegrationMutexInternalEi
j3q:_NavMeshAgent_INTERNAL_CALL_SetDestination_m233602864
Dcl:_DTDReader_AppendValueChar_m587902524
cHa:__ZZ29InitializeSortingGroupManagerPvEN44PostLateUpdateSortingGroupsUpdateRegistrator7ForwardEv
igi:__ZL55EventTrigger_t1076084509_CustomAttributesCacheGeneratorP21CustomAttributesCache
KYl:_SecurityElement_SearchForChildByTag_m900466299
xmh:_XmlTextReader_get_CloseInput_m2055464539
cs:__ZN6Object12SetHideFlagsENS_9HideFlagsE
Scn:_XmlSchemaElement_get_FinalResolved_m4052209625
QDd:__ZN9b2Fixture11SynchronizeEP12b2BroadPhaseRK11b2TransformS4_
Fhf:__ZN9Rigidbody23VirtualRedirectTransferER14SafeBinaryRead
TNn:_CryptoConvert_FromCapiPublicKeyBlob_m4073029974
B4f:_WaypointProgressTracker_Reset_m1659377711
yfc:__ZN13RendererScene15InitializeUmbraEv
DSl:_UInt16Converter_ConvertToString_m4283251209
anb:__Z28CalculateGlobalMatrixInverse23TransformAccessReadOnly
And:__ZN23ParticleSystemParticles17SetUsesCustomDataEi
FJo:_GenericEqualityComparer_1_Equals_m3457564127_gshared
dtk:_BigInteger_ModInverse_m2426215562
wcm:_Enumerator_System_Collections_IDictionaryEnumerator_get_Value_m3051468634_gshared
gfo:_DecoderExceptionFallback__ctor_m4044614564
Jve:__ZNK5physx15PxsParticleData15getWorldBoundsVEv
Nef:__ZN15CapsuleCollider13AwakeFromLoadE17AwakeFromLoadMode
P6k:_LocalDataStoreSlot__cctor_m644942532
yWd:__ZN12_GLOBAL__N_124HfTrianglesEntityReport27onEventEjPj
O2f:_U3CFOVKickUpU3Ec__Iterator0_Reset_m1175024232
MUj:_MonoProperty_CachePropertyInfo_m2968057423
uTf:__ZNK25UnityWebRequestJavaScript18GetDownloadedBytesEv
UPk:_InternalEnumerator_1_System_Collections_IEnumerator_get_Current_m3198942301_AdjustorThunk
M5m:_Ray_GetPoint_m1852405345_AdjustorThunk
Kge:__ZN5physx17PxsContactManager16resetCachedStateEv
mTf:__ZN12HeaderHelper14SetUnvalidatedERKN4core12basic_stringIcNS0_20StringStorageDefaultIcEEEES6_b
z1:__ZN4FMOD6SoundI7releaseEv
GAe:__ZN5physx20NpRigidActorTemplateINS_14PxRigidDynamicEE15setActorSimFlagEb
gFb:__ZN14SpriteRenderer13AwakeFromLoadE17AwakeFromLoadMode
S7:__ZN5audio5mixer13GroupConstant8TransferI14SafeBinaryReadEEvRT_
vuf:_cff_parse_num
Ydb:__ZN10MemoryFile9SetLengthEy
dF:__ZN7mecanim10ValueArray8TransferI19StreamedBinaryWriteILb0EEEEvRT_
X_b:__ZN5RectTIiE8TransferI24GenerateTypeTreeTransferEEvRT_
l8b:__Z28scripting_class_is_interface17ScriptingClassPtr
aj:_glTexStorage2D
HNa:__ZNK9ShaderLab10SubProgram14EnsureCompiledEv
y3n:_DateTime_CompareTo_m3687348273
gTg:_GC_push_marked
Z3n:_DateTime_ToUniversalTime_m1945318289_AdjustorThunk
Mkf:__ZN5physx7profile10DataBufferINS_6shdfnd6MutexTINS0_26WrapperReflectionAllocatorIhEEEENS0_14ScopedLockImplIS6_EEE17handleBufferFlushEPKhj
eAj:_TextObject_UpdateRandomCharacters_m3562137308
ypa:__Z18BuildScriptClassId17ScriptingClassPtr
VXq:_TextGenerator_Init_m1168488231
f6f:_Transform_LookAt_m3649447396
F3o:_Array_InternalArray__get_Item_TisKeyCode_t2599294277_m2562599561_gshared
wWj:_TypeDelegator_GetElementType_m4265261164
xbb:__ZL31DeleteLastPathNameComponentImplRKN4core12basic_stringIcNS_20StringStorageDefaultIcEEEEPKc
NAc:__Z13RegisterClassI18DelayedCallManagerEvv
kQf:__ZN18UnityConnectClient15GetCloudServiceEv
eZb:__Z18Transfer_BlittableI24GenerateTypeTreeTransferLb0EiEvRK29SerializationCommandArgumentsR31RuntimeSerializationCommandInfo
x4e:__ZN5physx20PxsConstraintProjectEPKNS_13PxsConstraintEbf
poe:__ZN5physx7NpShape7setFlagENS_11PxShapeFlag4EnumEb
XTk:_InternalEnumerator_1_get_Current_m2698009637_gshared
jEd:__ZN15b2CircleContact6CreateEP9b2FixtureiS1_iP16b2BlockAllocator
e8b:__ZL28SerializationCommandGroupForRK31TransferFunctionScriptingTraits17ScriptingClassPtr17ScriptingFieldPtrRK20CoreScriptingClasses
Dgb:__ZN10TagManager32RegisterDefaultTagsAndLayerMasksEv
pmo:_WaitHandle_Dispose_m738127030
cSi:__Z50RuntimeInvoker_Double_t594665363_Int32_t2950945753PFvvEPK10MethodInfoPvPS4_
u0e:__ZN5physx2Sc35ParticleElementRbElementInteraction12onDeactivateEj
kPm:_Array_InternalArray__IndexOf_TisUriScheme_t2867806342_m2312428470_gshared
Nhg:__ZN15dense_hashtableINSt3__24pairIK10KeyWrapperIPKcEP11Il2CppClassEES5_N6il2cpp5utils11StringUtils12StringHasherIS4_EEN14dense_hash_mapIS5_S8_SE_NS5_14EqualsComparerINSB_13VmStringUtils21CaseSensitiveComparerEEENS0_9allocatorIS9_EEE9SelectKeyESJ_SL_E15insert_noresizeERKS9_
PRo:_Enumerator_System_Collections_IEnumerator_get_Current_m1540440674_gshared
r8g:_DTDAttListDeclaration_Add_m130084984
R2l:_Single_System_IConvertible_ToInt16_m809233024_AdjustorThunk
vff:__ZN19CharacterController9GetBoundsEv
jJq:___GeneralSimpleUiJSU24callable5U2428_25___Invoke_m1567969162
HFg:__ZN6il2cpp2vm5Image13ClassFromNameEPK11Il2CppImagePKcS6_
iKh:__ZL101Thread_t2300836069_CustomAttributesCacheGenerator_Thread_t2300836069____ExecutionContext_PropertyInfoP21CustomAttributesCache
Aum:_InputField_UpdateLabel_m1837760870
FVa:__ZN4gles8InitCapsEP7ApiGLESP12GraphicsCapsR16GfxDeviceLevelGL
QFp:_List_1_System_Collections_IList_Remove_m2488771756_gshared
fTa:__ZN13GfxDeviceGLES22GetNativeBufferPointerEP9GfxBuffer
VZi:__Z91RuntimeInvoker_Void_t1185182177_RuntimeObject_RuntimeObject_Int32_t2950945753_RuntimeObjectPFvvEPK10MethodInfoPvPS4_
Xjb:__Z24CalculateVertexLightDataRK15SharedLightDataR14GfxVertexLight
Kj:_glEnable
Ls:__ZN7NavMesh10RemoveTileEyiPPKhPi
ENa:__ZNK9ShaderLab7Program28BeginReadUnsupportedVariantsEv
LOe:__ZN5physx2Sq10AABBPrunerC2Eb
zwa:__ZN12CachedWriter11Align4WriteEv
vbp:_LTDescrImpl_set_loopType_m1340905040
cOh:__ZL113XmlSchemaImport_t3509836441_CustomAttributesCacheGenerator_XmlSchemaImport_t3509836441____Annotation_PropertyInfoP21CustomAttributesCache
zLb:__ZNSt3__26vectorIN30RuntimeInitializeOnLoadManager9ClassInfoE13stl_allocatorIS2_L18MemLabelIdentifier13ELi16EEE7reserveEj
aKe:__ZN5physx2Sq8AABBTreeC2Ev
K7n:_PatternCompiler_EmitCategory_m851169746
V9c:__Z35Transfer_Blittable_FixedBufferFieldI9JSONWriteiEvRK29SerializationCommandArgumentsR31RuntimeSerializationCommandInfo
zKq:_GeneralEventsListenersJS_OnMouseDown_m2038740228
Ben:_XmlSchemaFacet_get_IsFixed_m2758089070
Vtd:__ZN11TrailModuleD2Ev
Xug:__ZN14dense_hash_mapI10KeyWrapperINSt3__24pairIPK10MethodInfoP11Il2CppClassEEEj17ReflectionMapHashIS8_ENS9_14EqualsComparerINS1_8equal_toIS8_EEEENS1_9allocatorINS2_IKS9_jEEEEEC2EjRKSB_RKSF_
RR:__ZN26AnimatorControllerPlayable17ProcessRootMotionEP35AnimationPlayableEvaluationConstantP32AnimationPlayableEvaluationInputP33AnimationPlayableEvaluationOutput
twk:_RSAManaged_ImportParameters_m1117427048
Vdq:_XmlNamedNodeMap_get_Count_m252463603
lKq:_GeneralBasicsJS_advancedExamples_m1389426473
TUm:_ComputeBuffer__ctor_m365470372
OOf:__ZN11UnityEngine7Connect15DeviceInfoEvent16CollectExtraInfoEv
BXo:_List_1_System_Collections_IList_set_Item_m1215403826_gshared
HQg:__ZN6il2cpp2os11Environment22SetEnvironmentVariableERKNSt3__212basic_stringIcNS2_11char_traitsIcEENS2_9allocatorIcEEEESA_
z7e:__ZN5physx2Gu10ConvexMeshD2Ev
Dki:__ZL66Navigation_t3049316579_CustomAttributesCacheGenerator_m_SelectOnUpP21CustomAttributesCache
Qtg:__ZN6il2cpp2gc19AppendOnlyGCHashMapIPK10Il2CppTypeP20Il2CppReflectionTypeNS_8metadata14Il2CppTypeHashENS7_26Il2CppTypeEqualityComparerEEC2Ev
H8f:_Vector4_Equals_m1779210055_AdjustorThunk
xOj:_ObjectWriter_WriteTypeCode_m1789140116
Pmb:__ZN17LightBakingOutput8TransferI19StreamedBinaryWriteILb0EEEEvRT_
p1g:_WebException__ctor_m3600308346
Feb:__ZN20ArchiveStorageReader10InitializeER15FileSystemEntryyb
T5l:_StringComparer_Equals_m1418565653
Uwk:_Alert_GetAlertMessage_m1942367141
JLn:_ModulusRing_BarrettReduction_m167376748
n0j:_RemotingServices_GetRealProxy_m2081098851
JNn:_BlockProcessor_Core_m189015002
_fr:_emscripten_glScissor__wrapper
br:FUNCTION_TABLE_viifi
er:FUNCTION_TABLE_viiff
zRm:_AnimationCurve_GetKey_Internal_m1174643252
YRl:_TypeConverter_ConvertFrom_m415439298
Nao:_IntStack_set_Count_m1087380855
C1d:__ZNK5physx2Sc8ShapeSim10getBodySimEv
Rpo:_UInt16_System_IConvertible_ToDouble_m333121300_AdjustorThunk
Qsq:_ConfigurationSectionGroupCollection_GetEnumerator_m1592917982
XAl:_X501__cctor_m1166912714
Xrh:__ZL37Type_t_CustomAttributesCacheGeneratorP21CustomAttributesCache
hBf:_UNITY_tt_face_free_hdmx
OGd:__ZNSt3__26__sortIRN18Overlap2DQueryBase29ColliderHitsByDepthComparitorEPP10Collider2DEEvT0_S7_T_
P0l:_StrongNameMembershipCondition_Copy_m1906507748
pRi:__Z88RuntimeInvoker_RuntimeObject_RuntimeObject_RuntimeObject_Int32_t2950945753_RuntimeObjectPFvvEPK10MethodInfoPvPS4_
Ang:__ZN6il2cpp2vm14TypeNameParser5ParseEb
Ajq:_XmlStreamReader__ctor_m3403779607
G$k:_StreamWriter_Initialize_m3490883444
Qzi:_ServicePointManagerElement_get_DnsRefreshTimeout_m1941414748
hpo:_Type_GetGenericArguments_m3500465462
Phe:__ZN5physx6shdfnd5ArrayIPvNS0_19ReflectionAllocatorINS_2Cm5BlockIhLj128EEEEEE15growAndPushBackERKS2_
pSf:__ZN23UnityPurchasingSettingsC2Ev
PEb:__ZNK9Transform13GetWorldScaleEv
Uvl:_Module_IsDefined_m2423524910
E5g:_X509Certificate2Enumerator__ctor_m1083666285
Vai:__ZL60EventType_t3528516131_CustomAttributesCacheGenerator_repaintP21CustomAttributesCache
Iib:__ZN17GPUFenceInternals7ReleaseEv
qli:__ZL66Selectable_t3250028441_CustomAttributesCacheGenerator_m_NavigationP21CustomAttributesCache
Xoe:__ZN5physx14NpShapeManager15setupSceneQueryERNS_2Sq17SceneQueryManagerERKNS_12PxRigidActorERKNS_7NpShapeE
grc:__ZL10RenderFaceR9GfxDeviceR18MaterialStateCacheP13RenderTextureiif
t6n:_Interval_get_IsEmpty_m2731597232_AdjustorThunk
Fpl:_TypeBuilder_GetElementType_m1881206953
qKa:__ZN15SerializeTraitsI13dynamic_arrayIN9ShaderLab21SerializedBindChannelELj4EEE19ResizeSTLStyleArrayERS3_i
PYf:_TiltInput_OnEnable_m692757573
zwq:_ExtendedKeyUsageExtension_ToString_m2116504780
sOb:__ZNK5Unity9Component38MarkGameObjectAndComponentDependenciesER27GarbageCollectorThreadState
s5d:__ZN5physx3Scb5Scene15addArticulationERNS0_12ArticulationE
s4e:__ZN22ScAfterIntegrationTask11runInternalEv
B_k:_BinaryReader_Read_m3708759962
kak:_PointerEventData_IsPointerMoving_m1902409386
A9d:__ZNK5physx2Sc9ClothCore23getExternalAccelerationEv
lUd:__ZN5physx2Gu13coarseCullingERKNS_6PxVec3ES3_ffRKNS_10PxTriangleE
JOq:_DispatcherFactory_Invoke_m2833957726
zEf:__ZN13sorted_vectorIN20TextRenderingPrivate8FontImpl13CharacterInfoENSt3__24lessIS2_EE13stl_allocatorIS2_L18MemLabelIdentifier1ELi16EEE10insert_oneERKS2_
thr:_emscripten_glVertexAttrib2fv__wrapper
W0e:__ZN5physx2Sc5Scene29processNarrowPhaseTouchEventsEv
DYa:__ZN4crnd12symbol_codec32decode_receive_static_data_modelERNS_25static_huffman_data_modelE
zwc:__ZN18ScriptingArguments8AddFloatEf
Kt:__ZN12NavMeshAgent16AddToCrowdSystemEv
W$l:_PolicyLevel_CreateDefaultNamedPermissionSets_m1359142823
N4f:_TouchScreenKeyboard_Open_m3325559252
$jk:_Image_set_fillOrigin_m469806249
rIm:_Array_InternalArray__ICollection_Contains_TisKeyValuePair_2_t2488497980_m169799452_gshared
COf:__ZN11UnityEngine15PlatformWrapper16GetVRRenderScaleEv
Dbe:__ZN5physx6shdfnd5ArrayIPvNS0_15InlineAllocatorILj256ENS0_19ReflectionAllocatorINS_18NpArticulationLinkEEEEEE15growAndPushBackERKS2_
Vad:__Z18Transfer_BlittableI9JSONWriteLb0EaEvRK29SerializationCommandArgumentsR31RuntimeSerializationCommandInfo
Eif:__ZN5Unity11SpringJoint8TransferI19StreamedBinaryWriteILb0EEEEvRT_
Zfa:__ZN11UnityEngine15CloudWebService14DataDispatcher34OnSessionContainerArchivedAndReadyERNS0_16SessionContainerE
K2m:_ConnectionChangeEvent__ctor_m764126802
$Ad:__ZN7b2World11CreateJointEPK10b2JointDef
fkd:__ZN23ParticleSystemParticles20SetUsesTriggerEventsEb
LZd:__ZNK5physx3Cct15ObstacleContext11getObstacleEj
vQo:_Enumerator_VerifyState_m2621680056_gshared
lXq:_UriParser_InternalRegister_m3643767086
OIa:__ZN14SafeBinaryRead19TransferSTLStyleMapINSt3__23mapIN4core12basic_stringIcNS3_20StringStorageDefaultIcEEEEiNS1_4lessIS7_EENS1_9allocatorINS1_4pairIKS7_iEEEEEEEEvRT_17TransferMetaFlags
tzf:_gray_move_to
s$m:_Material_Internal_CreateWithShader_m2478666450
yun:_DBNull_System_IConvertible_ToSingle_m13713620
Y4o:_LeanAudio_play_m551216623
Ksg:__ZN6il2cpp2vm10Reflection14GetEventObjectEP11Il2CppClassPK9EventInfo
mkk:_Image_GetDrawingDimensions_m3060965396
r7h:__ZL69FontTextureRebuildCallback_t2467502454_CustomAttributesCacheGeneratorP21CustomAttributesCache
Cpo:_TypeLoadException__ctor_m1154572625
RRc:__Z30RegisterValidateMethodCallbackiPF18ScriptingMethodPtrS_17ScriptingClassPtrP6ObjectEPKc
_zk:_Context_get_WriteSequenceNumber_m1115956887
o1o:_Dictionary_2_Do_ICollectionCopyTo_TisKeyValuePair_2_t2401056908_m1169495264_gshared
bqo:_UInt16_System_IConvertible_ToType_m1028622578_AdjustorThunk
old:__Z25GetTransformationMatricesPN4math8float3x3ES1_bbRK10Matrix4x4fS4_
yek:_ContentSizeFitter__ctor_m2349275633
ANe:__ZN5physx13IslandManager6resizeEj
Gyf:_tt_cmap_init
lfd:__ZN8JSONRead8TransferI9BoundsIntEEvRT_PKc17TransferMetaFlagsb
fb:invoke_viidi
dyd:__Z17UpdateSprites2TplIL27ParticleSystemCurveEvalMode0ELS0_2EEvfRK11MinMaxCurveS3_RK23ParticleSystemParticlesPf
Tzi:_ServicePointManagerElement_set_EnableDnsRoundRobin_m2769557377
v6d:__ZN5physx6shdfnd8PoolBaseINS_2Cm5BlockIPvLj16EEENS0_19ReflectionAllocatorIS5_EEE17releaseEmptySlabsEv
xRj:_SByte_System_IConvertible_ToChar_m1489191771_AdjustorThunk
a0m:_Material_SetVector_m4214217286
a4:__ZN9AudioClip7CleanupEv
r5l:_String_Concat_m1809518182
gzg:__ZNK15dense_hashtableINSt3__24pairIK10KeyWrapperIP11Il2CppClassES4_EES5_N6il2cpp8metadata16SZArrayClassHashEN14dense_hash_mapIS5_S4_SA_NS5_14EqualsComparerINS9_19SZArrayClassCompareEEENS0_9allocatorIS7_EEE9SelectKeyESE_SG_E12test_deletedEj
LAq:_GUI_DrawTexture_m3124770796
O$n:_Convert_ToInt16_m1223489986
v_d:__ZL20updateMassAndInertiabRN5physx11PxRigidBodyEPKfjPKNS_6PxVec3Eb
Odd:__Z18Transfer_BlittableI8JSONReadLb0EdEvRK29SerializationCommandArgumentsR31RuntimeSerializationCommandInfo
Wkf:__ZN5physx24NpPtrTableStorageManagerC2Ev
KD:__ZN7mecanim9animation21BlendTreeNodeConstant35Transfer_4_0_BackwardsCompatibilityI14SafeBinaryReadEEvRT_
Hlr:_glCreateShader__wrapper
JNf:__Z44Register_UnityEngine_Canvas_set_sortingOrderv
e$q:_Canvas_get_referencePixelsPerUnit_m3420541976
KAn:_Environment_Exit_m313790512
Mpm:_KeyCollection_System_Collections_Generic_ICollectionU3CTKeyU3E_Add_m1432210887_gshared
$9f:_VertexHelper_Clear_m627349662
nkg:__ZN6il2cpp2vm21ThreadPoolCompartment13QueueWorkItemEP17Il2CppAsyncResult
S3o:_Array_InternalArray__get_Item_TisWorkRequest_t1354518612_m2694410850_gshared
hQa:__ZNK9GfxDevice13GetViewMatrixEv
I6k:_UnmanagedMemoryStream_Dispose_m2681886347
rGe:__ZN5physx7NpScene15flushSimulationEb
sOk:_InternalEnumerator_1_System_Collections_IEnumerator_get_Current_m1295084274_gshared
jne:__ZN5physx6shdfnd8PoolBaseINS_10NpMaterialENS0_19ReflectionAllocatorIS2_EEE12allocateSlabEv
Wqa:__ZN8TypeTree8BlobReadERPKhS1_ib
VFl:_Array_Reverse_m3714848183
Vdk:_CanvasUpdateRegistry_InternalRegisterCanvasElementForGraphicRebuild_m3522560454
t2f:_DynamicShadowSettings_Start_m2086057754
DXg:__ZN6il2cpp6icalls8mscorlib6System8Security15SecurityManager24get_CheckExecutionRightsEv
qea:__Z44Register_UnityEngine_AudioClip_Init_Internalv
Osj:_CollisionArea_AteAwake_m2330246876
WLb:__ZN18LoadSceneOperation23GetAllowSceneActivationEv
Mar:dynCall_vifiiiii
bhb:__ZN6CameraD0Ev
QFa:__ZN31CanvasBatchIntermediateRenderer16StaticInitializeEPv
LZf:_FireLight_Update_m3729116111
hR:__ZN7mecanim12AndValueMaskILb0EEEvPKNS_14ValueArrayMaskEPS1_
nLb:__ZN14SafeBinaryRead21TransferSTLStyleArrayINSt3__26vectorIi13stl_allocatorIiL18MemLabelIdentifier13ELi16EEEEEEvRT_17TransferMetaFlags
Sfo:_EncoderFallback__cctor_m3806755293
qFf:_raccess_guess_apple_double
dqf:__Z48Rigidbody_CUSTOM_INTERNAL_CALL_AddExplosionForceP12Il2CppObjectfRK8Vector3fffi
I0a:__ZL18ProgramUniform1uivPK7ApiGLESjiihPKv
fvd:__ZN27ShapeModulePropertyBindings13GetFloatValueERK14ParticleSystemi
gEc:__ZN14Texture2DArray13RebuildMipMapEv
Cdg:__ZN13Il2CppHashSetIPK17Il2CppGenericInstN6il2cpp8metadata21Il2CppGenericInstHashENS4_24Il2CppGenericInstCompareENSt3__29allocatorI10KeyWrapperIS2_EEEEC2EjRKS5_RKS6_
BUb:__Z18Transfer_BlittableI14SafeBinaryReadLb1EaEvRK29SerializationCommandArgumentsR31RuntimeSerializationCommandInfo
yNg:__ZN6il2cpp2gc16GarbageCollector14RemoveWeakLinkEPPv
lOa:__ZN9ShaderLab20SerializedSubProgram14AddVectorParamEPKcii15ShaderParamTypei
vem:_Enumerator_System_Collections_IDictionaryEnumerator_get_Entry_m2526097781_gshared
LXn:_Enumerator__ctor_m3362421874
V6i:__Z117RuntimeInvoker_CSSSize_t3377836552_IntPtr_t_Single_t1397266774_Int32_t2950945753_Single_t1397266774_Int32_t2950945753PFvvEPK10MethodInfoPvPS4_
_lr:_emscripten_glIsFramebuffer__wrapper
TUk:_InternalEnumerator_1_get_Current_m3515899965_gshared
xy:__ZN11DynamicMesh10DetailHullaSERKS0_
Zzg:__ZN6il2cpp2vm6Thread7SetNameEP12Il2CppThreadP12Il2CppString
B3e:__ZN5physx2Cm12DelegateTaskINS_2Sc5SceneEXadL_ZNS3_19islandGenSecondPassEPNS_10PxBaseTaskEEEE11runInternalEv
rac:__ZN13ScreenManager18SetAllowCursorLockEb
rha:__ZN11UnityEngine15CloudWebService10RestClientINS0_23WebRequestRestHeaderMapEE16SetRequestHeaderERKN4core12basic_stringIcNS4_20StringStorageDefaultIcEEEESA_
sLb:__ZN30RuntimeInitializeOnLoadManager15ClassMethodInfo8TransferI14SafeBinaryReadEEvRT_
C1l:_SecurityCriticalAttribute__ctor_m2491468454
xjd:__ZN23ParticleSystemParticles14element_assignEjj
Wca:__ZL22InitializeModule_Audiov
dOe:__ZN5physx2Sq11PruningPoolD0Ev
rSb:__ZN16MemoryFileSystem8IsLockedERK13FileEntryData
XVe:__ZN3MBP15removeBoxPrunerEj
XBg:__ZN6il2cpp6icalls8mscorlib6System2IO6MonoIO5WriteEiP11Il2CppArrayiiPi
v5k:_SynchronizedWriter_WriteLine_m1483335289
Hvd:__ZN14ParticleSystem23OnGeometryJobsScheduledEj
T0m:_Mathf_InverseLerp_m4155825980
wmk:_XmlSchemaXPath_Read_m1808832972
QVi:__Z92RuntimeInvoker_RuntimeObject_RuntimeObject_RuntimeObject_SByte_t1669577662_SByte_t1669577662PFvvEPK10MethodInfoPvPS4_
I0g:_WebConnectionStream_set_SendChunked_m532577291
ym:_emscripten_glBindRenderbuffer
iEj:_TriggeredBehaviour_FSM_EnteringComplete_m1967337309
d$g:_WebAsyncResult_WaitUntilComplete_m2339830740
mNl:_TypeConverter_GetConvertToException_m2521759357
gUg:_GC_dirty_init
Y6c:__Z33GUI_CUSTOM_INTERNAL_CALL_DoButtonRK5RectTIfEP12Il2CppObjectPv
hGg:__ZN6il2cpp2vm5Image33GetCachedMemoryMappedResourceFileEP24Il2CppReflectionAssembly
jJg:__ZN6il2cpp2vm5Field14GetValueObjectEP9FieldInfoP12Il2CppObject
iLf:__ZNK2UI6Canvas16GetTargetDisplayEv
LRd:__ZL15SweepBoxCapsulePKN5physx3Cct9SweepTestEPKNS0_11SweptVolumeEPKNS0_11TouchedGeomERKNS_14PxExtendedVec3ERKNS_6PxVec3ERNS0_12SweptContactE
FDa:__ZN6Object17FindObjectsOfTypeEPKN5Unity4TypeER13dynamic_arrayIPS_Lj4EEb
D7b:__ZN13MonoBehaviour17RemoveFromManagerEv
JNp:_Collection_1_System_Collections_ICollection_CopyTo_m2038435369_gshared
U7f:_Vector3_get_Item_m668685504_AdjustorThunk
B5e:__ZN5physx2Sc19ParticlePacketShapeD2Ev
Myb:__ZL11DecodeValuePPKcS0_
eBq:_GUIUtility_get_pixelsPerPoint_m2369948084
jMc:__Z20ReadObjectFromVectorILb0EEvR6ObjectRK13dynamic_arrayIhLj1EE24TransferInstructionFlags
s1l:_WindowsIdentity_System_Runtime_Serialization_IDeserializationCallback_OnDeserialization_m3428853631
Cka:__ZN13MemoryManagerC2Ev
B4a:__ZN12SkinMeshInfo10DeallocateEPS_
s1f:_SunShafts__ctor_m1764343977
ODm:_ScrollRect_SetDirty_m214267968
Emj:__Z74RuntimeInvoker_Int32_t2950945753_UIVertex_t4057497605_UIVertex_t4057497605PFvvEPK10MethodInfoPvPS4_
Jkn:_RSAParameters_t1728406613_marshal_pinvoke_cleanup
leb:__ZN20ArchiveStorageReader28AcquireAndPrefillUnusedBlockEjPNS_11CacheResultE
pHl:_Boolean_System_IConvertible_ToDateTime_m603510836
aEc:__Z12NHxRoughnessIA4_tEvP9Texture2DPT_iiii
KMn:_ASN1_get_Value_m1857007406
$3l:_String_System_Collections_IEnumerable_GetEnumerator_m3198926340
ZDa:__ZN18AsyncUploadManagerD2Ev
VPb:__ZN9Transform5ResetEv
Gxn:_DelegateSerializationHolder__ctor_m23226427
Kwn:_Decimal_op_Explicit_m1842265407
l$b:__Z22TransferField_NonArrayI24GenerateTypeTreeTransfer16Converter_StringEvRK23StaticTransferFieldInfoR31RuntimeSerializationCommandInfoRT0_
W$q:_CanvasRenderer_SetAlphaTexture_m2009567627
$uf:_UNITY_FT_CMap_New
AQk:_InternalEnumerator_1_get_Current_m4241643334_AdjustorThunk
PTp:_Collection_1_set_Item_m2389175716_gshared
kac:__Z17MainLoopKeepalivePv
m9d:__ZN5physx7NpScene16addActorInternalERNS_7PxActorE
Wpj:_AnimControl_OneShot__ctor_m244102395
qOl:_TypeDescriptor_GetComponentInfo_m3351380856
CXk:_InternalEnumerator_1_get_Current_m1588647567_AdjustorThunk
ckl:_Assembly_UnprotectedGetName_m600830855
Hrl:_ILGenerator_Emit_m2239205197
KCh:__ZL51GCHandle_t3351438187_CustomAttributesCacheGeneratorP21CustomAttributesCache
hxj:_GameManager_set_Instance_m2210222098
qpc:__Z14CalcHullBoundsPK8Vector3fPKhhRK5PlaneRK10Matrix4x4fR10MinMaxAABB
Tum:_InputField_get_caretBlinkRate_m3620074524
L4p:_ReadOnlyCollection_1_System_Collections_Generic_IListU3CTU3E_set_Item_m375376101_gshared
awl:_MonoCMethod_Invoke_m1340636245
iic:__Z19SetupLODFadeKeywordR17ShaderPassContexti
Zkn:_RSAPKCS1SignatureFormatter_CreateSignature_m3191980616
Zrb:__ZN10builtintex16GetDefaultTexEnvE16TextureDimensionb
dDq:_GUIStyleState_INTERNAL_get_textColor_m318472346
d4a:__ZL25CheckCopyTextureArgumentsRK7ApiGLESP11GLESTextureS3_
tvd:__ZN24UVModulePropertyBindings13AddPropertiesER10vector_mapIi22ParticleModulePropertyNSt3__24lessIiEENS2_9allocatorINS2_4pairIiS1_EEEEE
Mkr:_glDeleteShader__wrapper
GCq:_GUIStyle_GetStyleStatePtr_m751258175
N4o:_LeanAudio_options_m3240690122
K_b:__Z29Transfer_Blittable_ArrayFieldI24GenerateTypeTreeTransferyEvRT_R9ArrayInfoRK23StaticTransferFieldInfo
N4:__ZN4FMOD7SystemI9playSoundE17FMOD_CHANNELINDEXPNS_5SoundEbPPNS_7ChannelE
Moq:_ConfigurationCollectionAttribute__ctor_m2187412888
_yn:_Int64_GetHashCode_m703091690
pof:__ZN13PhysicsModule31GetColliderComponentsInChildrenERK10GameObjectbbR13dynamic_arrayIPN5Unity9ComponentELj4EE
DHb:__ZN19StreamedBinaryWriteILb0EE21TransferSTLStyleArrayINSt3__26vectorI17SubstanceEnumItemNS2_9allocatorIS4_EEEEEEvRT_17TransferMetaFlags
Qzq:_Event_get_commandName_m4275147343
Hpm:_KeyCollection_System_Collections_ICollection_get_SyncRoot_m2887133965_gshared
gR:__ZN27AnimationLayerMixerPlayable17LayerMixerProcessEP35AnimationPlayableEvaluationConstantP32AnimationPlayableEvaluationInputP33AnimationPlayableEvaluationOutputM17AnimationPlayableFvS1_S3_S5_EMS_FvS1_S3_S5_ESA_MS_FvS5_S1_S3_S5_ifE
xng:__ZN6il2cpp2os4File4ReadEPNS0_10FileHandleEPciPi
m3:__ZN12AudioManager23VirtualRedirectTransferER18StreamedBinaryReadILb0EE
fPi:__Z60RuntimeInvoker_RuntimeObject_RuntimeObject_Int16_t2552820387PFvvEPK10MethodInfoPvPS4_
KCb:__ZN10VertexData13SwapEndianessEv
r$k:_StreamReader__ctor_m3941437302
vud:__ZN27ColorModulePropertyBindings13GetFloatValueERK14ParticleSystemi
j1c:__Z57Register_UnityEngine_Transform_INTERNAL_get_localRotationv
ppn:_IsolatedStorageFilePermission__ctor_m3391652299
Xbr:dynCall_viif
Ldp:_LTSpline_ratioAtPoint_m1723157471
iYl:_HttpWebRequestElement_set_MaximumUnauthorizedUploadLength_m471420178
DCj:_RotateObject_FixedUpdate_m627740368
P4k:_StringReader_ReadLine_m2337102945
xTo:_List_1_System_Collections_IList_Add_m2120347478_gshared
u4e:__ZN5physx2Sc24ConstraintProjectionTree11projectPoseERNS0_19ConstraintGroupNodeE
qYb:__ZL26Transfer_SimpleNativeClassI17RemapPPtrTransfer8GradientLb0EEvRK29SerializationCommandArgumentsR31RuntimeSerializationCommandInfo
uwd:__ZL32TransformParticleMeshAnimatedUVsILb1EEvRK16ParticleMeshDataiRK22ParticleSystemTempDataRK31ParticleSystemParticlesTempData11ColorRGBA32RK26ParticleSystemRendererDataRK21ParticleSystemModulesRK10Matrix4x4fRK10Matrix3x3fRK8Vector3fRK23ParticleSystemParticlesjPPhPPf
TS:__ZN17AnimationPlayable26DisconnectNoTopologyChangeEPS_i
OHl:_Boolean_Equals_m2410333903_AdjustorThunk
alg:__ZN6il2cpp6icalls8mscorlib6System8MonoType14get_attributesEP20Il2CppReflectionType
xof:__ZN13PhysicsModule29GetColliderMaterialInstanceIDER8Collider
Z5p:_ReadOnlyCollection_1_System_Collections_IList_Insert_m2406504227_gshared
tFi:_FtpWebRequest_get_DataType_m3448270912
Gcr:dynCall_viifffi
mia:__ZN13UploadHandlerD2Ev
x9q:dynCall_viiiiiffi
M$l:_PolicyException__ctor_m2559759454
Qd:_emscripten_glBlendFuncSeparate
fon:_EnvironmentPermission__ctor_m592705807
Qoa:__Z20scripting_string_newPKc
a_c:__Z43Material_CUSTOM_Internal_CreateWithMaterialP12Il2CppObjectS0_
Zco:_Parser_IsSingleline_m326238187
BPn:_KeyGeneratedEventHandler_Invoke_m2527485594
Pyp:_HMAC__ctor_m97939284
oFg:__ZNK24NamespaceAndNamePairHashclERKNSt3__24pairIPKcS3_EE
OYo:_List_1_GetEnumerator_m730414427_gshared
r9c:__ZN9JSONWrite12AppendToNodeEPN5Unity9rapidjson12GenericValueINS1_4UTF8IcEE13JSONAllocatorEEPKcRS6_
RMn:_ASN1_ToString_m1340204511
CDd:__ZN16PhysicsManager2D20GetRigidBodyVelocityERK11Rigidbody2D
k5g:_X509Store_get_Certificates_m2149701265
grf:__Z44Register_UnityEngine_Joint_set_connectedBodyv
Noo:_Type_GetField_m2961003358
FY:__ZN6Avatar23VirtualRedirectTransferER17RemapPPtrTransfer
Rhi:__ZL144StandaloneInputModule_t2760469101_CustomAttributesCacheGenerator_StandaloneInputModule_t2760469101____allowActivationOnMobileDevice_PropertyInfoP21CustomAttributesCache
v8e:__ZThn8_N5physx2Gu11HeightFieldD1Ev
jng:__ZN6il2cpp2os4File17GetFileAttributesERKNSt3__212basic_stringIcNS2_11char_traitsIcEENS2_9allocatorIcEEEEPi
rde:__ZNK5physx19PxArticulationJoint19getConcreteTypeNameEv
ZV:__ZNSt3__26__sortIRPFbPKN8Animator11AnimatorJobES4_EPS4_EEvT0_S9_T_
r2:__ZN17AudioCustomFilterD2Ev
rCk:_ReceiveRecordAsyncResult_SetComplete_m1568733499
u2a:__ZN18GfxFramebufferGLES18ReleaseFramebufferEP17RenderSurfaceBaseP14GfxContextGLES
Ecd:__Z18Transfer_BlittableI8JSONReadLb1EiEvRK29SerializationCommandArgumentsR31RuntimeSerializationCommandInfo
Bja:__ZN19CloudServiceHandler34HandleSaveFileWebRequestPlayerLoopEv
FS:__ZN7mecanim21ValueArrayReverseCopyEPKNS_18ValueArrayConstantEPKNS_10ValueArrayES2_PS3_PKi
$1:__Z31GetParentSampleClipFromInstancePN11SoundHandle8InstanceE
mCc:__ZNK28RectTransformPropertyBinding13GetFloatValueERKN11UnityEngine9Animation10BoundCurveE
Drc:__ZN6Camera22StandaloneCustomRenderENS_10RenderFlagEP6ShaderRKN4core12basic_stringIcNS3_20StringStorageDefaultIcEEEEPNS_21PerformRenderFunctionE
FPm:_Array_InternalArray__IndexOf_TisKeyValuePair_2_t2401056908_m4118889689_gshared
KKb:__ZNSt3__26vectorI4PPtrI6ObjectE13stl_allocatorIS3_L18MemLabelIdentifier52ELi16EEE6assignINS_11__wrap_iterIPS3_EEEENS_9enable_ifIXaasr21__is_forward_iteratorIT_EE5valuesr16is_constructibleIS3_NS_15iterator_traitsISD_E9referenceEEE5valueEvE4typeESD_SD_
_Be:__ZL22addOrRemoveRigidObjectILb0ELb0ELb0ELb1EN5physx3Scb11RigidStaticEEvRNS0_2Sc5SceneERT3_b
rZg:__ZN6il2cpp2os16ThreadLocalValue8GetValueEPPv
n4g:_X509Certificate2_get_PublicKey_m370665820
Vhg:__ZN6il2cpp2vm13MetadataCache14GetGenericInstEPKPK10Il2CppTypej
UTp:_Collection_1_IsSynchronized_m2790814605_gshared
lda:__ZN13AudioListener17ReadExtensionNameEi
Hd:invoke_iiidii
G1c:__Z52Object_CUSTOM_GetOffsetOfInstanceIDInCPlusPlusObjectv
H6d:__ZN5physx6shdfnd4sortIPvNS0_4LessIS2_EENS0_19ReflectionAllocatorINS_2Cm5BlockIS2_Lj8EEEEEEEvPT_jRKT0_RKT1_j
Sme:__ZNK5physx9NpPhysics11getNbShapesEv
Ur:setThrew
ADk:_SslClientStream_OnLocalPrivateKeySelection_m1934775249
TDc:__ZL21BuildEmptyCubeTexturePKci11ColorRGBA3217TextureColorSpace
RIa:__ZN14SafeBinaryRead21TransferSTLStyleArrayINSt3__26vectorIN9ShaderLab20SerializedSubProgramENS1_9allocatorIS4_EEEEEEvRT_17TransferMetaFlags
eQm:_Array_InternalArray__IndexOf_TisX509ChainStatus_t133602714_m48896230_gshared
Qcb:__ZN19dynamic_block_arrayI13FileEntryInfoLj32EE4growEj
Ncd:__Z15Transfer_StringI8JSONReadLb1EEvRK29SerializationCommandArgumentsR31RuntimeSerializationCommandInfo
Iaq:_Comparison_1_BeginInvoke_m816899747_gshared
TXc:__Z35Light_Set_Custom_PropShadowStrengthP12Il2CppObjectf
Zda:__Z36AudioSource_CUSTOM_PlayOneShotHelperP12Il2CppObjectS0_f
Hda:__Z31AudioClip_Get_Custom_PropLengthP12Il2CppObject
PEf:_UNITY_FT_Render_Glyph_Internal
RJl:_Char_IsLower_m3108076820
tvf:_UNITY_ft_service_list_lookup
L5c:__ZN5IMGUI21SelectReceivingWindowER8GUIStateb
dzp:_HMAC_Initialize_m3157696427
DQd:__ZN5physx2Gu20intersectTriangleBoxERKNS_6PxVec3ES3_S3_S3_S3_
m5k:_SynchronizedWriter_Write_m2529550287
Nle:__ZN5physx10NpMaterial8setFlagsENS_7PxFlagsINS_14PxMaterialFlag4EnumEtEE
bka:__ZN13BaseAllocator13TryDeallocateEPv
d3g:_X509SubjectKeyIdentifierExtension__ctor_m2055934916
yw:__ZNK22NavMeshProjectSettings18GetSettingsByIndexEi
o9q:dynCall_viiiiiifi
RHc:__ZN10GUIElementC2E10MemLabelId18ObjectCreationMode
Dpk:_XmlConvert_VerifyName_m2131148908
tRc:__ZN9Scripting25CreateNullExceptionObjectE18ScriptingObjectPtr
vPn:_PrivateKeyInfo_DecodeRSA_m2889346634
V2:__ZN13AudioListener17RemoveFromManagerEv
Ne:_glAttachShader
mTi:__Z241RuntimeInvoker_Boolean_t97287965_RuntimeObject_RuntimeObject_RuntimeObject_SByte_t1669577662_DateTimeU26_t882461807_DateTimeOffsetU26_t3960159525_RuntimeObject_Int32_t2950945753_SByte_t1669577662_BooleanU26_t4125257963_BooleanU26_t4125257963PFvvEPK10MethodInfoPvPS4_
ojf:__ZN5physx6shdfnd8internal8HashBaseINS0_4PairIKtPKcEEtNS0_4HashItEENS1_11HashMapBaseItS6_S9_NS_7profile26WrapperReflectionAllocatorIS6_EEE6GetKeyESD_Lb1EE6createERS4_Rb
uma:__ZNK6Camera19GetProjectionMatrixEv
Mrl:_ILGenerator_Emit_m3111835688
kHe:__ZNK5physx7NpScene24getWakeCounterResetValueEv
zxd:__Z19UpdateSingleRow2TplIL27ParticleSystemCurveEvalMode2ELS0_4EEvfRK11MinMaxCurveS3_RK23ParticleSystemParticlesPfbiii
tvm:_InputField_SetToCustomIfContentTypeIsNot_m2813459946
HRl:_ReflectionPropertyDescriptor_FillAttributes_m335907391
P2e:__ZNK5physx16PxsSolverEndTask7getNameEv
zFn:_Guid_GetHashCode_m3042133858_AdjustorThunk
CYe:__ZN5physx2Gu32PCMConvexVsMeshContactGeneration20generateLastContactsEv
poa:__Z38PreallocateObjectFromPersistentManagerib
Xle:__ZThn12_N5physx10NpMaterialD0Ev
B5n:_Interpreter_Backtrack_m2828876822
Evb:__ZNK9Texture2D20GetUnscaledTextureIDEv
wun:_DBNull_System_IConvertible_ToInt64_m3889862579
$cn:_XmlSchemaObjectEnumerator_MoveNext_m3595167032
NRj:_SByte_System_IConvertible_ToType_m4075253447
$yl:_StrongName_get_PublicKey_m1841537984
ecf:__ZN5physx6shdfnd4sortIjNS_19SortBoundsPredicateENS0_19ReflectionAllocatorIjEEEEvPT_jRKT0_RKT1_j
voe:__ZN5physx7NpShape14onRefCountZeroEv
Q5f:_Transform_INTERNAL_get_worldToLocalMatrix_m2730237241
Ojd:__ZNK14ParticleSystem7GetLoopEv
AGl:_AssemblyLoadEventHandler_Invoke_m1462077361
qJq:___GeneralBasicJSU24callable1U2470_33___Call_m308197389
Dbf:__ZL15TestContainmentRKN5physx6PxVec3EPKfjPKNS_2Gu15HullPolygonDataE
Jvb:__ZNK9Texture2D26CanReuploadDataToGfxDeviceEv
ihq:_XmlNodeReaderImpl_GetAttribute_m2989031193
GMb:__Z29ClearRepeatingLogMessageStatev
GIl:_Byte_Equals_m1161982810_AdjustorThunk
VIk:_List_1_Contains_m4165449587_gshared
E8e:__ZN5physx2Gu11HeightField12loadFromDescERKNS_17PxHeightFieldDescEb
tDa:__ZN21EnlightenSceneMappingaSERKS_
Slh:_XsdValidatingReader_GetAttribute_m4100715669
Ctl:_OpCode_get_StackBehaviourPush_m986094870_AdjustorThunk
y8a:__ZN7ApiGLESD2Ev
TMh:__ZL149XmlSchemaComplexContentRestriction_t3155540863_CustomAttributesCacheGenerator_XmlSchemaComplexContentRestriction_t3155540863____Particle_PropertyInfoP21CustomAttributesCache
Zfb:__ZN9Transform47ClearTransformHierarchyAndApplyToSerializedDataEv
qEe:__ZN5physx6shdfnd8PoolBaseINS_2Gu30LargePersistentContactManifoldENS0_19ReflectionAllocatorIS3_EEE12allocateSlabEv
Dbh:_DTDOneOrMoreAutomata_TryStartElement_m796938495
hhb:__ZN6Camera23VirtualRedirectTransferER19StreamedBinaryWriteILb0EE
tcr:dynCall_fidi
Kpg:__ZN15dense_hashtableINSt3__24pairIK10KeyWrapperINS1_IPK9FieldInfoP11Il2CppClassEEEjEES9_17ReflectionMapHashIS8_EN14dense_hash_mapIS9_jSD_NS9_14EqualsComparerINS0_8equal_toIS8_EEEENS0_9allocatorISB_EEE9SelectKeyESI_SK_E12resize_deltaEjj
G0e:__ZN5physx20getVertexEdgeIndicesERKNS_2Gu11HeightFieldEjjjPNS_8EdgeDataE
fkg:_send_tree_7051
wJe:__ZN5physx6shdfnd5ArrayIPNS_2Sc8BodyCoreENS0_19ReflectionAllocatorIS4_EEE6resizeEjRKS4_
$Yd:__ZN5physx3Cct26CharacterControllerManager16createControllerERNS_9PxPhysicsEPNS_7PxSceneERKNS_16PxControllerDescE
pBq:_GUILayoutEntry__ctor_m2229197035
dYg:__ZN6il2cpp6icalls6System6System14ComponentModel14Win32Exception15W32ErrorMessageEi
zua:__ZN15dense_hashtableINSt3__24pairIKN9ShaderLab7Program23ShaderKeywordSetAndHashEPKNS2_10SubProgramEEES4_NS3_24ShaderKeywordHashFunctorEN14dense_hash_mapIS4_S8_SA_NS0_8equal_toIS4_EE13stl_allocatorIS9_L18MemLabelIdentifier67ELi16EEE9SelectKeyESD_SG_E15insert_noresizeERKS9_
WRl:_TimeSpanConverter_ConvertTo_m1170169844
nHb:__ZN14SubstanceInput8TransferI24GenerateTypeTreeTransferEEvRT_
qRc:__ZNK13MonoBehaviour13GetScriptTypeEv
aOn:_DSAManaged_add_KeyGenerated_m2286864968
__k:_BinaryWriter_Write_m2685067618
Ff:_SDL_FreeRW
DMe:__ZN5physx6shdfnd8PoolBaseINS_2Cm5BlockIhLj128EEENS0_19ReflectionAllocatorIS4_EEE15disposeElementsEv
yMf:__Z34CanvasRenderer_Get_Custom_PropCullP12Il2CppObject
Hwe:__ZN5physx3Scb14ParticleSystem14setRestOffsetsEjRKNS_16PxStrideIteratorIKjEERKNS2_IKfEE
waa:__ZN20SoundChannelInstance8getDelayE14FMOD_DELAYTYPEPjS1_
Qua:__ZNSt3__26vectorIN20GpuProgramParameters15StructParameterENS_9allocatorIS2_EEEC2ERKS5_
DZm:_Graphics_Internal_SetRandomWriteTargetBuffer_m1058088167
LKk:_ArrayReadOnlyList_1_Contains_m232667507_gshared
sZi:__Z77RuntimeInvoker_Boolean_t97287965_IntPtr_t_Int32_t2950945753_SByte_t1669577662PFvvEPK10MethodInfoPvPS4_
c4m:_PlayableHandle_GetPlayableType_m432385838_AdjustorThunk
EDf:__ZNSt3__26vectorIN20TextRenderingPrivate8FontImpl13CharacterInfoE13stl_allocatorIS3_L18MemLabelIdentifier1ELi16EEE8__appendEj
Q3k:_Stream_Dispose_m2589290611
v:tempBigInt
Vip:_Array_InternalArray__Insert_TisKeyframe_t4206410242_m1558638568_gshared
Nf:_emscripten_glVertexAttrib1fv
P6m:_Rect_Equals_m4169342960_AdjustorThunk
yJa:__ZNSt3__26vectorIN9ShaderLab20SerializedSubProgram12UAVParameterENS_9allocatorIS3_EEE7reserveEj
Iiq:_XmlQualifiedName_Parse_m1094507201
Gsk:_BigInteger__ctor_m2644482640
kok:_XmlDocument_CreateAttribute_m1866139548
i8q:__ZSt11__terminatePFvvE
kIe:__ZN5physx13NpVolumeCacheC2EPNS_2Sq17SceneQueryManagerEjj
D7d:__ZThn24_N5physx2Sc20ArticulationJointSimD1Ev
l5:__ZN12AudioManager14systemCallbackEP11FMOD_SYSTEM24FMOD_SYSTEM_CALLBACKTYPEPvS3_
Qbq:_Nullable_1_Equals_m4046255732_gshared
S6p:_ReadOnlyCollection_1_System_Collections_Generic_ICollectionU3CTU3E_Clear_m3451551308_gshared
pLq:_PathSplinePerformanceCS__ctor_m2678787104
Iwe:__ZN5physx2Sc18ParticleSystemCore14setRestOffsetsEjRKNS_16PxStrideIteratorIKjEERKNS2_IKfEE
UQd:__ZN5physx2Gu16testPolyDataAxisERKNS0_8CapsuleVERKNS0_13PolygonalDataEPNS0_12SupportLocalERKNS_6shdfnd3aos6FloatVERSB_RNSA_5Vec3VE
iJm:_Array_InternalArray__ICollection_Contains_TisColor_t2555686324_m266224315_gshared
dpb:__ZN16ReflectionProbes16UpdateSampleDataEv
Wlk:_XmlSchemaSimpleTypeUnion__ctor_m2055690608
Dld:__Z9UpdateTplIL27ParticleSystemCurveEvalMode1EEvRK11MinMaxCurveR23ParticleSystemParticlesjjPKN4math8floatNx3E
uae:__ZN5physx2Sc17ParticleSystemSimD0Ev
pLj:_TrackingServices_NotifyUnmarshaledObject_m2784831802
DRn:_ReadOnlyArrayListWrapper_Sort_m2577012511
vfm:_Enumerator_System_Collections_IEnumerator_Reset_m3350288645_AdjustorThunk
aSh:__ZL133SocketElement_t3329874080_CustomAttributesCacheGenerator_SocketElement_t3329874080____AlwaysUseCompletionPortsForConnect_PropertyInfoP21CustomAttributesCache
rDn:_CultureInfo_GetCultureInfo_m56098747
GGb:__ZN18ProceduralMaterial23VirtualRedirectTransferER17RemapPPtrTransfer
lnq:_ConfigurationSectionCollection__ctor_m3358046837
Goc:__Z20AddActiveLocalLightsR11CullResultsR27LocalLightCullingParametersPPK15SharedLightDataPK8Vector4fRK9IndexListPfRSA_R12ActiveLightsSG_P5RectTIfEP13TargetEyeMask
lxh:__ZL80Hashtable_t1853889766_CustomAttributesCacheGenerator_Hashtable__ctor_m1763145853P21CustomAttributesCache
usk:_XmlInputStream_get_Position_m3204413437
Z_n:_Convert_ToDecimal_m1284148187
hYp:_Collection_1__ctor_m3489157029_gshared
agr:_emscripten_glRenderbufferStorage__wrapper
Wng:__ZNK6il2cpp2vm14TypeNameParser10NextWillBeEcb
Psf:_cf2_getNormalizedVector
ig:_JS_Sound_Play
$sq:_DefaultSection_get_Properties_m1794707731
P7p:_ReadOnlyCollection_1_System_Collections_IList_set_Item_m1538987737_gshared
sam:_DefaultComparer_Compare_m1920986590_gshared
kfq:_XmlNode_get_XmlSpace_m1211872938
dIa:__ZN9ShaderLab16SerializedShader8TransferI14SafeBinaryReadEEvRT_
jjk:_GridLayoutGroup_set_constraint_m3308895167
_Zi:__Z120RuntimeInvoker_RuntimeObject_RuntimeObject_RuntimeObject_RuntimeObject_RuntimeObject_Int32_t2950945753_Int32_t2950945753PFvvEPK10MethodInfoPvPS4_
jIb:__ZN11TimeManagerD2Ev
QNk:_InternalEnumerator_1_System_Collections_IEnumerator_get_Current_m1503522504_gshared
rV:__ZN7mecanim8skeleton13SkeletonAlignEPKNS0_8SkeletonERKN4math7_float4ES7_i
LEc:__ZN19ShaderPropertySheet16SetVectorIndexedEN9ShaderLab16FastPropertyNameEifRK8Vector4fNS_8SetFlagsE
doo:_Type_get_IsAbstract_m1120089130
d8f:_Vector3_get_normalized_m2454957984_AdjustorThunk
IEi:_FtpDataStream_BeginWrite_m51295119
$Wq:_UriFormatException__ctor_m1115096473
tEi:_FtpWebRequest_CloseControlConnection_m1302744984
sDq:_GUIUtility_IsExitGUIException_m3644066650
ija:__ZN11UnityEngine15CloudWebService14DataDispatcher4StopEv
LNo:_LinkedList_1_System_Collections_Generic_ICollectionU3CTU3E_Add_m2568132950_gshared
N2c:__Z40Register_UnityEngine_Light_get_intensityv
Mjh:_XsdShort_get_TypeCode_m1483556184
wGn:_Int16_System_IConvertible_ToUInt64_m134975563
AJa:__ZNSt3__26vectorIN9ShaderLab20SerializedSubProgram12UAVParameterENS_9allocatorIS3_EEE8__appendEj
z0i:__Z177RuntimeInvoker_RuntimeObject_RuntimeObject_RuntimeObject_RuntimeObject_RuntimeObject_Int32_t2950945753_Int32_t2950945753_SByte_t1669577662_SByte_t1669577662_Int32U26_t1369213839PFvvEPK10MethodInfoPvPS4_
D5c:__ZN5IMGUI9GUIWindow5OnGUIER8GUIState
Hcj:__Z79RuntimeInvoker_Void_t1185182177_RuntimeObject_RuntimeObject_Vector3_t3722313464PFvvEPK10MethodInfoPvPS4_
ONc:__ZNK17AnimationCurveTplI11QuaternionfE8GetRangeEv
Tgp:_Array_InternalArray__ICollection_CopyTo_TisSingle_t1397266774_m455540885_gshared
Mbb:__ZN17ScriptingGCHandle7AcquireE18ScriptingObjectPtr25ScriptingGCHandleWeakness
Wfl:_XmlSchemaAny_get_HasValueOther_m3314415087
eUi:__Z74RuntimeInvoker_RuntimeObject_RuntimeObject_Int64_t3736567304_RuntimeObjectPFvvEPK10MethodInfoPvPS4_
sKf:__ZN2UI14CanvasRenderer14AttachToCanvasER8JobFencePNS_6CanvasENS0_15InstructionTypeE
Cge:__ZN5physx12NpConstraint8comShiftEPNS_12PxRigidActorE
Fom:_KeyCollection_System_Collections_ICollection_get_SyncRoot_m2961852872_gshared
EWl:_ChunkStream_Read_m2343072583
iKo:_HashSet_1__ctor_m620629637_gshared
dZa:__Z21HasAlphaTextureFormat13TextureFormat
ica:__ZN12AudioManager6UpdateEv
Xnh:_XmlTextReader_IncrementAttributeValueToken_m2379248428
YYa:__ZN14ImageReference9BlitImageERKS_NS_8BlitModeE
UM:__ZN8Animator12AddToManagerEv
DMc:__Z26ApplyBlendShapesToVerticesR12SkinMeshInfoRKN4math5_int4EPNS1_8floatNx3ES6_
wqk:_XmlDocumentType_ImportFromDTD_m998947015
hQl:_MemberDescriptor_get_Attributes_m1786720970
Muj:_Example_DelayedInvokationUser_AteStart_m4068970768
UPd:__ZNK5physx2Gu16SupportLocalImplINS0_11ConvexHullVEE9doSupportERKNS_6shdfnd3aos5Vec3VERNS5_6FloatVESA_
x8b:__ZN23CachedSerializationDataD2Ev
Dqc:__ZNK25CameraStackRenderingState31CalculateStereoCameraTargetTypeEv
Fob:__ZN14RenderSettings23VirtualRedirectTransferER14SafeBinaryRead
f7l:_InternalEnumerator_1_get_Current_m114240259_gshared
mzi:_NetSectionGroup_get_WebRequestModules_m1844153672
cGd:__ZNK13b2CircleShape5CloneEP16b2BlockAllocator
wMg:__ZN6il2cpp2os10ThreadImpl15CurrentThreadIdEv
_y:__ZNSt3__227__insertion_sort_incompleteIR17DetailNodeYSorterP16DetailMeshBVNodeEEbT0_S5_T_
B2o:_Array_InternalArray__get_Item_TisLink_t3209266973_m1574224299_gshared
j_c:__Z57Register_UnityEngine_Material_INTERNAL_CALL_SetVectorImplv
ymn:_SymmetricAlgorithm_get_Key_m3241860519
Nxm:_U3CMouseDragOutsideRectU3Ec__Iterator1_Reset_m2233410497
dvm:_InputField_set_customCaretColor_m720445789
Tfb:__Z17IsObjectAvailablei
OHb:__ZN12InputManagerD0Ev
Dil:_XmlSchemaComplexType_ValidateImmediateAttributes_m1113509846
AXg:__ZN6il2cpp6icalls8mscorlib6System11Diagnostics10StackTrace9get_traceEP15Il2CppExceptionib
Wnq:_ConfigNameValueCollection_Set_m2644066560
HRn:_SimpleEnumerator_MoveNext_m3113120129
xap:_LeanTween_rotateAroundLocal_m1417912534
U2q:_ParticleSystem_Clear_m381529807
_ge:__ZN5physx2Sc9RigidCore20removeShapeFromSceneERNS0_9ShapeCoreEb
_Qk:_InternalEnumerator_1_System_Collections_IEnumerator_get_Current_m2889979481_AdjustorThunk
c7q:_posix_memalign
$bf:__ZN5physx11RTreeCooker18buildFromTrianglesERNS_2Gu5RTreeEPKNS_6PxVec3EjPKtPKjjRNS_6shdfnd5ArrayIjNSB_19ReflectionAllocatorIjEEEEPNS0_13RemapCallbackEfNS_17PxMeshCookingHint4EnumE
jbe:__ZN5physx6shdfnd5ArrayIPvNS0_15InlineAllocatorILj256ENS0_19ReflectionAllocatorINS_14NpArticulationEEEEEE15growAndPushBackERKS2_
OMn:_ASN1_GetBytes_m3305539297
mCo:_Dictionary_2_OnDeserialization_m1353833593_gshared
toa:__ZNK15MonoScriptCache7ReleaseEv
fcg:__ZN6il2cpp2vm5Class13HasReferencesEP11Il2CppClass
g_e:__ZN5physx9PxTaskMgrC2EPNS_15PxCpuDispatcherEPNS_15PxGpuDispatcherEPNS_15PxSpuDispatcherE
F0l:_StrongName_CreateIdentityPermission_m157276771
xh:_glBindTexture
j5q:_snprintf
Eok:_XmlDocument_onNodeInserted_m2673734294
eOb:__Z36scripting_liveness_calculation_begin17ScriptingClassPtriPFvPP12Il2CppObjectiPvES3_PFvvES7_
iyj:_HudText_AddHudText_m2633086488
dE:__ZN7mecanim12statemachine13StateConstant8TransferI24GenerateTypeTreeTransferEEvRT_
Qfr:_emscripten_glGetProgramInfoLog__wrapper
QZ:__ZN25AnimatedPropertyEvaluator29BindCurveToScriptingObjectPtrERKN13AnimationClip10FloatCurveEj18ScriptingObjectPtrb
L$:__ZN8Animator16GetDeltaPositionEv
ENq:_UnitySerializationHolder_GetModuleData_m1550266881
qqa:__ZN17PersistentManager23DestroyFromFileInternalEi
oWm:_Display__ctor_m501911701
v2p:_ReadOnlyCollection_1_System_Collections_Generic_IListU3CTU3E_Insert_m1020890112_gshared
Q7g:_CILCompiler_EmitOp_m759624724
Ojc:__Z19SetupMotionMatricesR6CameraR18RPDataMotionVector
Jag:__ZL7log2_64y
oSl:_TypeConverterAttribute_Equals_m1580461255
NW:__ZN26AnimatorControllerPlayable18PrepareForPlaybackERN7mecanim6memory9AllocatorE
lR:__ZN7mecanim5human25HumanPoseAddOverrideLayerERNS0_9HumanPoseERKS1_fRKNS_6bitsetILj83EEE
ejk:_GridLayoutGroup_get_cellSize_m2967185053
oQe:__ZN5physx19PxsMaterialCombiner24combineIsotropicFrictionERKNS_15PxsMaterialDataES3_
$wq:_PKCS12_Decrypt_m1280162536
oao:_RxCompiler_EmitRepeat_m1647302970
vwk:_RSAManaged_ToXmlString_m2369501989
hRk:_InternalEnumerator_1_get_Current_m3081223448_gshared
r$f:_ContrastStretch__ctor_m4114069422
_zq:_Event_get_isMouse_m1058251071
aiq:_XmlParserInput_PushPEBuffer_m2114889766
Elb:__ZN10VertexDataC2ERKS_17ShaderChannelMask10MemLabelId
Wvf:_otv_JSTF_validate
Tua:__ZN22CreateGpuProgramOutputC2Ev
xXm:_PersistentCallGroup_Initialize_m4253175514
oHl:_Boolean_System_IConvertible_ToChar_m4279513009_AdjustorThunk
YTn:_Hashtable__ctor_m1763145853
k6k:_UnexceptionalStreamReader__cctor_m2018971657
RH:__Z21GetAnimatableBindTypeRK16TypeTreeIterator
yNo:_Enumerator_System_Collections_IEnumerator_Reset_m2550940120_gshared
wPn:_PrivateKeyInfo_DecodeDSA_m771724585
haf:__ZN5physx7Cooking16cookTriangleMeshERKNS_18PxTriangleMeshDescERNS_14PxOutputStreamE
brg:__ZNK15dense_hashtableINSt3__24pairIK10KeyWrapperINS1_IPK10MethodInfoP11Il2CppClassEEEjEES9_17ReflectionMapHashIS8_EN14dense_hash_mapIS9_jSD_NS9_14EqualsComparerINS0_8equal_toIS8_EEEENS0_9allocatorISB_EEE9SelectKeyESI_SK_E23find_position_with_hashERSA_j
mnf:__ZN14CompletionTask4InitEPN5physx7PxSceneE
v8d:__ZN5physx2Sc7ElementD0Ev
Wqo:_UInt32_System_IConvertible_ToSByte_m1061556466
Gcf:__ZN5physx6shdfnd10Foundation7releaseEv
xOh:__ZL122XmlSchemaParticle_t3828501457_CustomAttributesCacheGenerator_XmlSchemaParticle_t3828501457____MinOccursString_PropertyInfoP21CustomAttributesCache
S_f:_CameraMotionBlur_StartFrame_m3635744592
Xf:_emscripten_glBindBuffer
qbl:_NumberFormatter_FormatRoundtrip_m19342689
UBj:_PlayerShipMovement__ctor_m1644435377
WMc:__ZNK15GUIEventManager15GetEventAtIndexEi
JKf:__ZN2UI14CanvasRenderer17SyncDirtyElementsER8JobFence
rim:_Enumerator_System_Collections_IEnumerator_get_Current_m3816090481_gshared
QPg:__ZN6il2cpp5utils11StringUtils15StringDuplicateEPKc
Zvp:_DefaultComparer_Equals_m2480133610_gshared
iua:__ZNK9ShaderLab21ShaderRasterStateDesc16ToGfxRasterStateEPK19ShaderPropertySheetS3_R14GfxRasterState
k_o:_Array_Sort_TisVector3_t3722313464_m1915176437_gshared
AZg:__ZN6il2cpp2os9EventImplC2Ebb
Tmd:__Z12RangedRandomR5RandNRKiS2_
kpp:_Dictionary_2_System_Collections_IDictionary_Add_m1677091369_gshared
WRk:_InternalEnumerator_1_System_Collections_IEnumerator_get_Current_m2629988057_AdjustorThunk
DFp:_List_1_get_Item_m2113769949_gshared
DAm:_MaskableGraphic_OnTransformParentChanged_m329502413
Rqq:_ConfigurationElementCollection_CreateNewElement_m185175010
PJ:__ZNSt3__26vectorIN13AnimationClip9PPtrCurveE13stl_allocatorIS2_L18MemLabelIdentifier26ELi16EEE6resizeEj
hva:__Z20IsMatrixBuiltinParamPKcPi
wJi:_SslStream_BeginWrite_m831482228
RYl:_String_memcpy4_m979367827
I9n:_RxCompiler_Emit_m45328153
sEc:__ZN8Renderer19PostInitializeClassEv
zOm:_Array_FindIndex_TisRuntimeObject_m2504082708_gshared
Pmh:_XmlTextReader_get_Prefix_m2508644388
Tyq:_X509Chain_FindCertificateRoot_m1937726457
c4k:_StreamAsyncResult_get_AsyncWaitHandle_m3390046559
yVg:__ZN6il2cpp6icalls8mscorlib6System8Delegate23CreateDelegate_internalEP20Il2CppReflectionTypeP12Il2CppObjectP22Il2CppReflectionMethodb
ujm:_Enumerator_System_Collections_IEnumerator_get_Current_m921113401_AdjustorThunk
R7b:__ZN18DelayedCallManager18CancelCallDelayed2E4PPtrI6ObjectEPF15CallObjectStatePS1_PvES7_
lxj:_GameManager_set_DelayedInvoker_m2975647535
A9a:__ZN25ThreadsafeLinearAllocator10ReallocateEPvji
STb:__Z18Transfer_BlittableI14SafeBinaryReadLb1E11QuaternionfEvRK29SerializationCommandArgumentsR31RuntimeSerializationCommandInfo
Fee:__ZNK5physx18PxArticulationLink8isKindOfEPKc
v1p:_ReadOnlyCollection_1_System_Collections_ICollection_CopyTo_m3158690403_gshared
_Ga:__ZN18SpriteAtlasManagerD0Ev
bfk:_ColorTween_AddOnChangedCallback_m3959760640
Jqn:_RegistryPermission_Copy_m1236070534
rHe:__ZN5physx13NpVolumeCache13onOriginShiftERKNS_6PxVec3E
UUg:_GC_disable
TCb:__ZN10Matrix4x4f8TransferI14SafeBinaryReadEEvRT_
io:FUNCTION_TABLE_vifiiiiiiiiiiiiiiiiii
a2f:_CameraRefocus__ctor_m2622592662
SSj:_CryptographicUnexpectedOperationException__ctor_m2381988196
sug:__ZN14dense_hash_mapI10KeyWrapperIPK22Il2CppGenericParameterEPK24MonoGenericParameterInfoN6il2cpp5utils11PointerHashIS2_EENS4_14EqualsComparerINSt3__28equal_toIS3_EEEENSD_9allocatorINSD_4pairIKS4_S7_EEEEE15set_deleted_keyERSJ_
HW:__ZN14AvatarPlayback8StopTimeEv
MTk:_InternalEnumerator_1_System_Collections_IEnumerator_get_Current_m4213507601_gshared
DBa:__Z6AppendRKN4core12basic_stringIcNS_20StringStorageDefaultIcEEEEPKc
FVn:_Queue_Clone_m178259971
Ypj:_AnimControl_OneShot_AteAwake_m1404822111
SJf:__ZNSt3__218__insertion_sort_3IRNS_6__lessIN2UI14DepthSortEntryES3_EEPS3_EEvT0_S7_T_
lDq:_GUIUtility_RemoveCapture_m1294193818
ZUa:__ZN7ApiGLES18ClearBufferSubDataEjN2gl12BufferTargetEll
S$:__ZN8Animator7SetBoolEib
yTc:__Z37Camera_Get_Custom_PropAllCamerasCountv
oBb:__ZN14Texture2DArray8TransferI18StreamedBinaryReadILb0EEEEvRT_
$he:__ZN5physx15NpActorTemplateINS_18PxArticulationLinkEED2Ev
jnq:_ConfigurationSectionGroup_get_Sections_m2391035167
Pnc:__Z18ApplyOcclusionMaskR19ProbeOcclusionCacheRK17LightProbeContextRK10RenderNodeb
QCf:_Split_Cubic
Lb:invoke_fiiii
kxm:_InputField_OnSubmit_m3583210804
Trn:_StrongNameIdentityPermission_ToSecurityElement_m726688216
pXf:_CrossPlatformInputManager_UnRegisterVirtualButton_m2844659319
Xar:dynCall_viiiiiiffii
Ido:_Uri_CheckHostName_m2213216182
phr:_emscripten_glBindRenderbuffer__wrapper
yMg:__ZN6il2cpp2os10ThreadImpl22CreateForCurrentThreadEv
Wzi:_ServicePointManagerElement_get_UseNagleAlgorithm_m2496751350
_Wn:_ListKeys_Add_m413003750
N8o:_LTDescrImpl_setId_m3737643977
XQn:_ArrayListWrapper_Contains_m2641184447
CCf:_ft_black_render
H4p:_ReadOnlyCollection_1_System_Collections_Generic_IListU3CTU3E_Insert_m3435413875_gshared
rQg:__ZN6il2cpp2vm8Profiler12GCHeapResizeEx
Ccr:dynCall_viiifi
H1a:__ZN18GfxFramebufferGLES20ActiveContextChangedEPP17RenderSurfaceBaseS2_
y1a:__Z19PluginsRenderMarkeri
p$:__ZN10HumanTrait18InitializeBoneNameEv
HJa:__ZNSt3__26vectorIN9ShaderLab20SerializedSubProgram15StructParameterENS_9allocatorIS3_EEE6assignINS_11__wrap_iterIPS3_EEEENS_9enable_ifIXaasr21__is_forward_iteratorIT_EE5valuesr16is_constructibleIS3_NS_15iterator_traitsISC_E9referenceEEE5valueEvE4typeESC_SC_
orq:_ConfigurationErrorsException_get_BareMessage_m4143062270
_$d:__ZNK5physx3Ext5JointINS_15PxDistanceJointENS_30PxDistanceJointGeneratedValuesEE18getConstraintFlagsEv
mGg:__ZNSt3__214__split_bufferIN6il2cpp2vm5Image20EmbeddedResourceDataERNS_9allocatorIS4_EEEC2EjjS7_
sre:__ZNK5physx7NpCloth25getNbSelfCollisionIndicesEv
ELn:_Kernel_multiByteDivide_m4249920547
z2:__ZN12AudioManager17RemoveAudioSourceEP11AudioSource
kdl:_NonBlockingStreamReader_ReadBuffer_m2514667835
l5g:_X509Certificate2Collection_Add_m3151757943
$tq:_ProviderSettings_IsModified_m2423594729
SSn:_CaseInsensitiveHashCodeProvider_get_DefaultInvariant_m4264275163
aZi:__Z195RuntimeInvoker_Int32_t2950945753_RuntimeObject_Int32_t2950945753_Int32_t2950945753_Int32_t2950945753_RuntimeObject_DecoderFallbackBufferU26_t3866396827_ByteU5BU5DU26_t4057885439_SByte_t1669577662PFvvEPK10MethodInfoPvPS4_
hWl:_AuthenticationManager_PreAuthenticate_m1971834472
IHe:__ZN5physx2Sc5Scene22setNbContactDataBlocksEj
Sea:__ZN5physx14PxLightCpuTask12addReferenceEv
UFd:__Z10b2DistanceP16b2DistanceOutputP14b2SimplexCachePK15b2DistanceInput
Nfj:__Z86RuntimeInvoker_Int32_t2950945753_Color32_t2600501292_Color32_t2600501292_RuntimeObjectPFvvEPK10MethodInfoPvPS4_
Sxb:__ZN21EnlightenSceneMapping8TransferI19StreamedBinaryWriteILb0EEEEvRT_
MZf:_FireLight_Extinguish_m4146025917
JIg:__ZN6il2cpp2gc16GarbageCollector19InitializeFinalizerEv
HS:__ZN7mecanim8skeleton18CreateSkeletonMaskEjPKNS0_19SkeletonMaskElementERNS_6memory9AllocatorE
i5c:__ZN10GUIManager10DoGUIEventER10InputEventb
zDl:_AppDomainSetup__ctor_m4231788003
KZb:__Z35Transfer_Blittable_FixedBufferFieldI24GenerateTypeTreeTransferxEvRK29SerializationCommandArgumentsR31RuntimeSerializationCommandInfo
Kwf:_otv_LangSys_validate
$6m:_RectOffset_get_right_m2294081512
Rjp:_Array_InternalArray__set_Item_TisLink_t544317964_m1234244240_gshared
tBf:_UNITY_TT_Init_Glyph_Loading
i0p:_ReadOnlyCollection_1_System_Collections_Generic_ICollectionU3CTU3E_Clear_m1624648842_gshared
Pic:__Z20CalculateSqrDistanceRK8Vector3fRK4AABB
$nf:__ZN14PhysicsManager15ProcessContactsEv
tok:_XmlAttributeCollection_get_IsReadOnly_m1100891460
tQj:_SerializationInfo_GetBoolean_m1756153320
yUd:__ZN21BoxTraceSegmentReport7onEventEjPj
mee:__ZN5physx2Sc21ArticulationJointCore13setSwingLimitEff
u7:__Z32AudioMixerDuckingProcessCallbackP21UnityAudioEffectStatePfS1_jii
jQd:__ZL20HullProjectionCB_BoxRKN5physx2Gu13PolygonalDataERKNS_6PxVec3ERKNS_2Cm8Matrix34ERKNS7_23FastVertex2ShapeScalingERfSE_
T1m:_Mesh_get_uv2_m3615020997
FJe:__ZN5physx17PxcNpMemBlockPool19releaseUnusedBlocksEv
Bdm:_Enumerator_MoveNext_m2632835478_gshared
WMh:__ZL123XmlSchemaComplexType_t3740801802_CustomAttributesCacheGenerator_XmlSchemaComplexType_t3740801802____IsAbstract_PropertyInfoP21CustomAttributesCache
Idp:_LTRect_setSizeByHeight_m1601468954
gWe:__ZN5physx14PxsAABBManager21selfCollideAggregatesEPKNS_19AggregateSortedDataE
r3:__ZN12AudioManager8TransferI24GenerateTypeTreeTransferEEvRT_
C0m:_Mathf_Round_m4098141538
bud:__ZN16CustomDataModuleD0Ev
bYa:__Z25GetBytesFromTextureFormat13TextureFormat
pBg:__ZN6il2cpp6icalls8mscorlib6System9Threading6Thread20Thread_free_internalEP12Il2CppThreadi
o2e:__ZN5physx12_GLOBAL__N_112innerProductERKNS_14Px1DConstraintERS1_RKNS0_9MassPropsE
KOl:_InstanceDescriptor_ValidateMember_m1389918349
nnh:_XmlTextReader_ReadUntilEndTag_m2167355391
hMl:__KeysEnumerator_get_Current_m2996478063
Ern:_StrongNameIdentityPermission_IsEmpty_m3953280418
s$d:__ZN19ControllerHitReportD2Ev
gqa:__Z32scripting_class_get_assemblyname17ScriptingClassPtr
Rwf:_otv_ExtensionSubst_validate
ZFd:__ZN9b2Simplex9ReadCacheEPK14b2SimplexCachePK15b2DistanceProxyRK11b2TransformS5_S8_
yA:__Z24CrowdUpdateMultiThreadedRK17ReadonlyCrowdInfoR15UpdateCrowdInfoP12CrowdManagerPP12NavMeshQueryf
F9i:__Z99RuntimeInvoker_Boolean_t97287965_Int32_t2950945753_PointerEventDataU26_t867828220_SByte_t1669577662PFvvEPK10MethodInfoPvPS4_
uSe:__ZN5physx26PxcFrictionPatchStreamPairC2ERNS_17PxcNpMemBlockPoolE
sig:__ZN6il2cpp2vm13MetadataCache23GetInvokerMethodPointerEPK10MethodInfoPK20Il2CppGenericContext
C7a:__ZN9GfxDevice21RegisterNativeTextureE9TextureIDi16TextureDimension
Thk:_GraphicRegistry__ctor_m1851575309
YWg:__ZN6il2cpp6icalls8mscorlib6System10Reflection4Emit11TypeBuilder20create_generic_classEP27Il2CppReflectionTypeBuilder
ZTl:__ZN16VirtFuncInvoker1IP19XmlNode_t3767805227iE6InvokeEjP12Il2CppObjecti
$0g:_WebConnectionStream_Write_m1061706378
rea:__Z60Register_UnityEngine_AudioListener_GetNumExtensionPropertiesv
tk:_emscripten_glUniformMatrix4fv
iyg:__ZN15dense_hashtableINSt3__24pairIK10KeyWrapperINS1_IP11Il2CppClassjEEES4_EES6_N6il2cpp8metadata14ArrayClassHashEN14dense_hash_mapIS6_S4_SB_NS6_14EqualsComparerINSA_17ArrayClassCompareEEENS0_9allocatorIS8_EEE9SelectKeyESF_SH_E13set_empty_keyERKS8_
LOb:__ZN12ScriptMapperD2Ev
qxo:_Enumerator_Dispose_m3040896940_AdjustorThunk
xhf:__ZN9Rigidbody13AwakeFromLoadE17AwakeFromLoadMode
X1m:_Mesh_get_colors32_m1253190811
Jod:__ZN9SubModule8TransferI14SafeBinaryReadEEvRT_
uRm:_AnimationCurve_Finalize_m2397002729
vid:__ZN14ParticleSystem15AddCustomLightsERK27LocalLightCullingParametersRK11CullResultsR12ActiveLightsRi9LightType
Tje:__ZNK5physx14NpSceneQueries10multiQueryINS_12PxOverlapHitEEEbRKNS_15MultiQueryInputERNS_13PxHitCallbackIT_EENS_7PxFlagsINS_9PxHitFlag4EnumEtEEPKNS_12PxQueryCacheERKNS_17PxQueryFilterDataEPNS_21PxQueryFilterCallbackEPNS_20BatchQueryFilterDataE
Dcp:_LTDescrImpl_setOnUpdate_m142236138
PPj:_SerializationCallbacks__cctor_m1674315180
ZRh:__ZL117SettingsSection_t1259474535_CustomAttributesCacheGenerator_SettingsSection_t1259474535____WebProxyScript_PropertyInfoP21CustomAttributesCache
$$c:__Z52Register_UnityEngine_RenderTexture_Internal_GetWidthv
DTg:_GC_check_leaked
HMa:__ZN9ShaderLab20SerializedSubProgram16TextureParameter8TransferI19StreamedBinaryWriteILb0EEEEvRT_
hc:invoke_fiiiiiiiifiiiif
nhd:__ZN14ParticleSystem23RendererBecameInvisibleEv
d9a:__ZNK7Hash12812PackToUInt32Ev
c2p:_ReadOnlyCollection_1_System_Collections_IList_IndexOf_m198887188_gshared
kHf:__ZZN20TextRenderingPrivate8TextMesh15InitializeClassEvEN31FunctorImpl_299kDidAddComponent4CallEPviR11MessageData
Vra:__ZNSt3__227__insertion_sort_incompleteIRNS_6__lessI14ObjectLoadDataS2_EEPS2_EEbT0_S6_T_
qja:__ZN11UnityEngine15CloudWebService16SessionContainer8AddEventEPNS0_14CloudEventInfoE
r6a:__Z4TrimRKN4core12basic_stringIcNS_20StringStorageDefaultIcEEEES5_
Wvg:_il2cpp_shutdown
NId:__ZN13dynamic_arrayIN19CompositeCollider2D11SubColliderELj4EE12emplace_backEv
g1o:_Dictionary_2_Do_ICollectionCopyTo_TisKeyValuePair_2_t3842366416_m1399105608_gshared
cNq:_UInt64_ToString_m2177233542
x4g:_X509Certificate2_Import_m4026562329
q$n:_Convert_ToDouble_m996590115
yol:_DynamicMethod_destroy_dynamic_method_m2651031212
Lir:_glGetStringi__wrapper
Ozb:__ZN10VertexData8TransferI14SafeBinaryReadEEvRT_
tde:__ZN5physx19NpArticulationJointD0Ev
H4:__ZN4FMOD8ChannelI8setDelayE14FMOD_DELAYTYPEjj
xUg:_GC_malloc_atomic
Mlf:__ZN5physx9NpPhysics14createInstanceEjRNS_12PxFoundationERKNS_17PxTolerancesScaleEbPNS_20PxProfileZoneManagerE
DWj:_TypeDelegator_GetProperties_m2136897632
Kqf:__Z59Register_UnityEngine_Physics_INTERNAL_CALL_Internal_Raycastv
DKo:_HashSet_1_GetEnumerator_m3346268098_gshared
vXg:__ZN6il2cpp5utils6Memory13AlignedMallocEjj
k$k:_BinaryWriter_Write_m3922404942
gPk:_InternalEnumerator_1_System_Collections_IEnumerator_get_Current_m2403913046_AdjustorThunk
ZVj:_StrongNameKeyPair_GetRSA_m2008774769
sCp:_List_1_Insert_m3678598124_gshared
oGg:__ZNSt3__214__split_bufferIN6il2cpp2vm5Image20EmbeddedResourceDataERNS_9allocatorIS4_EEED2Ev
jna:__ZL20SortItemByInstanceIDRKN18AwakeFromLoadQueue4ItemES2_
s7f:_Vector2_op_Multiply_m2347887432
slf:__ZN5physx6shdfnd5ArrayIPvNS0_15InlineAllocatorILj256ENS0_19ReflectionAllocatorINS_24NpPtrTableStorageManager8PtrBlockILi16EEEEEEEE15growAndPushBackERKS2_
Aio:_UTF32Encoding_GetBytes_m3180303867
lSl:_TypeConverterAttribute__ctor_m1774069684
SS:__ZNK34AnimationStateMachineMixerPlayable26GetInterruptedPosePlayableEv
iRf:__ZN20UnityConnectSettings8TransferI24GenerateTypeTreeTransferEEvRT_
Kpd:__ZN25IParticleSystemProperties8PropertyIfNS_11ClampRadiusEE8TransferI14SafeBinaryReadEEvRT_PKc
UU:__ZN34BlobWriteTransferSTLStyleArrayImplI22OffsetPtrArrayTransferIbEEclERS1_17TransferMetaFlagsR9BlobWrite
Orl:_OpCode_get_Value_m917085326
F8k:_MonoType_GetConstructors_m2574682189
a5o:_LeanAudio__cctor_m154691237
C9m:_SceneManager_LoadSceneAsyncNameIndexInternal_m4031498323
noe:__ZN5physx7NpShape13setRestOffsetEf
Xv:__ZN12NavMeshAgent5ResetEv
Pfd:__ZN16ParticleRenderer13AwakeFromLoadE17AwakeFromLoadMode
nFi:_ServicePointManager_FindServicePoint_m4119451290
m4p:_ReadOnlyCollection_1_System_Collections_IList_Clear_m2007013334_gshared
hDa:__ZL31InitializeRendererUpdateManagerPv
Qhh:_XsdIDRefs_ParseValue_m2334166190
tVj:_ParameterInfo__ctor_m2779026345
gGq:_UnityEvent_2_GetDelegate_m3909669659_gshared
kvm:_InputField_set_onValueChange_m1251390545
eAi:_SettingsSection_get_Socket_m1691336783
Poe:__ZN5physxL11getTriangleERKNS_2Gu12TriangleMeshEjPNS_6PxVec3EPKS4_PKvRKNS_2Cm8Matrix34Eb
uLf:__ZN2UI13CanvasManager14GetRenderOrderEPKNS_6CanvasE
p$k:_BinaryWriter_Write_m162594906
ihf:__ZN14SafeBinaryRead21TransferSTLStyleArrayINSt3__26vectorIjNS1_9allocatorIjEEEEEEvRT_17TransferMetaFlags
Xzq:_Event_get_current_m2393892120
M4i:__Z162RuntimeInvoker_RuntimeObject_RuntimeObject_RectU26_t1284589061_Vector2U26_t2376273893_Single_t1397266774_Int32_t2950945753_Int32_t2950945753_Vector4U26_t200349727PFvvEPK10MethodInfoPvPS4_
uoq:_ConfigurationLocation_SetParentConfiguration_m1656895612
Vpe:__ZNK5physx7NpCloth16lockParticleDataEv
FOj:_ObjectWriter_GetAssemblyNameId_m2316410453
lvq:_X509Certificate_PEM_m2020851166
YRj:_SByte_Equals_m865896384_AdjustorThunk
j5k:_SynchronizedWriter_Close_m3632168889
hip:_Array_InternalArray__Insert_TisDateTime_t3738529785_m2308632330_gshared
xIb:__ZN11TimeManager8TransferI19StreamedBinaryWriteILb0EEEEvRT_
_cn:_XmlSchemaObjectEnumerator_get_Current_m2597242723
PXm:_UnityEventBase_RemoveListener_m3326364145
$Un:_KeyMarker_GetRealObject_m336901478
oBk:_TlsServerCertificateRequest_ProcessAsTls1_m3214041063
r7f:_Vector2_op_UnaryNegation_m2172448356
OKq:_OldGUISlideImageIn_OnGUI_m4148351445
exf:_compare_uni_maps
Ftm:_Transform_1_Invoke_m1343166063_gshared
rPf:__ZN11UnityEngine15PlatformWrapper27GetGraphicsCapsSupportFlagsEv
zui:__ZL48Twirl_t2760508880_CustomAttributesCacheGeneratorP21CustomAttributesCache
_qf:__Z63Register_UnityEngine_Rigidbody_INTERNAL_CALL_AddForceAtPositionv
tLe:__ZN5physx13NpRigidStatic9visualizeERNS_2Cm12RenderOutputEPNS_7NpSceneE
l1b:__ZN12NativeBufferI16Converter_StringE15SetupForWritingER9ArrayInfo
tMn:_SequentialSearchPrimeGeneratorBase_GenerateSearchBase_m3595783982
rGa:__ZN13RuntimeStaticI18AssetBundleManagerLb1EE16StaticInitializeEPv
rkr:___cxa_end_catch__wrapper
Nfp:_Array_InternalArray__ICollection_CopyTo_TisActionState_t1840973484_m3791827475_gshared
Nk:_emscripten_glVertexAttrib3fv
Yvd:__ZL24GenerateParticleGeometryIL24ParticleSystemRenderMode0ELb1ELb0EL25ParticleSystemRenderSpace4EEvPfRK22ParticleSystemTempDataRK26ParticleSystemRendererDataRK21ParticleSystemModulesRK23ParticleSystemParticlesRK31ParticleSystemParticlesTempData
PNe:__ZN5physx6shdfnd8PoolBaseINS_2Sc35ParticleElementRbElementInteractionENS0_19ReflectionAllocatorIS3_EEE15disposeElementsEv
gln:_SHA1CryptoServiceProvider_Dispose_m1653611664
cKl:_Char_ToString_m278452217
V2n:_DateTime_System_IConvertible_ToUInt16_m4182197229_AdjustorThunk
gRm:_EventManager_Register_TisRuntimeObject_TisRuntimeObject_m265636908_gshared
LZq:_Physics_RaycastAll_m447622039
I_l:_String_Format_m1881875187
Jtk:_BigInteger_op_RightShift_m460065452
A8b:__ZN13MonoBehaviour22DoScriptRebuildWarningEv
ETc:__Z38Camera_CUSTOM_INTERNAL_CALL_RaycastTryP12Il2CppObjectRK3Rayfi
rHc:__ZNK10GameObject22GetComponentPtrAtIndexEi
$Fc:__ZZL23RegisterLightPropertiesR22GenericPropertyBindingEN22Wrapper_LightSpotAngle13GetFloatValueEPv
o9j:_ExecuteEvents_get_cancelHandler_m1220395193
PHf:__Z38TextGenerator_Get_Custom_PropLineCountP12Il2CppObject
Tuq:_InternalAsyncResult_SetComplete_m963842420
wgo:_Encoding_GetEncoding_m2801244948
m6c:__ZN11IMGUIModule25GetGUIStyleScriptingClassEv
Izf:_tt_get_interface
F2j:_AsyncResult_AsyncProcessMessage_m2076471000
_Ag:__ZN6il2cpp5utils9PathUtils7CombineIcEENSt3__212basic_stringIT_NS3_11char_traitsIS5_EENS3_9allocatorIS5_EEEERKSA_SC_
Vqf:__Z46Register_UnityEngine_Rigidbody_set_isKinematicv
chl:_XmlSchemaChoice_Compile_m2446166989
qWe:__ZN5physx14PxsAABBManager16processBPResultsERKNS_20PxsComputeAABBParamsE
Ccd:__ZN9JSONWrite8TransferI13dynamic_arrayIiLj4EEEEvRT_PKc17TransferMetaFlags
xUe:__ZN5physx23PxsBroadPhaseContextSapD2Ev
mFi:_FtpWebRequest_GetServicePoint_m2343154667
XTi:__Z64RuntimeInvoker_RuntimeObject_SByte_t1669577662_SByte_t1669577662PFvvEPK10MethodInfoPvPS4_
GIc:__ZN13PlayableGraph21InvalidateMultithreadEv
L$d:__ZNK5physx15PxDistanceJoint19getConcreteTypeNameEv
Toa:__Z18ConvertUTF16toUTF8PPKtS0_PPhS2_15ConversionFlags
WNg:__ZN6il2cpp2os20PathErrnoToErrorCodeERKNSt3__212basic_stringIcNS1_11char_traitsIcEENS1_9allocatorIcEEEEi
Rji:__ZL68InputField_t3762917431_CustomAttributesCacheGenerator_m_KeyboardTypeP21CustomAttributesCache
qEi:_FtpWebRequest_set_State_m191779305
wag:__ZL16my_g_bit_nth_msfj
imn:_SHA512Managed_Sigma1_m922902398
u_:__ZN9Animation12CleanupClassEv
FMp:_Enumerator_MoveNext_m3662315381_AdjustorThunk
YAk:_TlsClientFinished_ProcessAsTls1_m2429863130
$gc:__Z23SetupStereoFlareElementP11FlareVertexRK8Vector2fS3_S3_RK11ColorRGBA32RK10Matrix4x4fRK8Vector3fb
bJm:_Array_InternalArray__ICollection_Contains_TisUInt16_t2177724958_m3393176156_gshared
_Pq:_AudioClip_add_m_PCMSetPositionCallback_m670709619
Y_l:_FileCodeGroup_Resolve_m1480644185
s2f:_DynamicShadowSettings__ctor_m3785881620
ckm:_Enumerator_System_Collections_IEnumerator_get_Current_m545477138_AdjustorThunk
rr:FUNCTION_TABLE_iiiifiifiii
qb:invoke_iiiifiiii
y7l:_InternalEnumerator_1_System_Collections_IEnumerator_get_Current_m2690353642_gshared
rmp:_Array_Sort_TisMoveDirection_t883568195_TisMoveDirection_t883568195_m500660649_gshared
Ezd:__ZN11ShapeModule13DidDeleteMeshEv
tse:__ZNK5physx2Sc9ClothCore16getRestPositionsEPNS_6PxVec4E
eRe:__ZN5physx20PxcSweepConvexConvexERKNS_11PxsCCDShapeES2_PKNS_12PxsRigidBodyES5_RKNS_11PxTransformES8_S8_S8_fRNS_6PxVec3ESA_RNS_10PxcNpCacheERNS_18PxcNpThreadContextEf
k7f:_Vector2_Equals_m832062989_AdjustorThunk
Ave:__ZN5physx15PxsParticleDataD0Ev
A2a:__ZL19BlitFramebufferImplRN4gles23BlitFramebufferDrawQuadER9GfxDevice9TextureIDRK8Vector4f
Z9e:__ZN5physx6shdfnd5ArrayIPvNS0_19ReflectionAllocatorIN17PxcPoolMallocData9PoolData8EEEE15growAndPushBackERKS2_
lqg:__ZN15dense_hashtableINSt3__24pairIK10KeyWrapperIPK10Il2CppTypeEjEES6_N6il2cpp8metadata14Il2CppTypeHashEN14dense_hash_mapIS6_jSB_NS6_14EqualsComparerINSA_26Il2CppTypeEqualityComparerEEENS0_9allocatorIS8_EEE9SelectKeyESF_SH_E4findERS7_
nao:_RxCompiler_EmitIn_m501817011
n1f:_ScreenSpaceAmbientOcclusion_CreateMaterials_m861986101
ZAf:_UNITY_FT_List_Add
WDc:__ZN14Texture2DArray11InitTextureEiii13TextureFormatb
lwq:_X509Extension__ctor_m1474351312
dEq:_InvokableCall_1_Invoke_m1524307439_gshared
def:__ZN5physx15PxGeometryQuery14getWorldBoundsERKNS_10PxGeometryERKNS_11PxTransformEf
Ite:__ZN5physx2Sc9ClothCore18setSolverFrequencyEf
P$p:_ReadOnlyCollection_1_System_Collections_IList_Add_m369011249_gshared
Y$k:_Directory_CreateDirectoriesInternal_m3735342319
Imf:__ZN8ColliderC2E10MemLabelId18ObjectCreationMode
oOc:__Z5SlerpRK8Vector3fS1_f
XFi:_FtpWebRequest_SetupPassiveConnection_m1357636555
nmn:_SHAConstants__cctor_m1699027474
gIb:__ZN9InputAxis8TransferI18StreamedBinaryReadILb0EEEEvRT_
o1g:_WebException__ctor_m2000471014
fiq:_XmlParserInput_get_BaseURI_m1478609455
QPd:__ZN5physx2Gu16buildPartialHullERKNS0_13PolygonalDataEPNS0_12SupportLocalERNS0_14SeparatingAxesERKNS_6shdfnd3aos5Vec3VESC_
DLb:__Z14resize_trimmedINSt3__26vectorIN4core12basic_stringIcNS2_20StringStorageDefaultIcEEEE13stl_allocatorIS6_L18MemLabelIdentifier13ELi16EEEEEvRT_j
AUb:__Z18Transfer_BlittableI14SafeBinaryReadLb0EaEvRK29SerializationCommandArgumentsR31RuntimeSerializationCommandInfo
QPn:_CharEnumerator_System_Collections_IEnumerator_get_Current_m1328529384
Pxj:_GameManager_FSM_Enter_Unloading_m2219261007
Yld:__ZN11NoiseModule17CalculateNoiseJobILi3ELb1ELb1EEEvP12NoiseJobData
rdo:_Uri__ctor_m3377055802
NEj:_TriggeredBehaviour_AddHudText_OnEnteredPlaying_m2890120334
Hce:__ZNK5physx2Sc16ArticulationCore17releaseDriveCacheERNS_9PxcFsDataE
NBm:_GetRayIntersectionAllCallback_Invoke_m1316694896
DBf:_UNITY_FT_List_Iterate
gZ:__ZN24GenerateTypeTreeTransfer8TransferIN7mecanim8skeleton8SkeletonEEEvRT_PKc17TransferMetaFlags
T0d:__ZN5physx11NpAggregate7releaseEv
DJl:_Char_System_IConvertible_ToUInt64_m3536560782
qM:__ZN19StreamedBinaryWriteILb0EE8TransferIKN4math7_float3EEEvRT_PKc17TransferMetaFlags
Gfc:__Z20SyncFenceCullResultsR11CullResults
d5a:__ZN15TextureTFMethod20IsBoneCountSupportedEi
g1h:__ZL109RenderTexture_t2108887433_CustomAttributesCacheGenerator_RenderTexture_GetTemporary_m1832746092____readWrite4P21CustomAttributesCache
ozn:_Double_ToString_m3828879243_AdjustorThunk
zKi:_NetworkStream_set_Position_m4274646361
VYb:__Z22TransferField_NonArrayI17RemapPPtrTransfer27Converter_SimpleNativeClassI8GUIStyleEEvRK23StaticTransferFieldInfoR31RuntimeSerializationCommandInfoRT0_
hoe:__ZN5physx7NpShape12setMaterialsEPKPNS_10PxMaterialEt
Nwc:__ZNK17AnimationCurveTplIfE20EvaluateWithoutCacheEfRf
NLg:__ZN6il2cpp2os6Thread12QueueUserAPCEPFvPvES2_
x6:__ZN10AudioMixer23GetInitialSnapshotIndexEv
Mqj:_AteObject_set_Rotation_m2807829231
Fll:_CustomAttributeData__ctor_m2966233049
Kdk:_CanvasUpdateRegistry_PerformUpdate_m1793997159
M1g:_WebHeaderCollection_GetKey_m809097130
SLc:__ZN4Mesh10SetNormalsEPK8Vector3fj
HMd:__Z66Register_UnityEngine_Physics2D_INTERNAL_CALL_GetRayIntersectionAllv
IIq:_AesManaged_CreateDecryptor_m692040246
O_q:_Rigidbody_Sleep_m1823108224
HPg:__ZNSt3__212basic_stringIDsNS_11char_traitsIDsEENS_9allocatorIDsEEE9__grow_byEjjjjjj
YJ:__ZN17AnimationCurveTplIfE8TransferI14SafeBinaryReadEEvRT_
FGp:_List_1__ctor_m808270210_gshared
Xjp:_Array_InternalArray__set_Item_TisInt16_t2552820387_m2544074754_gshared
CEl:_ArithmeticException__ctor_m3551809662
Jyd:__ZN22ParticleSystemRenderer15InitializeClassEv
kuc:__Z29StdTemplateConversionFunctionIybEbPvR14SafeBinaryRead
nyb:__ZNSt3__26vectorIN15QualitySettings14QualitySettingENS_9allocatorIS2_EEE6assignIPS2_EENS_9enable_ifIXaasr21__is_forward_iteratorIT_EE5valuesr16is_constructibleIS2_NS_15iterator_traitsIS9_E9referenceEEE5valueEvE4typeES9_S9_
sXd:__Z15raycast_capsuleRKN5physx10PxGeometryERKNS_11PxTransformERKNS_6PxVec3ES8_fNS_7PxFlagsINS_9PxHitFlag4EnumEtEEjPNS_12PxRaycastHitEbPFbRSD_PvESG_
Ngq:_XmlParserContext_set_BaseURI_m3915640945
WWo:_List_1_CheckCollection_m1671972112_gshared
uio:_UnicodeEncoding_GetPreamble_m3002287178
xQl:_NullableConverter_GetStandardValuesExclusive_m4282170257
h3e:__ZNK5physx34PxsSolverConstraintPostProcessTask7getNameEv
Yli:__ZL56Toggle_t2735377061_CustomAttributesCacheGenerator_m_IsOnP21CustomAttributesCache
eOa:__ZN20GpuProgramParameters14AddVectorParamEPKcii15ShaderParamTypeiiiP16PropertyNamesSet
tdn:_XmlSchemaException_GetMessage_m1351542076
Sfn:_XmlSchemaMaxExclusiveFacet_get_ThisFacet_m3471362736
_Qd:__ZN5physx2Gu23distancePointBoxSquaredERKNS_6PxVec3ES3_S3_RKNS_7PxMat33EPS1_
Dlf:__ZN5physx9NpPhysics20MeshDeletionListener28onGuMeshFactoryBufferReleaseEPKNS_6PxBaseEtb
ZSf:__ZNK12HeaderHelper3GetERKN4core12basic_stringIcNS0_20StringStorageDefaultIcEEEE
cIb:__ZN9InputAxis8TransferI14SafeBinaryReadEEvRT_
Ena:__ZNK21ExecutionOrderManager30GetCustomAwakeFromLoadQueueForEPKN5Unity4TypeE
DFe:__ZNK5physx7NpScene9getActorsENS_7PxFlagsINS_15PxActorTypeFlag4EnumEtEEPPNS_7PxActorEjj
sSf:__Z27RegisterModule_UnityConnectv
a3k:_MemoryStream_Expand_m3554752073
M7f:_Vector3_ClampMagnitude_m2732959745
tNe:__ZN5physx11NodeManagerD0Ev
pap:_LeanTween_delayedSound_m2668469219
B_q:_Rigidbody_AddTorque_m3171849690
S4o:_LeanAudio_createAudio_m16553124
S9m:_ScriptableObject_CreateInstance_m2611081756
bMj:_ObjectRecord_get_IsInstanceReady_m2304516395
e7l:_InternalEnumerator_1_System_Collections_IEnumerator_get_Current_m1635397542_gshared
G3k:_Path__cctor_m3273994011
P3p:_ReadOnlyCollection_1_System_Collections_IList_RemoveAt_m681829747_gshared
JLa:__ZN24GenerateTypeTreeTransfer8TransferINSt3__26vectorIN9ShaderLab20SerializedSubProgram14ConstantBufferENS1_9allocatorIS5_EEEEEEvRT_PKc17TransferMetaFlags
o8q:__ZNSt11logic_errorD2Ev
ztn:_DateTimeUtils_CountRepeat_m3396693018
NKd:__ZNK17Physics2DSettings22GetTypeVirtualInternalEv
yHn:_Int32_System_IConvertible_ToUInt64_m2502338186
$5:__ZN10ObjectPoolIN4FMOD12ChannelGroupENS0_13ChannelGroupIEE7SetSizeEi
Atq:_InternalConfigurationHost_IsDefinitionAllowed_m3251402021
YUm:_ComputeBuffer_DestroyBuffer_m1833301053
dIq:_SymmetricTransform_FinalDecrypt_m764004682
C3p:_ReadOnlyCollection_1_System_Collections_Generic_ICollectionU3CTU3E_Remove_m2225120515_gshared
ojk:_GridLayoutGroup_SetLayoutHorizontal_m2838109254
oYn:_Console_ReadKey_m1122053118
O3n:_DateTime_ParseExact_m3543736043
ihh:_XsdGYearMonth_Compare_m551562453
V8n:_Parser_ParseGroupingConstruct_m263270497
dAc:__ZN9Polygon2D7SetPathEiRK13dynamic_arrayI8Vector2fLj4EE
TPn:_CharEnumerator_Clone_m1884400089
TC:__ZN15SerializeTraitsINSt3__24pairI8StateKey10StateRangeEEE8TransferI14SafeBinaryReadEEvRS4_RT_
nvg:__ZN14dense_hash_mapI10KeyWrapperINSt3__24pairIPK9EventInfoP11Il2CppClassEEEj17ReflectionMapHashIS8_ENS9_14EqualsComparerINS1_8equal_toIS8_EEEENS1_9allocatorINS2_IKS9_jEEEEE15set_deleted_keyERSH_
Ifk:_Dropdown_RefreshShownValue_m2806045241
tNh:__ZL73XmlSchemaDerivationMethod_t1774354337_CustomAttributesCacheGenerator_ListP21CustomAttributesCache
Dqe:__ZNK5physx7NpCloth25getMotionConstraintConfigEv
Iin:_XmlSchemaSet_Compile_m1310515789
lgn:_XmlSchemaNotation_Compile_m3506144171
Bqc:__ZN25CameraStackRenderingState19SetupLastEyeCamerasERK11CameraStack
Ceb:__Z12GUIDToStringRK9UnityGUID
ZWn:_ListKeys_set_Item_m3432812671
Q8f:_Vector4_op_Division_m264790546
mKg:__ZN6il2cpp6icalls8mscorlib6System4Enum12get_hashcodeEP12Il2CppObject
Y1:__ZN11SoundHandleC2ERKS_
hN:__ZN17AnimationPlayableC2E18DirectorPlayerType
oSf:__ZN22UnityAnalyticsSettingsC2Ev
Ahg:__ZNK6il2cpp5utils11collections13ArrayValueMapIPK10Il2CppType17Il2CppInteropData26InteropDataToTypeConverterNS_8metadata14Il2CppTypeLessENS8_26Il2CppTypeEqualityComparerEE10find_firstERKS5_
rC:__ZN18AnimatorController23VirtualRedirectTransferER18StreamedBinaryReadILb0EE
F1k:_FileStream_get_CanSeek_m331583577
AIj:_TriggeredBehaviour_SceneLoad_GetIndex_LoadPrev_m3602616106
bUj:_DSAParameters_t1885824122_marshal_pinvoke_back
iZd:__ZN5physx3Cct26CharacterControllerManager24setOverlapRecoveryModuleEb
wT:__ZN8Animator22OnGraphTopologyChangedEP8Playablei
iMn:_Kernel_MultiplyByDword_m1266935086
yeh:_XsdAnySimpleType_ParseValueType_m3326205053
IP:__ZN17AnimationPlayable18DeallocateBindingsEv
jsc:__ZN6Camera25StandaloneRenderToCubemapEP7TextureiPFvPK9SceneNodePK4AABBR9IndexListPvESA_j
S2i:__Z128RuntimeInvoker_RuntimeObject_RuntimeObject_SByte_t1669577662_SByte_t1669577662_SByte_t1669577662_SByte_t1669577662_RuntimeObjectPFvvEPK10MethodInfoPvPS4_
Job:__ZN14RenderSettings18TransferDeprecatedI14SafeBinaryReadEEvRT_
Jzq:_Event__ctor_m526447123
gnh:_XmlTextReader_MoveToFirstAttribute_m931491223
$1i:__Z88RuntimeInvoker_RuntimeObject_RuntimeObject_RuntimeObject_RuntimeObject_Int32_t2950945753PFvvEPK10MethodInfoPvPS4_
gpo:_Type_ToString_m3975981286
wna:__ZN12TLSAllocatorI14StackAllocatorE8AllocateEji
xpa:__ZN16ScriptingManager18GetMonoScriptCacheEi
j4q:___uflow
itn:_PermissionSet_ReadEncodedInt_m3624754624
vjp:_Array_InternalArray__set_Item_TisTagName_t2891256255_m1620211312_gshared
R0f:_PostEffectsBase_CheckSupport_m2318330785
Ldg:__ZN15dense_hashtableINSt3__24pairIK10KeyWrapperIPK11Il2CppClassEPKcEES6_N6il2cpp5utils11PointerHashIS3_EEN14dense_hash_mapIS6_S9_SE_NS6_14EqualsComparerINS0_8equal_toIS5_EEEENS0_9allocatorISA_EEE9SelectKeyESJ_SL_E15set_deleted_keyERKSA_
S0d:__ZNK5physx3Ext5JointINS_15PxDistanceJointENS_30PxDistanceJointGeneratedValuesEE11getBodyPoseEPKNS_12PxRigidActorE
Wlp:_Array_Resize_TisCustomAttributeTypedArgument_t2723150157_m3021884250_gshared
y6l:_TermInfoDriver_CreateKeyMap_m3835196745
HUb:__Z18Transfer_BlittableI14SafeBinaryReadLb1EyEvRK29SerializationCommandArgumentsR31RuntimeSerializationCommandInfo
rOq:_WeakReference_Finalize_m2841826116
pkd:__ZNSt3__27__sort5IR31SortCollisionEventsByGameObjectP22ParticleCollisionEventEEjT0_S5_S5_S5_S5_T_
Brn:_StrongNameIdentityPermission_get_PublicKey_m1510164349
Q9k:_NullReferenceException__ctor_m3076065613
y9c:__ZN8JSONRead8TransferIfEEvRT_PKc17TransferMetaFlagsb
IAj:_AxisMovement_set_UpData_m2316623654
hhq:_XmlNodeReaderImpl_Close_m3145115064
DNa:__ZN9ShaderLab7Program22ComputeSupportsShadowsEv
g3g:_X509SubjectKeyIdentifierExtension_Decode_m1505409124
ore:__ZN5physx7NpCloth25setSelfCollisionStiffnessEf
X3l:_String_System_IConvertible_ToUInt16_m2888090399
x9:__ZN11AudioSource21ApplyCachedParametersE12SoundChannel
_jl:_Assembly_InternalGetType_m3065345470
ofa:__ZN13Simd4iFactoryIN6detail9FourTupleEEC2Eiiii
zYm:_GameObject_FindGameObjectsWithTag_m2585173894
fEo:_Dictionary_2_ToTKey_m134958963_gshared
FXj:_ResourceSet__ctor_m3356376607
sPh:__ZL85XmlSchemaValidationFlags_t877176585_CustomAttributesCacheGenerator_AllowXmlAttributesP21CustomAttributesCache
zom:_KeyCollection_System_Collections_Generic_ICollectionU3CTKeyU3E_Remove_m3960826253_gshared
uCh:__ZL56_ParameterInfo_t489405856_CustomAttributesCacheGeneratorP21CustomAttributesCache
r5k:_SynchronizedWriter_Write_m4228805816
sxb:__ZN15SerializeTraitsI33EnlightenTerrainChunksInformationE8TransferI14SafeBinaryReadEEvRS0_RT_
KDd:__ZN6b2Body12SetTransformERK6b2Vec2f
IEc:__ZNK32RendererMaterialAnimationBinding9BindValueER6ObjectRKN11UnityEngine9Animation14GenericBindingERNS3_10BoundCurveE
MAj:_AxisMovement_UnregisterEvents_m1219716419
iuo:_Transform_1_Invoke_m1731820209_gshared
Epb:__Z13GetIAnimationv
BZa:__ZL18stbir__support_onef
n3l:_Single_CompareTo_m189772128
jbd:__Z26Transfer_UnityEngineObjectI9JSONWriteLb0EEvRK29SerializationCommandArgumentsR31RuntimeSerializationCommandInfo
bam:_DefaultComparer_Compare_m4042058291_gshared
Dtd:__ZN14VelocityModuleD2Ev
Zsb:__ZNSt3__26vectorIN4core12basic_stringIcNS1_20StringStorageDefaultIcEEEE13stl_allocatorIS5_L18MemLabelIdentifier1ELi16EEE6assignINS_11__wrap_iterIPS5_EEEENS_9enable_ifIXaasr21__is_forward_iteratorIT_EE5valuesr16is_constructibleIS5_NS_15iterator_traitsISF_E9referenceEEE5valueEvE4typeESF_SF_
Obr:dynCall_iiiifii
RJf:__ZNSt3__27__sort5IRNS_6__lessIN2UI14DepthSortEntryES3_EEPS3_EEjT0_S7_S7_S7_S7_T_
p1k:_FileLoadException_ToString_m2989457882
wYi:__Z165RuntimeInvoker_Void_t1185182177_UInt32U26_t3735378166_Int32_t2950945753_UInt32U26_t3735378166_Int32_t2950945753_Int32_t2950945753_Int32_t2950945753_Int32_t2950945753PFvvEPK10MethodInfoPvPS4_
Kgd:__Z39ParticleSystemRenderer_RenderBillboardsIL21SpriteMaskInteraction0EEvRK15RenderNodeQueuej17ShaderChannelMaski
wsf:_UNITY_FT_DivFix
V2o:_Array_InternalArray__get_Item_TisDecimal_t2948259380_m3511003792_gshared
zZl:_SecurityElement_IsValidAttributeValue_m948345692
Nfd:__ZN16ParticleRendererD2Ev
hEc:__ZN14Texture2DArrayC2E10MemLabelId18ObjectCreationMode
Va:invoke_vdd
Ap:FUNCTION_TABLE_fiii
aWh:__ZL75g_UnityEngine_SharedInternalsModule_Assembly_CustomAttributesCacheGeneratorP21CustomAttributesCache
XHc:__Z19RegisterModule_Corev
W1o:_Mesh_SetUvsImpl_TisRuntimeObject_m2275316106_gshared
mVp:_Collection_1_SetItem_m605100262_gshared
QKi:_NetworkStream_EndWrite_m2616051554
$Cc:__ZNK30SpriteRendererAnimationBinding12GetPPtrValueERKN11UnityEngine9Animation10BoundCurveE
sHf:__ZZ29InitializeTextRenderingModulevEN27cleanupAfterLoadRegistrator7ForwardEv
Ds:__ZN20NavMeshBuildSettings8TransferI19StreamedBinaryWriteILb0EEEEvRT_
NPb:__ZNSt3__26__sortIRPFbRK23TransformAccessReadOnlyS3_EPS1_EEvT0_S8_T_
yBn:_CCFixed_FromDateTime_m3894190577
MXg:__ZN6il2cpp6icalls8mscorlib4Mono8Security12Cryptography18KeyPairPersistence19_IsMachineProtectedEP12Il2CppString
Dhr:_emscripten_glGenVertexArrays__wrapper
oqc:__Z29PluginsIssueRenderingExtEvent26UnityRenderingExtEventTypePv
PPi:__Z116RuntimeInvoker_RuntimeObject_RuntimeObject_Int32_t2950945753_RuntimeObject_RuntimeObject_RuntimeObject_RuntimeObjectPFvvEPK10MethodInfoPvPS4_
oAj:_IndexChooser_Initialize_RandomRepeating_m1570211167
oMl:_NameValueCollection__ctor_m1115358332
OMj:_MessageFormatter_ReadMethodCall_m2327590823
xxd:__Z19UpdateSingleRow2TplIL27ParticleSystemCurveEvalMode2ELS0_2EEvfRK11MinMaxCurveS3_RK23ParticleSystemParticlesPfbiii
JDc:__Z14RandomRotationP9Texture2DPhiiii
kfp:_Array_InternalArray__ICollection_Add_TisUInt16_t2177724958_m3981262878_gshared
nkf:__ZThn132_N5physx7profile8ZoneImplINS_28PxProfileNameProviderForwardEED1Ev
zKo:_HashSet_1_Contains_m3173358704_gshared
t9f:_ToggleEvent__ctor_m834619998
Pvk:_PKCS1_Encode_v15_m2077073129
ucn:_XmlSchemaObject_error_m1382379749
mon:_EnvironmentPermission_GetPathList_m3432964439
G8m:_RenderTexture_get_format_m3846871418
d9o:_LeanTween_delayedCall_m3047676397
aCn:_NumberFormatInfo__ctor_m3445216119
vXn:_ListValues_GetEnumerator_m1108246010
Eec:__ZZ23InitPlayerLoopCallbacksvEN39PostLateUpdateGUIClearEventsRegistrator7ForwardEv
gA:__ZN7NavMesh18SetSurfaceSettingsEiRK20NavMeshBuildSettings
aGe:__ZN5physx7NpScene27setCCDContactModifyCallbackEPNS_26PxCCDContactModifyCallbackE
vdp:_LTRect_get_y_m1446326989
Kaf:__ZNK5physx17ConvexHullBuilder17ComputeGeomCenterERNS_6PxVec3E
EKq:_GeneralSimpleUiJS_U24StartU24closureU2413_m646615889
vRm:_AnimationCurve_Evaluate_m2125563588
r5m:_Random_INTERNAL_get_insideUnitSphere_m2687634800
stq:_IgnoreSection_get_Properties_m2575310268
k3c:__Z46Register_UnityEngine_Renderer_GetMaterialArrayv
ZUe:__ZN3MBPD0Ev
C0a:__ZN4gles14UseGLSLProgramER15DeviceStateGLESjbij
Lkr:_glDeleteProgram__wrapper
STc:__Z50Register_UnityEngine_Camera_INTERNAL_get_pixelRectv
Emq:_XmlValidatingReader_ReadAttributeValue_m2604418746
zqd:__ZN11ShapeModule18MultiModeParameterIN25IParticleSystemProperties8PropertyIfNS1_11ClampRadiusEEEE8TransferI24GenerateTypeTreeTransferEEvRT_
K_a:__ZN6prcoreL18BlitFloatToIntegerERK14ImageReferenceRS0_
Exp:_EqualityComparer_1__cctor_m3884412996_gshared
Bun:_DBNull_System_IConvertible_ToUInt32_m3784627971
jvj:_ExtGameObject_GetDir_To_m1130404924
gJe:__ZNK5physx10PxsContext18getBounceThresholdEv
vmq:_XmlValidatingReader_HasLineInfo_m870518869
N4a:__ZN13dynamic_arrayI15ComputeShaderCBLj4EE6assignEPKS0_S3_
Lia:__ZN11UnityEngine15CloudWebService14RestDownloader17OnCompleteContentEv
cpg:__ZN15dense_hashtableINSt3__24pairIK10KeyWrapperINS1_IPK14Il2CppAssemblyP11Il2CppClassEEEjEES9_17ReflectionMapHashIS8_EN14dense_hash_mapIS9_jSD_NS9_14EqualsComparerINS0_8equal_toIS8_EEEENS0_9allocatorISB_EEE9SelectKeyESI_SK_E15insert_noresizeERKSB_
F5f:_Transform_get_localScale_m129152068
awn:_DivideByZeroException__ctor_m3496959969
jEe:__ZN5physx6shdfnd5ArrayIPvNS0_15InlineAllocatorILj256ENS0_19ReflectionAllocatorINS_2Gu31SpherePersistentContactManifoldEEEEEE15growAndPushBackERKS2_
pb:invoke_viffi
C0f:_MotionBlur_Start_m2728972963
IY:__ZN6Avatar8TransferI14SafeBinaryReadEEvRT_
tfq:_XmlNode_CheckNodeRemoval_m3181322672
cT:__ZN17AnimationPlayable28UpdateInternalStateRecursiveILi1ELb0EEEvPK35AnimationPlayableEvaluationConstant
npn:_GacIdentityPermission_FromXml_m2248040578
YIg:__ZN6il2cpp2gcL10CleanupCCWEPvS1_
sb:invoke_vifff
png:__ZN6il2cpp2os4File8CopyFileERKNSt3__212basic_stringIcNS2_11char_traitsIcEENS2_9allocatorIcEEEESA_bPi
mjr:_glGetVertexAttribiv__wrapper
Yge:__ZN5physx6shdfnd15atomicDecrementEPVi
hg:_emscripten_request_fullscreen
Gcq:_Predicate_1_Invoke_m851618236_gshared
u9b:__ZN20LocalFileSystemWebGL6DeleteER13FileEntryDatab
jg:_emscripten_glDisableVertexAttribArray
KKm:_Array_InternalArray__ICollection_Remove_TisSingle_t1397266774_m3361324455_gshared
tp:FUNCTION_TABLE_iiiifiiii
$Ga:__ZN4core8hash_mapINS_12basic_stringIcNS_20StringStorageDefaultIcEEEE13dynamic_arrayI4PPtrI6SpriteELj4EENS_4hashIS4_EENSt3__28equal_toIS4_EEE12delete_nodesEv
y$l:_String_Format_m2556382932
fd:invoke_fifffi
lYp:_Collection_1_System_Collections_IList_Add_m2969482770_gshared
bel:_UriValueType_Equals_m813708779_AdjustorThunk
TMn:_BitConverterLE_GetBytes_m4130646282
YWa:__ZN4gles23ClearCurrentFramebufferEP7ApiGLESbbbRK10ColorRGBAffi
BR:__ZN7mecanim12statemachine20CreateStateWorkspaceEjjjRNS_6memory9AllocatorE
PNl:_BaseNumberConverter_ConvertFrom_m52626755
Egq:_XmlNodeReader_ReadAttributeValue_m4203141995
qaf:__ZN5physx2Gu11HeightField13releaseMemoryEb
ug:_emscripten_glDeleteObjectARB
a8j:_EventSystem_RaycastComparer_m3685368675
o0a:__Z14DecompressDXT3iiiPKjPj
Hnh:_XmlTextReader_AppendValueChar_m2174950783
VXi:__Z131RuntimeInvoker_Void_t1185182177_RuntimeObject_RuntimeObject_Int64_t3736567304_ObjectU26_t2146539884_SerializationInfoU26_t419328957PFvvEPK10MethodInfoPvPS4_
Kid:__ZN12LightsModule5StartER23ParticleSystemParticlesjj
oOn:_DSAManaged_CreateSignature_m2233977444
QAl:_PKCS12_RemoveCertificate_m1421555398
wVf:_CrossPlatformInputManager_GetButtonDown_m1689635996
L$a:__ZN6prcoreL17RemapGenericFloatI17TexFormatRGBAHalf18TexFormatARGBFloatEEvPKNS_9InnerInfoE
QGd:__ZNSt3__27__sort4IRN18Overlap2DQueryBase29ColliderHitsByDepthComparitorEPP10Collider2DEEjT0_S7_S7_S7_T_
c6c:__Z14GetBuiltinSkini
f4j:_MethodDictionary_get_Item_m1201458851
e$f:_ColorCorrectionLookup_OnDisable_m972510164
xcl:_DTDReader_ReadNotationDecl_m1460616695
Hzo:_ValueCollection_System_Collections_ICollection_get_SyncRoot_m1172926899_gshared
aya:___cxx_global_var_init_18
XNj:_SerializationObjectManager_RegisterObject_m951822324
HHk:_BasicFSM_1_ShouldSwitchToState_m4246685563_gshared
Im:_JS_SystemInfo_GetBrowserVersionString
nPb:__ZN2UI13RectTransform23VirtualRedirectTransferER14SafeBinaryRead
LGe:__ZN5physx7NpScene17flushQueryUpdatesEv
YKa:__ZNSt3__26vectorIN9ShaderLab20SerializedSubProgramENS_9allocatorIS2_EEE6assignIPS2_EENS_9enable_ifIXaasr21__is_forward_iteratorIT_EE5valuesr16is_constructibleIS2_NS_15iterator_traitsIS9_E9referenceEEE5valueEvE4typeES9_S9_
vdd:__Z18Transfer_BlittableI8JSONReadLb0E8BitFieldEvRK29SerializationCommandArgumentsR31RuntimeSerializationCommandInfo
tKo:_HashSet_1_CopyTo_m2849056227_gshared
F2b:__ZL17Transfer_GUIStyleI18StreamedBinaryReadILb1EELb0EEvRK29SerializationCommandArgumentsR31RuntimeSerializationCommandInfo
SLn:_ModulusRing_Multiply_m343333088
Enf:__ZN12PhysXRaycast15InitializeClassEv
bHe:__ZN5physx7NpScene10unlockReadEv
xdg:_il2cpp_z_deflate
NIa:__ZN9ShaderLab14SerializedPass8TransferI14SafeBinaryReadEEvRT_
i7c:__Z71Register_UnityEngine_GUILayoutUtility_INTERNAL_CALL_Internal_MoveWindowv
mca:__ZN12AudioManager16SetListenerPauseEb
aJd:__ZNSt3__26__sortIRN10ClipperLib12LocMinSorterEPNS1_12LocalMinimumEEEvT0_S6_T_
jam:_DefaultComparer_Compare_m1284039696_gshared
O8m:_RenderTextureDescriptor__ctor_m505960146_AdjustorThunk
ACg:__ZN6il2cpp2vm9Exception25RaiseOutOfMemoryExceptionERKNS_5utils10StringViewIDsEE
HUn:_Hashtable_GetHash_m3068611952
ga:invoke_viiiiiiiiiii
W3q:___syscall_ret
Lpk:_XmlDeclaration_get_LocalName_m2926989483
nOo:_Enumerator_System_Collections_IEnumerator_Reset_m159920025_AdjustorThunk
k4j:_MethodDictionary_Clear_m755497004
zbo:_AnchorInfo__ctor_m46784903
$4k:_StringWriter_Write_m2131908442
Xxk:_CipherSuiteCollection_get_Item_m4188309062
aq:FUNCTION_TABLE_iiifffi
EDk:_SslHandshakeHash_HashFinal_m2573455475
u1j:_SynchronizationAttribute_ReleaseLock_m1030353464
iAc:__ZN14qsort_internal30FindAndMovePivotToLastPositionIP8Vector2fi26PointDistanceSortPredicateEEvT_S4_T0_T1_
qAb:__ZN11ChannelInfo8TransferI19StreamedBinaryWriteILb0EEEEvRT_
Zli:__ZL53ToggleGroup_t123837990_CustomAttributesCacheGeneratorP21CustomAttributesCache
Fse:__ZN5physx2Sc9ClothCore22setFrictionCoefficientEf
X1j:_Lease_get_CurrentLeaseTime_m3433257884
Phc:__ZN14qsort_internal13Partition3WayIP17RODataReplacementi19ROSorterReplacementEENSt3__24pairIT_S6_EES6_S6_T0_T1_
Dme:__ZNK5physx9NpPhysics17getNbConvexMeshesEv
yGe:__ZNK5physx7NpScene29getContactCorrelationDistanceEv
UVc:__Z34Register_UnityEngine_Gradient_Initv
Upp:_Dictionary_2_ToTKey_m2952273605_gshared
eIn:_Int64_System_IConvertible_ToInt16_m4062196970
VKc:__Z15WriteLineVertexILb0EEvRPhRKN4math8float4x4ERKNS2_7_float3ERK11ColorRGBA32RKffRKNS2_7_float2E
Eqd:__ZN13InitialModule8TransferI17RemapPPtrTransferEEvRT_
I0j:_Context_ToString_m1073616138
Dcr:dynCall_fiiffi
yjl:_Random_Next_m2295149237
Ird:__ZN25IParticleSystemProperties8PropertyI8Vector3fNS_3MinILi0EEEE8TransferI18StreamedBinaryReadILb0EEEEvRT_PKc
mum:_InputField_EnforceTextHOverflow_m3400115777
uG:__ZN9Animation13AwakeFromLoadE17AwakeFromLoadMode
Qqf:__Z39Register_UnityEngine_Rigidbody_get_dragv
hIb:__ZN9InputAxis8TransferI19StreamedBinaryWriteILb0EEEEvRT_
RGn:__Z33il2cpp_codegen_check_sub_overflowxx
Car:dynCall_viififiii
$um:_InputField_get_caretColor_m2973283772
O_d:__ZN5physx6shdfnd8SyncImpl4waitEj
X7f:_Vector3_Scale_m4006687392
Lnm:_KeyCollection_System_Collections_Generic_ICollectionU3CTKeyU3E_Remove_m3021084099_gshared
xgh:_XsdEntities_ParseValueType_m2457047235
C3k:_NullStream_Seek_m1914924606
koh:_XmlTextReader_ResolveEntity_m2372250534
E4o:_Resources_ConvertObjects_TisRuntimeObject_m1486780300_gshared
Eyn:_Double_System_IConvertible_ToInt16_m3591921965_AdjustorThunk
vaq:_Comparison_1_Invoke_m2925518770_gshared
ivd:__ZN33SizeBySpeedModulePropertyBindings13GetFloatValueERK14ParticleSystemi
Afb:__ZN10GameObject23VirtualRedirectTransferER18StreamedBinaryReadILb0EE
GNg:__ZN6il2cpp2gc16GarbageCollector13AllocateFixedEjPv
Xil:_ObjectDisposedException__ctor_m1034312941
_Eg:__ZNSt3__26__treeINS_12__value_typeIP24Il2CppReflectionAssemblyPvEENS_19__map_value_compareIS3_S5_NS_4lessIS3_EELb1EEENS_9allocatorIS5_EEE7destroyEPNS_11__tree_nodeIS5_S4_EE
Nh:_glFrontFace
Ihg:__ZNK15dense_hashtableINSt3__24pairIK10KeyWrapperIPK11Il2CppClassEPKcEES6_N6il2cpp5utils11PointerHashIS3_EEN14dense_hash_mapIS6_S9_SE_NS6_14EqualsComparerINS0_8equal_toIS5_EEEENS0_9allocatorISA_EEE9SelectKeyESJ_SL_E13find_positionERS7_
nld:__Z13DragUpdateTplIL27ParticleSystemCurveEvalMode4EEvRK11MinMaxCurvebbR23ParticleSystemParticlesjjRKN4math7_float4E
nt:__ZN11OffMeshLink14OnNavMeshAddedEv
VOq:_DispatcherEmitter_CreateMethodDispatcher_m688859116
uZi:__Z110RuntimeInvoker_Boolean_t97287965_RuntimeObject_SByte_t1669577662_RuntimeObject_Int32_t2950945753_RuntimeObjectPFvvEPK10MethodInfoPvPS4_
Bqd:__ZN14ParticleSystem8TransferI17RemapPPtrTransferEEvRT_
Ku:__ZN22NavMeshProjectSettingsD0Ev
hGp:_List_1_CheckMatch_m552779785_gshared
mGq:_UnityEvent_4_GetDelegate_m3111342790_gshared
BAm:_MaskUtilities_IsDescendantOrSelf_m2247511982
qIe:__ZN5physx13NpVolumeCache17getNbCachedShapesEv
Lmc:__ZNSt3__26vectorI16ShadowCasterData13stl_allocatorIS1_L18MemLabelIdentifier2ELi16EEE21__push_back_slow_pathIKS1_EEvRT_
cIf:__Z51Register_UnityEngine_TextGenerator_GetLinesInternalv
Awo:_Enumerator_get_Current_m2250080680_AdjustorThunk
D1l:_SecurityElement__cctor_m3326869319
XFn:_Int16_System_IConvertible_ToBoolean_m1656400658_AdjustorThunk
s_g:_SocketAsyncResult_CompleteAllOnDispose_m1317216893
iok:_XmlAttribute_RemoveChild_m1200168244
pUa:__ZN13GfxDeviceGLES22SetScissorRectPlatformERK5RectTIiE
a$a:__ZN6prcoreL17RemapGenericFloatI17TexFormatRGBFloat18TexFormatRGBAFloatEEvPKNS_9InnerInfoE
Lpp:_Dictionary_2_ContainsKey_m3523349225_gshared
yzi:_ProxyElement_set_BypassOnLocal_m298711429
TJe:__ZN5physx2Sc5Scene15getRenderBufferEv
rep:_Array_InternalArray__ICollection_Add_TisDictionaryEntry_t3123975638_m665385049_gshared
rXb:__Z35Transfer_Blittable_SingleValueFieldI14SafeBinaryReadiEvRT_R17GeneralMonoObjectRK23StaticTransferFieldInfo
Ikr:_glClearStencil__wrapper
B7k:_MissingMemberException__ctor_m2707802176
kSf:__ZN20UnityConnectSettings10InitializeEv
$_q:_Canvas_get_renderMode_m841659411
yxb:__ZN15SerializeTraitsI13dynamic_arrayI28EnlightenRendererInformationLj8EEE19ResizeSTLStyleArrayERS2_i
TYf:_TouchPad__ctor_m1845169266
r_m:_Input_get_touches_m1702694043
jMd:__ZN16PhysicsManager2D12BeginContactEP9b2Contact
q7b:__ZN13MonoBehaviour23VirtualRedirectTransferER19StreamedBinaryWriteILb0EE
P1:__ZN9AudioClip11CreateSoundEv
onf:__Z19ExtractDataFromMeshR4MeshR13dynamic_arrayI8Vector3fLj4EERS1_IjLj4EES6_b
Bvg:__ZN14dense_hash_mapI10KeyWrapperINSt3__24pairIPK9FieldInfoP11Il2CppClassEEEj17ReflectionMapHashIS8_ENS9_14EqualsComparerINS1_8equal_toIS8_EEEENS1_9allocatorINS2_IKS9_jEEEEEC2EjRKSB_RKSF_
Zqg:__ZNK15dense_hashtableINSt3__24pairIK10KeyWrapperINS1_IPK10MethodInfoP11Il2CppClassEEEjEES9_17ReflectionMapHashIS8_EN14dense_hash_mapIS9_jSD_NS9_14EqualsComparerINS0_8equal_toIS8_EEEENS0_9allocatorISB_EEE9SelectKeyESI_SK_E13find_positionERSA_
_xc:__Z10tesvertLeqP10TESSvertexS0_
FRf:__ZN11UnityEngine7Connect16PersistentValues13RestoreValuesER8JSONRead
dif:__ZN14SphereCollider22FetchPoseFromTransformEv
oGq:_EventFunction_1_Invoke_m2429482587_gshared
GFn:_Guid_BaseToString_m3600006650
fdb:__ZN20ArchiveStorageReader31TryToReadDirectoryFromBlockDataEyPKvj
C0e:__ZNK5physx2Gu11HeightField17getHeightInternalEff
$4m:_Quaternion_get_identity_m3722672781
PEg:__ZN6il2cpp2vmL11GetIdentityEP14Il2CppIUnknown
hig:__ZN6il2cpp2vm13MetadataCache26GetWindowsRuntimeClassNameEPK11Il2CppClass
mTg:_GC_push_gc_structures
NYi:__Z96RuntimeInvoker_Int32_t2950945753_RuntimeObject_Int32_t2950945753_RuntimeObject_Int32_t2950945753PFvvEPK10MethodInfoPvPS4_
SFe:__ZNK5physx7NpScene22getClientBehaviorFlagsEh
w1o:_Dictionary_2_Do_ICollectionCopyTo_TisRuntimeObject_m3942192587_gshared
ine:__ZN5physx9NpFactory14createMaterialEfff
CUn:_Hashtable_GetObjectData_m2584507417
rfa:__ZN5physx5cloth11PhaseConfigC2Et
Hxd:__Z19UpdateSingleRow2TplIL27ParticleSystemCurveEvalMode0ELS0_2EEvfRK11MinMaxCurveS3_RK23ParticleSystemParticlesPfbiii
eK:__ZNSt3__26vectorIN13AnimationClip10FloatCurveE13stl_allocatorIS2_L18MemLabelIdentifier26ELi16EEE6resizeEj
hmc:__Z33GenerateShadowCasterPartsSortDataRK16ShadowCasterDatajRK15RenderNodeQueueRKNSt3__26vectorI20ShadowCasterPartData13stl_allocatorIS7_L18MemLabelIdentifier2ELi16EEEERK10Matrix4x4fRjP20ShadowCasterSortData
CWi:__Z173RuntimeInvoker_Void_t1185182177_RuntimeObject_Int32_t2950945753_Int32_t2950945753_RuntimeObject_RuntimeObject_RuntimeObject_RuntimeObject_SByte_t1669577662_SByte_t1669577662PFvvEPK10MethodInfoPvPS4_
Gil:_XmlSchemaComplexType_ValidateDerivationValidRestriction_m1037595778
mtk:_Kernel_DwordDivMod_m1540317819
Bvd:__ZN22ParticleSystemRenderer23UpdateVertexInputLayoutEv
fPj:_MetadataReference__ctor_m15653650
i6o:_LeanTween_easeInOutBack_m1204067298
CEe:__ZThn8_N5physx2Sc19ShapeInstancePairLLD0Ev
CXe:__ZN5physx19PxcContactSphereBoxERKNS_2Gu13GeometryUnionES3_RKNS_11PxTransformES6_RKfRNS_10PxcNpCacheERNS0_13ContactBufferE
q$f:_ContrastEnhance_OnRenderImage_m263052762
AMp:_Enumerator_System_Collections_IEnumerator_get_Current_m1399273671_gshared
eGe:__ZNK5physx7NpScene21getBroadPhaseCallbackEh
E5d:__ZN5physx6shdfnd5ArrayIPNS_12PxConstraintENS0_19ReflectionAllocatorIS3_EEE15growAndPushBackERKS3_
tjo:_UTF8Encoding_InternalGetCharCount_m82458470
Jyq:_X509StoreManager_get_CurrentUser_m719101392
B0d:__ZN5physx3Ext5JointINS_15PxDistanceJointENS_30PxDistanceJointGeneratedValuesEE10onComShiftEj
b8g:_U3CU3Ec__Iterator3_Reset_m3078230622
uyj:_HoldableInput_Update_m3976927635
KAb:__ZNSt3__213__stable_sortIRNS_4lessI4PPtrI11SpriteAtlasEEENS_11__wrap_iterIPS4_EEEEvT0_SA_T_NS_15iterator_traitsISA_E15difference_typeEPNSD_10value_typeEi
MIn:_Int64_ToString_m2085073918_AdjustorThunk
B_l:_Publisher__ctor_m2749713806
Mto:_Transform_1_Invoke_m4084479750_gshared
B6q:_ftell
Lce:__ZNK5physx2Sc15ArticulationSim11checkResizeEv
dvl:_FieldInfo_GetFieldOffset_m1356898082
Ajn:_XmlSchemaSimpleType_Compile_m3035122963
CYk:_InternalEnumerator_1_System_Collections_IEnumerator_get_Current_m4196752819_gshared
oun:_DBNull_System_IConvertible_ToBoolean_m702787761
RTm:_Camera_RaycastTry_m3913529496
cQm:_Array_InternalArray__IndexOf_TisTypeTag_t3541821701_m2988972362_gshared
sza:__ZN8keywords6CreateEPKc
vRd:__ZN5physx2Gu11gjkRelativeINS0_8CapsuleVENS0_11ConvexHullVEEEjRKT_RKT0_RKNS_6shdfnd3aos15PsMatTransformVERNSB_5Vec3VESG_SG_RNSB_6FloatVE
S:Math_imul
zif:__ZN5Unity5Joint22JointTransferPreNoAxisI14SafeBinaryReadEEvRT_
dWl:_AuthenticationManager_Authenticate_m220441371
Oxd:__Z17UpdateSprites2TplIL27ParticleSystemCurveEvalMode4ELS0_4EEvfRK11MinMaxCurveS3_RK23ParticleSystemParticlesPf
BBk:_TlsServerKeyExchange_Update_m453798279
Byb:__ZN11PlayerPrefs6GetIntERKN4core12basic_stringIcNS0_20StringStorageDefaultIcEEEEi
igg:__ZN6il2cpp5utils13dynamic_arrayIPK10Il2CppTypeLj4EEC2ERKS5_
fHm:_Text_set_fontStyle_m648756124
LHf:__Z45TextGenerator_CUSTOM_INTERNAL_get_rectExtentsP12Il2CppObjectP5RectTIfE
s2n:_DateTime__ctor_m2135476686_AdjustorThunk
uda:__ZN11AudioSource12SetAudioClipEP9AudioClip
cgr:_emscripten_glStencilFuncSeparate__wrapper
L7m:_RectTransform_GetLocalCorners_m823861473
Hbb:__Z18ReadStringFromFilePN4core17string_with_labelILi1EEERKNS_12basic_stringIcNS_20StringStorageDefaultIcEEEE
xvd:__ZN30VelocityModulePropertyBindings13GetFloatValueERK14ParticleSystemi
kCm:_Scrollbar_get_value_m760470106
blq:_XmlTextWriter_Close_m3579947138
Iko:_RegisteredWaitHandle_DoCallBack_m365365633
Foa:__ZN18ScriptingArguments9AddObjectE18ScriptingObjectPtr
_Lf:__Z39CanvasGroup_Get_Custom_PropInteractableP12Il2CppObject
Tfa:__ZN11UnityEngine15CloudWebService16SessionContainerD2Ev
n3a:__ZN7ApiGLES15BindVertexArrayEN2gl6HandleILNS0_10ObjectTypeE3EEE
Yqc:__ZN13ProbeRenderer8ConvolveEbijjb
hDq:_GUIUtility_set_systemCopyBuffer_m608712289
qXa:__ZN17GenericDynamicVBOC2ER9GfxDevice13GfxBufferModejj
Fkp:_Array_InternalArray__set_Item_TisKeyCode_t2599294277_m939884604_gshared
dHd:__Z28GetPhysics2DScriptingClassesv
b5c:__ZZN10GUIManager14InitGUIManagerEvEN41PreUpdateIMGUISendQueuedEventsRegistrator7ForwardEv
hCe:__ZNK5physx2Sc5Scene7isValidEv
JBn:_CCGregorianCalendar_day_from_fixed_m1674702403
Hhp:_Array_InternalArray__Insert_TisTableRange_t3332867892_m558285859_gshared
kha:__ZN11UnityEngine15CloudWebService17SessionEventQueue10PurgeItemsEj
hIe:__ZN5physx2Sq17SceneQueryManager29setDynamicTreeRebuildRateHintEj
Crc:__ZN6Camera16StandaloneRenderENS_10RenderFlagEP6ShaderRKN4core12basic_stringIcNS3_20StringStorageDefaultIcEEEE
P4g:_X509Chain_PrepareForNextCertificate_m3691934993
Z1b:__Z18Transfer_BlittableI18StreamedBinaryReadILb1EELb1EtEvRK29SerializationCommandArgumentsR31RuntimeSerializationCommandInfo
Tai:__ZL58EventType_t3528516131_CustomAttributesCacheGenerator_keyUpP21CustomAttributesCache
hHh:__ZL57X509Certificate_t713131622_CustomAttributesCacheGeneratorP21CustomAttributesCache
CDb:__ZN12BoneWeights48TransferI19StreamedBinaryWriteILb0EEEEvRT_
Acl:_DTDReader_ReadPubidLiteral_m957009331
fok:_XmlAttribute_get_XmlSpace_m3529581901
BRa:__ZN9GfxDevice20DeallocRenderSurfaceEP17RenderSurfaceBase
Abe:__ZN5physx6shdfnd5ArrayIPvNS0_19ReflectionAllocatorINS_18NpArticulationLinkEEEE4copyINS0_15InlineAllocatorILj256ES5_EEEEvRKNS1_IS2_T_EE
UNa:__ZN20GpuProgramParameters36UpdatePrepareValuesMaximumBufferSizeEv
nCp:_List_1_GetIndex_m1066515638_gshared
CNd:__ZNK5physx3Cct10Controller12getKineShapeEv
end:__Z15GetPositionMeshIL20MeshDistributionMode1ELb1E11ColorRGBA32EvRN4math8floatNx3ES4_RNS2_4pix4ERK13dynamic_arrayIS1_Lj4EERK14StrideIteratorI8Vector3fESF_RKSB_IT1_ERKS7_I16MeshTriangleDataLj4EERKS7_I11MeshAreaLUTLj4EERKfRKiST_R5RandNP12SkinMeshInfo
C7f:_Vector3__ctor_m1719387948_AdjustorThunk
_rd:__ZN20ExternalForcesModule8TransferI19StreamedBinaryWriteILb0EEEEvRT_
oql:_FieldBuilder_GetValue_m1576493031
U3d:__ZN5physx6shdfnd4sortIPvNS0_4LessIS2_EENS0_19ReflectionAllocatorINS_2Sc18TriggerInteractionEEEEEvPT_jRKT0_RKT1_j
o2o:_Array_InternalArray__get_Item_TisMouseState_t2297408031_m2778043212_gshared
MA:__ZN12PathCorridor25MoveOverOffmeshConnectionEyRK8Vector3fRS0_S3_PK12NavMeshQuery
_gb:__ZN12BaseRenderer23RendererBecameInvisibleEv
sAe:__ZNK5physx2Sc8BodyCore14getMaxAngVelSqEv
MDf:__ZN20TextRenderingPrivate8FontImpl13CharacterInfo8TransferI18StreamedBinaryReadILb0EEEEvRT_
HDi:_FileWebResponse_get_Headers_m2667678104
m$b:__Z29Transfer_Blittable_ArrayFieldI24GenerateTypeTreeTransferfEvRT_R9ArrayInfoRK23StaticTransferFieldInfo
WBa:__ZNSt3__26__treeINS_12__value_typeIN4core12basic_stringIcNS2_20StringStorageDefaultIcEEEES6_EENS_19__map_value_compareIS6_S7_NS_4lessIS6_EELb1EEE13stl_allocatorIS7_L18MemLabelIdentifier13ELi16EEE7destroyEPNS_11__tree_nodeIS7_PvEE
HXm:_UnityEvent_FindMethod_Impl_m2312362624
Ssc:__ZN19CustomRenderTexture9AddParentE4PPtrIS_E
kxa:__ZN8Gradient8TransferI14SafeBinaryReadEEvRT_
Z7f:_Vector3_GetHashCode_m2879461828
T8n:_Parser_ParseSpecial_m1961501104
f3l:_Single_System_IConvertible_ToUInt64_m3299129161_AdjustorThunk
DDi:_FileWebResponse__ctor_m70121420
Ysb:__ZNSt3__26vectorIN4core12basic_stringIcNS1_20StringStorageDefaultIcEEEE13stl_allocatorIS5_L18MemLabelIdentifier1ELi16EEE7reserveEj
uZj:_SafeHandle_DangerousRelease_m190326290
Mmk:_XmlSchemaValidationException__ctor_m1410215019
x2j:_AsyncResult_get_AsyncState_m2322299153
Yvn:_Decimal_Truncate_m3035934636
xsn:_UrlIdentityPermission_IsEmpty_m608147207
NIi:_IPv6Address_AsIPv4Int_m844941024
fYq:_TextGenerator_GetLinesInternal_m3073492067
q6o:_LTBezierPath_placeLocal2d_m2634818376
BYe:__ZN5physx2Gu32PCMConvexVsMeshContactGeneration15processTriangleEPKNS_6PxVec3EjhPKj
XBk:_RecordProtocol__cctor_m1280873827
qho:_StringBuilder__ctor_m3504405255
zZg:__ZN6il2cpp6icalls8mscorlib6System10Reflection4Emit13DynamicMethod22destroy_dynamic_methodEP29Il2CppReflectionDynamicMethodS7_
bZj:_Marshal__cctor_m4007734770
gSg:_GC_new_free_list_inner
Zxl:_SymmetricTransform_Random_m2004892672
Dsh:__ZL72RuntimeCompatibilityAttribute_t1169614002_CustomAttributesCacheGeneratorP21CustomAttributesCache
cZj:_Marshal_copy_to_unmanaged_m3612458659
d0e:__ZN5physx6shdfnd5ArrayINS_2Cm8Matrix34ENS0_19ReflectionAllocatorIS3_EEE15growAndPushBackERKS3_
pwk:_RSAManaged_DecryptValue_m1804388365
IYe:__ZN5physx2Gu32PCMConvexVsMeshContactGeneration31generatePolyDataContactManifoldERNS0_9TriangleVEjjhPNS0_21MeshPersistentContactERjRKNS_6shdfnd3aos6FloatVERNS8_5Vec3VE
WMk:_InternalEnumerator_1_System_Collections_IEnumerator_get_Current_m2980550840_AdjustorThunk
lcf:__ZN5physx10SubSortSAH5splitEPjj
fNj:_ObjectReader_ReadArrayOfPrimitiveType_m3374303005
GC:__ZN25RuntimeAnimatorController8TransferI14SafeBinaryReadEEvRT_
jed:__ZN8JSONRead8TransferI10RectOffsetEEvRT_PKc17TransferMetaFlagsb
Vga:__ZN9JSONWrite8TransferIN11UnityEngine15CloudWebService14DataErrorEvent15FileErrorDetailEEEvRT_PKc17TransferMetaFlags
dro:_UInt32_System_IConvertible_ToUInt64_m1094958903
KHn:_Int32_Parse_m2087562008
qPn:_PrivateKeyInfo__ctor_m2414235375
XSd:__ZN5physx2Gu3EPA8addFacetEjjjRKNS_6shdfnd3aos6FloatVES6_
Iqd:__ZN14RotationModule8TransferI17RemapPPtrTransferEEvRT_
VUj:_MonoProperty_GetAccessors_m412928203
_Gq:_TweenRunner_1_Start_m3757154622_gshared
V4:__ZN12SoundManager20RegisterModifiedClipEP10SampleClip
YZj:_RemotingServices_GetClientChannelSinkChain_m1499550585
wJq:___GeneralBasicJSU24callable2U2435_48___Invoke_m2050167094
$jl:_Assembly_FillName_m1660001542
iCh:__ZL56_EventBuilder_t2558055199_CustomAttributesCacheGeneratorP21CustomAttributesCache
Pln:_SHA384Managed_processBlock_m1272529332
o9:__ZN11AudioSource4PlayEd
zzq:_X509Store_get_Crls_m1211262034
dKl:_Char_ToString_m278452217_AdjustorThunk
F_d:__ZN5physx3Cct9CCTParamsC2Ev
dfg:__ZN15dense_hashtableI10KeyWrapperIPK17Il2CppGenericInstES4_N6il2cpp8metadata21Il2CppGenericInstHashEN14dense_hash_setIS4_S7_NS4_14EqualsComparerINS6_24Il2CppGenericInstCompareEEENSt3__29allocatorIS4_EEE8IdentityESB_SE_E13set_empty_keyERKS4_
lNi:__Z63RuntimeInvoker_Char_t3634460470_Int16_t2552820387_RuntimeObjectPFvvEPK10MethodInfoPvPS4_
n$n:_Convert_ToDouble_m2924063577
eqe:__ZN5physx7NpCloth21setStiffnessFrequencyEf
dRe:__ZN5physx17PxcSweepBoxConvexERKNS_11PxsCCDShapeES2_PKNS_12PxsRigidBodyES5_RKNS_11PxTransformES8_S8_S8_fRNS_6PxVec3ESA_RNS_10PxcNpCacheERNS_18PxcNpThreadContextEf
i1h:__ZL114RenderTexture_t2108887433_CustomAttributesCacheGenerator_RenderTexture_GetTemporary_m1832746092____memorylessMode6P21CustomAttributesCache
x8e:__ZThn8_N5physx2Gu11HeightField14onRefCountZeroEv
nnq:_SectionGroupInfo_get_Groups_m3461346045
m3d:__ZN5physx2Sc5Actor9setActiveEbj
kRd:__ZN12_GLOBAL__N_127SphereMeshContactGeneration15processTriangleEjRKN5physx6PxVec3ES4_S4_PKj
DAo:_ValueCollection_System_Collections_Generic_ICollectionU3CTValueU3E_Remove_m3673494156_gshared
zvb:__ZN7Cubemap23VirtualRedirectTransferER18StreamedBinaryReadILb0EE
qbp:_LTDescrImpl_set_origRotation_m3576819492
wdk:_CanvasScaler_OnEnable_m2728005489
jYc:__ZNSt3__27__sort4IRNS_6__lessI11KeyframeTplIfES3_EEPS3_EEjT0_S7_S7_S7_T_
nAf:_Read_CVT
I3d:__ZN5physx2Sc10NPhaseCore28reserveContactReportPairDataEjjRj
BRd:__ZN5physx2Gu22barycentricCoordinatesERKNS_6shdfnd3aos5Vec3VES5_S5_RNS2_6FloatVE
sdb:__ZN12FileAccessor4SeekEx10FileOrigin
wtn:_ApplicationTrust_GetDefaultGrantSet_m1199482037
a_b:__ZL26Transfer_SimpleNativeClassI24GenerateTypeTreeTransfer17AnimationCurveTplIfELb0EEvRK29SerializationCommandArgumentsR31RuntimeSerializationCommandInfo
jfd:__ZN8JSONRead21TransferSTLStyleArrayI13dynamic_arrayI9BoundsIntLj4EEEEvRT_17TransferMetaFlags
Gxb:__ZN24GenerateTypeTreeTransfer8TransferI13dynamic_arrayI33EnlightenTerrainChunksInformationLj4EEEEvRT_PKc17TransferMetaFlags
aun:_DateTimeFormatInfo__ctor_m3106345035
kt:__ZN14NavMeshManager11ReplaceTileEiiPhi
Ywp:_EqualityComparer_1_System_Collections_IEqualityComparer_GetHashCode_m4137147946_gshared
Faf:__ZL18TestUnifiedNormalsjPKN5physx6PxVec3EjPNS_2Gu9TriangleTIjEEb
Pqm:_ShimEnumerator_get_Entry_m1172274192_gshared
rDa:__ZN16LightmapSettings20DidChangeActiveSceneEP10UnitySceneS1_
Pwi:__ZL59g_AssemblyU2DCSharp_Assembly_CustomAttributesCacheGeneratorP21CustomAttributesCache
A0c:__Z39Register_UnityEngine_Time_get_timeScalev
Emg:__ZN6il2cpp5utils9PathUtils8BasenameIcEENSt3__212basic_stringIT_NS3_11char_traitsIS5_EENS3_9allocatorIS5_EEEERKSA_
s6j:_RemotingProxy__cctor_m4096951805
E2c:__Z55Register_UnityEngine_GL_GetGPUProjectionMatrix_Injectedv
jaq:_Comparison_1_Invoke_m2458689348_gshared
vPo:_Enumerator_MoveNext_m2142368520_gshared
I6c:__Z35Register_UnityEngine_Event_get_typev
H9o:_LeanTween_moveLocalZ_m1939051329
LCg:__ZN6il2cpp2vm9Exception23GetInvalidCastExceptionERKNS_5utils10StringViewIDsEE
Knq:_ConfigurationErrorsException_GetFilename_m2949473925
$dr:_emscripten_glDepthRange__wrapper
gaq:_Comparison_1_BeginInvoke_m1735646405_gshared
g7e:__ZNK5physx13GuMeshFactory17getNbConvexMeshesEv
vzd:__ZN14ParticleSystem15InitializeClassEv
cfh:_XsdAppendedValidationState_EvaluateStartElement_m3335137423
mna:__Z63ThreadAndSerializationSafeCheckGetMonoBehaviourBeingTransferredv
TUg:_GC_enable
WB:__ZNK12NavMeshAgent18GetDesiredVelocityEv
scp:_LTDescrImpl_setOnUpdate_m852599369
JBp:_List_1_set_Item_m4224739467_gshared
aGp:_List_1_AddEnumerable_m1239385562_gshared
Zcm:_Enumerator_get_CurrentValue_m60334065_gshared
Pek:_ColorTween_set_startColor_m2562993758_AdjustorThunk
Gml:_ConstructorBuilder_get_Name_m2426555260
yXc:__Z37Register_UnityEngine_Input_GetAxisRawv
gRo:_Enumerator_System_Collections_IEnumerator_get_Current_m1643543708_AdjustorThunk
C0n:_Convert_ToSByte_m2653418303
dVn:_SyncHashtable__ctor_m2449935938
pGk:_BasicFSM_1_GetNextStateID_m1483998768_gshared
xmq:_XmlValidatingReader_MoveToAttribute_m565086185
a9:__ZN11AudioSource5ResetEv
$kn:_RSAPKCS1SignatureFormatter_SetKey_m2935054088
nhc:__ZN12ImageFilters27SetSurfaceUseResolvedBufferEP13RenderTextureb
xPl:_EnumConverter_CanConvertTo_m1239367246
QFi:_FtpWebRequest_InitDataConnection_m1033696962
Nyp:_HashAlgorithm_TransformBlock_m4006041779
xB:__ZN12NavMeshQuery22FinalizeSlicedFindPathEPi
ZAb:__ZN14Texture2DArray23VirtualRedirectTransferER18StreamedBinaryReadILb0EE
tHa:__ZN13TrailRenderer5ResetEv
djo:_UTF7Encoding_GetByteCount_m209415911
ePb:__ZN2UI13RectTransform13AwakeFromLoadE17AwakeFromLoadMode
z$f:_ContrastStretch_OnRenderImage_m3025313956
K2c:__Z30Light_Set_Custom_PropIntensityP12Il2CppObjectf
jmc:__ZN14qsort_internal30FindAndMovePivotToLastPositionIP20ShadowCasterSortDatai26ShadowCasterSortDataSorterEEvT_S4_T0_T1_
Jfg:__ZNK15dense_hashtableI10KeyWrapperIPK19Il2CppGenericMethodES4_N6il2cpp8metadata23Il2CppGenericMethodHashEN14dense_hash_setIS4_S7_NS4_14EqualsComparerINS6_26Il2CppGenericMethodCompareEEENSt3__29allocatorIS4_EEE8IdentityESB_SE_E3endEv
yTb:__Z18Transfer_BlittableI14SafeBinaryReadLb1EiEvRK29SerializationCommandArgumentsR31RuntimeSerializationCommandInfo
V4g:_X509ExtensionEnumerator_get_Current_m256207749
vya:__GLOBAL__sub_I_modules_profiler_public_0_cpp
bwm:_InputField_MoveTextStart_m1087475594
w0g:_WebConnection_set_UnsafeAuthenticatedConnectionSharing_m987184906
WTl:_TraceImpl_InitOnce_m17789841
GNb:__ZN17PersistentManager13GetAllFileIDsERKN4core12basic_stringIcNS0_20StringStorageDefaultIcEEEER13dynamic_arrayIxLj8EE
VAn:_EventArgs__cctor_m1889823314
iGl:_Array_Sort_m182264525
Cxc:__Z13TransformAABBRK4AABBRK8Vector3fRK11QuaternionfRS_
ubl:_NumberFormatter_FormatRoundtrip_m1288785273
tll:_Default_IsArrayAssignable_m953489228
H1n:_Convert_ToUInt32_m668801151
g0f:_EdgeDetection__ctor_m28089792
mke:__ZN18MultiQueryCallbackIN5physx12PxOverlapHitEE6invokeERfPKNS0_2Sq13PrunerPayloadEj
jVd:__ZN5physx2Gu18gjkRelativeRayCastINS0_4BoxVES2_NS0_10ShrunkBoxVES3_EEbRT_RT0_RKNS_6shdfnd3aos15PsMatTransformVERKNS9_6FloatVERKNS9_5Vec3VESI_RSD_RSG_SK_fb
dm:_glGetStringi
ifo:_DecoderExceptionFallback_CreateFallbackBuffer_m1133375601
ZTo:_List_1_CheckIndex_m1755922694_gshared
ajm:_Enumerator_get_CurrentKey_m889650866_gshared
xZq:_Physics_Raycast_m3133704280
O7e:__ZThn8_N5physx2Gu10ConvexMeshD0Ev
lOe:__ZNK5physx2Sq12BucketPruner7raycastERKNS_6PxVec3ES4_RfRNS0_14PrunerCallbackE
wU:__ZN8Animator9WriteStepEy
joq:_ConfigurationLocationCollection_Find_m3870489298
Jd:invoke_viiiiifffi
Gha:__ZN11UnityEngine15CloudWebService20WebRequestRestClient18GetResponseHeadersEv
Kyb:__ZNSt3__23mapIN4core12basic_stringIcNS1_20StringStorageDefaultIcEEEE9PrefValueNS_4lessIS5_EENS_9allocatorINS_4pairIKS5_S6_EEEEEixERSB_
iIc:__ZN15DirectorManager22ConstructPlayableGraphEv
bnk:_TypeData_get_ListItemTypeData_m3343906619
dkg:_scan_tree
THf:__Z38Register_UnityEngine_Font_HasCharacterv
vVl:_DeflateStream_get_CanWrite_m4292365324
gqc:__Z35IntersectSpherePlaneBoundsOptimizedRKN4math7_float4EPS1_i
iKp:_List_1_CheckIndex_m2250397830_gshared
ekn:_RNGCryptoServiceProvider__cctor_m3587754670
E1d:__ZN5physx2Sc8ShapeSim20createLowLevelVolumeEjRKNS_9PxBounds3EjNS_9AABBMgrIdE
MDi:_FileWebResponse_Close_m416836077
Kud:__ZN37InheritVelocityModulePropertyBindings13GetFloatValueERK14ParticleSystemi
jKg:__ZN6il2cpp2os5posix15PosixWaitObject13InterruptWaitEv
jqe:__ZNK5physx7NpCloth22getAngularInertiaScaleEv
YWd:__ZN26IntersectAnyVsMeshCallbackILi1ELb1EE10processHitERKN5physx12PxRaycastHitERKNS1_6PxVec3ES7_S7_RfPKj
sTp:_Collection_1_System_Collections_IList_Remove_m1232015591_gshared
QCa:__Z22CleanupLODGroupManagerPv
BJe:__ZN5physx6shdfnd5ArrayINS_2Sc5Scene14SimpleBodyPairENS0_19ReflectionAllocatorIS4_EEE8recreateEj
Om:_glUniform3fv
uYg:__ZNK6il2cpp8metadata24Il2CppGenericInstCompareclERK10KeyWrapperIPK17Il2CppGenericInstES8_
EKb:__ZNSt3__218__insertion_sort_3IRN15ResourceManager10Dependency6SorterEPS2_EEvT0_S6_T_
o5g:_X509ChainElement_Set_m655180762
YNc:__ZNK8Gradient19InitializeOptimizedER17OptimizedGradient
Wkc:__ZNK16LightmapSettings31GetRealtimeLightmapDecodeValuesEv
L6:__ZN5audio5mixer12SetSuspendedERNS0_16AudioMixerMemoryEb
yOb:__ZN17PersistentManager21UnloadNonDirtyStreamsEv
bCg:__ZN6il2cpp2vm13LivenessStateC2EP11Il2CppClassjPFvPP12Il2CppObjectiPvES7_PFvvESB_
Dvj:_FloatRange__ctor_m2323091469
tik:_Graphic_GetPixelAdjustedRect_m3729397999
i$q:_Canvas_get_overrideSorting_m2740418462
u6m:_Rect_set_xMin_m2413290617_AdjustorThunk
_Bb:__ZN12ImageFilters4BlitER17ShaderPassContextP7TextureP13RenderTextureiPK18SharedMaterialDataPKcP6ShaderiNS_9BlitFlagsE11CubemapFaceRK8Vector2fSH_
vlf:__ZN5physx6shdfnd8PoolBaseINS_24NpPtrTableStorageManager8PtrBlockILi4EEENS0_19ReflectionAllocatorIS4_EEE12allocateSlabEv
qmi:__ZL69CanvasScaler_t2767979955_CustomAttributesCacheGenerator_m_ScaleFactorP21CustomAttributesCache
k$j:_ConfigHandler_CheckPath_m3079311646
uha:__ZN11UnityEngine15CloudWebService10RestClientINS0_23WebRequestRestHeaderMapEED2Ev
P4e:__ZN5physx2Sc5Scene13ccdBroadPhaseEPNS_10PxBaseTaskE
Rnq:_ConfigInfoCollection_Remove_m1621385935
kn:_emscripten_glDepthMask
ssq:_ProviderSettings_get_Type_m1536535974
DYe:__ZN5physx2Gu24PCMMeshContactGeneration15processContactsEhb
QZj:_RemotingServices_CreateClientProxy_m3886727610
FYa:__ZN4crnd25static_huffman_data_model22prepare_decoder_tablesEv
Wpe:__ZN5physx7NpCloth12setParticlesEPKNS_15PxClothParticleES3_
mjf:__ZN5physx7profile8ZoneImplINS_28PxProfileNameProviderForwardEE9doAddNameEPKctb
SUm:_Component_BroadcastMessage_m2662892479
aCk:_RecordProtocol_GetMessage_m2086135164
B5c:__Z23GUIStatePopDisplayIndexv
Zy:__ZNSt3__27__sort5IR17DetailNodeYSorterP16DetailMeshBVNodeEEjT0_S5_S5_S5_S5_T_
wDa:__Znaj
z$o:_Dictionary_2_Do_ICollectionCopyTo_TisKeyValuePair_2_t732183006_m1238277994_gshared
jlr:_emscripten_glEnableClientState__wrapper
eAa:__ZN17MessageIdentifierC2EPKcNS_7OptionsEPKN5Unity4TypeES1_
PIm:_Array_InternalArray__ICollection_Contains_TisLabel_t2281661643_m1425978922_gshared
m2m:_Mesh_SetTriangles_m1523451247
W2l:_Single_System_IConvertible_ToSByte_m1208276900
Vkp:_Array_InternalArray__set_Item_TisVector4_t3319028937_m757305038_gshared
gmn:_SHA512Managed_processLength_m2162821715
bWi:__Z105RuntimeInvoker_Void_t1185182177_RuntimeObject_RuntimeObject_RuntimeObject_RuntimeObject_Int32_t2950945753PFvvEPK10MethodInfoPvPS4_
SSe:__ZN5physxL26solveFriction4_StaticBlockEPKNS_23PxcSolverConstraintDescERNS_16PxcSolverContextE
Rip:_Array_InternalArray__Insert_TisContactPoint_t3758755253_m151422964_gshared
Dea:__Z55Register_UnityEngine_AudioSource_get_spatializeInternalv
W9a:__ZN14SafeBinaryRead8TransferI14ConstantStringEEvRT_PKc17TransferMetaFlags
wXe:__ZN5physx30PxcGetMaterialShapeHeightFieldEPKNS_12PxsShapeCoreES2_RNS_18PxcNpThreadContextEPNS_15PxsMaterialInfoE
Afc:__ZNK6Camera16GetStereoEnabledEv
wSk:_InternalEnumerator_1_System_Collections_IEnumerator_get_Current_m3853320011_gshared
AUi:__Z72RuntimeInvoker_Int32_t2950945753_TimeSpan_t881159249_TimeSpan_t881159249PFvvEPK10MethodInfoPvPS4_
BCk:_SendRecordAsyncResult_SetComplete_m153213906
UJ:__ZN13AnimationClip9PPtrCurveaSERKS0_
yOa:__ZL24FindBelongingStructParamRPKcRNSt3__26vectorIN9ShaderLab20SerializedSubProgram14ConstantBufferENS2_9allocatorIS6_EEEE
kEc:__ZN12LightManager15InitializeClassEv
y5e:__ZN5physx6shdfnd8PoolBaseINS_2Sc19ParticlePacketShapeENS0_19ReflectionAllocatorIS3_EEE12allocateSlabEv
Xrb:__ZN9ShaderLab11shaderprops16GetComputeBufferEPK19ShaderPropertySheetS3_NS_16FastPropertyNameE
IOk:_InternalEnumerator_1_get_Current_m1845246162_AdjustorThunk
Voa:__ZN18ScriptingArgumentsC2Ev
$Uf:_ProtectCameraFromWallClip__ctor_m1965238372
t8f:_Vector3_op_Equality_m4231250055
bgr:_emscripten_glBlendFuncSeparate__wrapper
Ucn:_XmlSchemaElement_get_ActualIsAbstract_m2408989479
ka:invoke_viffffiiii
_si:__ZL66BloomOptimized_t2685819829_CustomAttributesCacheGenerator_blurSizeP21CustomAttributesCache
xqn:_ReflectionPermission_Cast_m2554660366
J0k:_FileSystemInfo__ctor_m3769019897
O3o:_Array_InternalArray__get_Item_TisContentType_t1787303396_m421427711_gshared
IVa:__Z17HasSampledTexture14GraphicsFormat13formatSupport
Pgc:__ZNK25CameraStackRenderingState27GetStereoImageEffectTextureEb
$fj:__Z101RuntimeInvoker_Int32_t2950945753_RuntimeObject_Single_t1397266774_Int32_t2950945753_Int32_t2950945753PFvvEPK10MethodInfoPvPS4_
Bjg:__ZN6il2cpp6icalls6System6System3Net7Sockets6Socket7ReceiveEiP11Il2CppArrayiiNS4_11SocketFlagsEPi
vOc:__ZN13BuildSettings13GetSceneIndexERKN4core12basic_stringIcNS0_20StringStorageDefaultIcEEEE
$q:FUNCTION_TABLE_ii
qpl:_EnumBuilder_get_TypeHandle_m825995360
Qgb:__ZN10TagManager8TransferI18StreamedBinaryReadILb0EEEEvRT_
Nvj:_FollowMouse_Orbit_AteUpdate_m1029166472
Lad:__Z18Transfer_BlittableI9JSONWriteLb0E8BitFieldEvRK29SerializationCommandArgumentsR31RuntimeSerializationCommandInfo
R2k:_MemoryStream_set_Capacity_m1773624579
ayg:__ZNK15dense_hashtableINSt3__24pairIK10KeyWrapperINS1_IP11Il2CppClassjEEES4_EES6_N6il2cpp8metadata14ArrayClassHashEN14dense_hash_mapIS6_S4_SB_NS6_14EqualsComparerINSA_17ArrayClassCompareEEENS0_9allocatorIS8_EEE9SelectKeyESF_SH_E10test_emptyEj
uBn:_GC_SuppressFinalize_m1177400158
IJa:__ZNSt3__26vectorIN9ShaderLab20SerializedSubProgram15StructParameterENS_9allocatorIS3_EEE8__appendEj
Vdr:b44
nc:invoke_diiii
_Jc:__ZNK6Sprite15GenerateOutlineEfhbRNSt3__26vectorI13dynamic_arrayI8Vector2fLj4EENS0_9allocatorIS4_EEEEi
bWd:__ZL17sweepVolumeVsMeshPKN5physx3Cct9SweepTestEPKNS0_11TouchedMeshERNS0_12SweptContactERKNS_6PxVec3ERKNS_10PxGeometryERKNS_11PxTransformEjPKNS_10PxTriangleEj
l1i:__Z95RuntimeInvoker_Void_t1185182177_RuntimeObject_RuntimeObject_SByte_t1669577662_SByte_t1669577662PFvvEPK10MethodInfoPvPS4_
R$e:__ZN5physx2Gu31checkOverlapOBB_heightFieldGeomERKNS_10PxGeometryERKNS_11PxTransformERKNS0_3BoxE
ubb:__Z24CreateDirectoryRecursiveRKN4core12basic_stringIcNS_20StringStorageDefaultIcEEEE
cMa:__ZN9ShaderLab20SerializedSubProgram8TransferI18StreamedBinaryReadILb0EEEEvRT_
sDk:_SslClientStream_get_HaveRemoteValidation2Callback_m2858953511
Rdr:b40
X4c:__Z22MonoGUIContentToNative18ScriptingObjectPtrR10GUIContent
TOd:__ZN5physx2Gu23findRotationMatrixFromZERKNS_6PxVec3E
cN:__ZN26AnimatorControllerPlayable13GenerateGraphEv
Gza:__ZN13RuntimeStaticI21ScalableBufferManagerLb0EE13StaticDestroyEPv
zIf:__ZN2UI13CanvasManager9AddCanvasEPNS_6CanvasE
RBb:__ZN9Texture3D8TransferI19StreamedBinaryWriteILb0EEEEvRT_
shc:__ZNK6Camera22CalculateRenderingPathEv
dfl:_XmlSchemaAny_Read_m1998536659
dcd:__ZN9JSONWrite8TransferI5RectTIfEEEvRT_PKc17TransferMetaFlags
oIe:__ZN5physx13NpVolumeCache10invalidateEv
fW:__ZN11UnityEngine9Animation37SetGenericRootTransformPropertyValuesERKNS0_30AnimatorGenericBindingConstantERKN7mecanim10ValueArrayER9Transformbb
VPq:_AudioClip_SetData_m313920037
fzl:_Uri_Parse_m2623468805
S2a:__Z13ConvertMipmap14GraphicsFormatPKvS_Pviiii
IYb:__ZL12InvokeMethodI17RemapPPtrTransferEvRK29SerializationCommandArgumentsR31RuntimeSerializationCommandInfo
MKi:_NetworkStream_EndRead_m1637001035
RYf:_TiltInput_OnDisable_m1131217228
S5l:_StringComparer_Compare_m991165676
Wxf:_tt_sbit_decoder_load_image
W2m:_MessageEvent__ctor_m1231650089
MGq:_U3CStartU3Ec__Iterator0_Dispose_m261027331_gshared
R3a:__ZN4core8hash_mapIPK17RenderSurfaceBaseP13RenderTexture19PointerHashFunctionIS3_ENSt3__28equal_toIS3_EEE6insertERKNS8_4pairIKS3_S5_EE
v5c:__ZNSt3__24listIN10GUIManager12SortedScriptE11memory_poolIS2_EE6__sortI13OldSortScriptEENS_15__list_iteratorIS2_PvEESA_SA_jRT_
d2d:__ZN5physx6shdfnd5ArrayIPvNS0_19ReflectionAllocatorINS_2Sc10NPhaseCore16ClothListElementEEEE15growAndPushBackERKS2_
wVp:_Collection_1_System_Collections_IList_Add_m3364892189_gshared
sgm:_Enumerator_VerifyState_m1545185457_gshared
dDp:_List_1_AddEnumerable_m3500350831_gshared
bkm:_Enumerator_System_Collections_IEnumerator_get_Current_m545477138_gshared
awk:_PrivateKeyInfo_get_PrivateKey_m3647771102
vL:__ZN13AnimationClip8TransferI17RemapPPtrTransferEEvRT_
oBg:__ZN6il2cpp6icalls8mscorlib6System9ThreadingL11ThreadStartEPv
unm:_KeyCollection_System_Collections_Generic_ICollectionU3CTKeyU3E_Add_m1539588444_gshared
wNo:_Enumerator_get_Current_m2579293505_gshared
oFa:__ZN15DirectorManager12OnSampleTimeEv
hQm:_Array_InternalArray__IndexOf_TisMark_t3471605523_m2905388260_gshared
Oml:_TypeBuilder_check_not_created_m3652863637
reo:_Uri_GetHashCode_m321999866
sbk:_StandaloneInputModule_UpdateModule_m450861257
wXq:_Font_add_textureRebuilt_m2164317336
N8p:_ReadOnlyCollection_1_System_Collections_IList_Insert_m2928873627_gshared
Ayp:_EqualityComparer_1__cctor_m314889309_gshared
swa:__ZN12CachedReader10Align4ReadEv
hEd:__ZN15b2WorldManifold10InitializeEPK10b2ManifoldRK11b2TransformfS5_f
Qxq:_X501__cctor_m2428304915
h$q:_Canvas_get_renderOrder_m1489855841
WJ:__Z14resize_trimmedINSt3__26vectorIN13AnimationClip10FloatCurveE13stl_allocatorIS3_L18MemLabelIdentifier26ELi16EEEEEvRT_j
iDg:__ZN6il2cpp2vm9Exception28GetMarshalDirectiveExceptionEPKc
Z1f:_AutoMoveAndRotate_Start_m235804072
X8a:__ZNK9Behaviour22GetTypeVirtualInternalEv
Uke:__ZN5physx2Sc14ConstraintCore13setBreakForceEff
IBn:_CCGregorianCalendar_month_from_fixed_m4268992710
mOm:_Array_compare_TisUICharInfo_t75501106_m1310495481_gshared
Sqc:__Z21GetScriptingArraySize17ScriptingArrayPtr
iDf:__ZN20TextRenderingPrivate8FontImpl8TransferI14SafeBinaryReadEEvRT_
Hzd:__ZNSt3__27__sort4IRN10vector_mapIi22ParticleModulePropertyNS_4lessIiEENS_9allocatorINS_4pairIiS2_EEEEE13value_compareEPS7_EEjT0_SD_SD_SD_T_
pxc:__ZN13TrailRenderer18PrepareRenderNodesILb1EEEvR35RenderNodeQueuePrepareThreadContext
t7n:_MatchCollection_GetEnumerator_m3899212470
AFe:__ZN5physx7NpScene15removeAggregateERNS_11PxAggregateEb
Oda:__Z30AudioClip_CUSTOM_Init_InternalP12Il2CppObjectP12Il2CppStringiiih
Odp:_LTSpline_drawGizmo_m2577804934
NBl:_X509Store_LoadCertificate_m3784648877
f6l:_TermInfoReader_Get_m1464778293
Inf:__ZZN14PhysicsManager15InitializeClassEvEN63EarlyUpdatePhysicsResetInterpolatedTransformPositionRegistrator7ForwardEv
Opd:__ZN11ShapeModule18MultiModeParameterIN25IParticleSystemProperties8PropertyIfNS1_11ClampRadiusEEEE8TransferI14SafeBinaryReadEEvRT_
xSa:__ZN9GfxDevice17ImmediateTexCoordEifff
ddp:_LTGUI_destroyAll_m1326456055
RAi:_WebRequestModuleHandler_Create_m480500646
FJd:__ZN10ClipperLib7Clipper13AppendPolygonEPNS_5TEdgeES2_
rol:_DerivedType_GetCustomAttributes_m3536779709
S$d:__ZNK5physx3Ext5JointINS_15PxDistanceJointENS_30PxDistanceJointGeneratedValuesEE12getLocalPoseENS_17PxJointActorIndex4EnumE
sul:_MethodBase_get_IsAbstract_m428833029
Gmq:_XmlValidatingReader_OnValidationEvent_m367061793
MKo:_KeyValuePair_2_ToString_m4064371682_gshared
Tsl:_TypeBuilder_check_name_m3505884515
jZb:__Z35Transfer_Blittable_FixedBufferFieldI24GenerateTypeTreeTransferhEvRK29SerializationCommandArgumentsR31RuntimeSerializationCommandInfo
nAd:__Z61ParticleSystemExtensionsImpl_CUSTOM_GetSafeCollisionEventSizeP12Il2CppObject
Dap:_LeanTween_easeInQuad_m2895588626
Kdr:_emscripten_glUniform4f__wrapper
cxl:_MonoMethod_GetBaseDefinition_m2844667474
URo:_Enumerator_MoveNext_m2595190390_AdjustorThunk
S2e:__ZN5physx6shdfnd5ArrayINS_25PxcThresholdStreamElementENS0_19ReflectionAllocatorIS2_EEE8recreateEj
deh:_XdtYearMonthDuration_ParseValueType_m2091022425
zma:__ZNK6Camera16GetProjectionFarEv
sA:__Z24InverseTransformRotationRK23TransformAccessReadOnlyRKN4math7_float4E
Ryq:_X509Chain_Build_m2469702749
h9:__ZN11AudioSource6UpdateEv
gFq:_UnityAction_2_BeginInvoke_m1733258791_gshared
$tb:__ZNK14PlayableOutput11DerivesFromE17ScriptingClassPtr
mvb:__ZN7Texture34CreateFileTextureUploadInstructionE18TextureUploadFlagsj
oOp:_Collection_1_CheckWritable_m2124644855_gshared
F4a:__ZN13ComputeShader14SetBufferParamEjRKN9ShaderLab16FastPropertyNameE15ComputeBufferID
kre:__ZN5physx7NpCloth21setCollisionMassScaleEf
e0e:__ZN5physx6shdfnd5ArrayINS_7PxPlaneENS0_19ReflectionAllocatorIS2_EEE8recreateEj
pv:__ZNSt3__26vectorIN22NavMeshProjectSettings15NavMeshAreaDataENS_9allocatorIS2_EEE6assignINS_11__wrap_iterIPS2_EEEENS_9enable_ifIXaasr21__is_forward_iteratorIT_EE5valuesr16is_constructibleIS2_NS_15iterator_traitsISB_E9referenceEEE5valueEvE4typeESB_SB_
S8o:_LeanTween_play_m3957073269
rof:__ZN13PhysicsModule17GetRigidBodyStateERK9RigidbodyPN8IPhysics14RigidBodyStateE
Coh:__ZL64SerializableAttribute_t1992588303_CustomAttributesCacheGeneratorP21CustomAttributesCache
$db:__ZN25SingleBlockMemoryFileDataC2E10MemLabelIdPvjb
JHm:_Array_get_swapper_TisRaycastResult_t3360306849_m1267000905_gshared
NDf:__ZN18StreamedBinaryReadILb0EE21TransferSTLStyleArrayI10vector_mapINSt3__24pairIttEEfN20TextRenderingPrivate8FontImpl14KerningCompareENS3_9allocatorINS4_IS5_fEEEEEEEvRT_17TransferMetaFlags
iwe:__ZN5physx2Sc17ParticleSystemSim7releaseEb
_Ed:__ZNK14b2CapsuleShape5CloneEP16b2BlockAllocator
TN:__ZN17AnimationPlayable34CollectAnimatorControllerPlayablesER13dynamic_arrayIP26AnimatorControllerPlayableLj4EE
eca:__ZN16BaseVideoTexture19UpdateVideoTexturesEv
Rwl:_MonoField_GetValue_m3124733531
elb:__Z28BuildSingleStreamChannelInfo17ShaderChannelMaskRK20VertexChannelsLayoutS_S2_P11ChannelInfo
Tva:__ZNK16LightmapSettings23HasLightProbeTetrahedraEv
Vjd:__ZNK18ColorBySpeedModule12UpdateSingleERK22ParticleSystemParticleR11ColorRGBA32
vzb:__ZN6Sprite23VirtualRedirectTransferER19StreamedBinaryWriteILb0EE
F0c:__Z38Transform_CUSTOM_INTERNAL_set_positionP12Il2CppObjectRK8Vector3f
q8j:_EventTrigger_Execute_m2453060771
faq:_Comparison_1_Invoke_m517083441_gshared
dZi:__Z253RuntimeInvoker_Int32_t2950945753_RuntimeObject_Int32_t2950945753_Int32_t2950945753_RuntimeObject_Int32_t2950945753_UInt32U26_t3735378166_UInt32U26_t3735378166_RuntimeObject_DecoderFallbackBufferU26_t3866396827_ByteU5BU5DU26_t4057885439_SByte_t1669577662PFvvEPK10MethodInfoPvPS4_
yMl:_NameValueCollection_Get_m1006871566
$pg:__ZNK15dense_hashtableINSt3__24pairIK10KeyWrapperINS1_IPK9FieldInfoP11Il2CppClassEEEjEES9_17ReflectionMapHashIS8_EN14dense_hash_mapIS9_jSD_NS9_14EqualsComparerINS0_8equal_toIS8_EEEENS0_9allocatorISB_EEE9SelectKeyESI_SK_E5beginEv
LOa:__ZNK9ShaderLab7Program19HasMatchingVariantsERK13dynamic_arrayI16ShaderKeywordSetLj4EE
jV:__ZN15SerializeTraitsIN4math4trsXEE8TransferI8BlobSizeEEvRS1_RT_
rWa:__ZN14DataBufferGLES11CopySubDataEPKS_jjj
Bf:_emscripten_glVertexPointer
BKf:__ZN2UI13PrepareOutputERNS_7BatchesEjjNS_30AdditionalCanvasShaderChannelsE
B7n:_PatternCompiler_GetMachineFactory_m3758869886
Omc:__Z17GetFrustumPortionPK8Vector3fffPS_
T4d:__ZNK5physx2Gu22SupportMapRelativeImplINS0_4BoxVEE18doWarmStartSupportEiRNS_6shdfnd3aos5Vec3VE
kEg:__ZN15dense_hashtableINSt3__24pairIK10KeyWrapperIP14Il2CppIUnknownEjEES5_N6il2cpp5utils11PointerHashIS3_EEN14dense_hash_mapIS5_jSB_NS5_14EqualsComparerINS0_8equal_toIS4_EEEENS0_9allocatorIS7_EEE9SelectKeyESG_SI_E14squash_deletedEv
omb:__ZN5Light13AwakeFromLoadE17AwakeFromLoadMode
ZBq:_GUILayoutEntry_ApplyOptions_m1741659338
pll:_Default_check_arguments_m3882727959
oap:_LeanTween_delayedSound_m2690019965
qRj:_RuntimeTypeHandle_Equals_m2857439487_AdjustorThunk
ENl:_AttributeCollection_Contains_m136161230
D4f:_WaypointProgressTracker_OnDrawGizmos_m2504516940
oQa:__ZNK9GfxDevice27GetPlatformAdjustedViewportEv
LUf:_PivotBasedCameraRig__ctor_m2711623346
Lud:__ZN37InheritVelocityModulePropertyBindings13SetFloatValueER14ParticleSystemif
tao:_RxCompiler_EmitAnchor_m1316200494
DYl:_CodeGroup__ctor_m294677161
X$g:_WebHeaderCollection_SetInternal_m3393264823
sNn:_PKCS1_Verify_v15_m3708133908
WVm:_Debug_DrawRay_m376463475
SIc:__ZN16StreamedResource8TransferI24GenerateTypeTreeTransferEEvRT_
mCd:__ZN11b2GearJoint4DumpEv
V5o:_LeanTween_easeInOutCubic_m3482579472
tRq:_AudioSource_PlayOneShot_m1688286683
l7m:_RectTransform_get_anchorMin_m2928307238
oZd:__ZN5physx3Cct10Controller13onOriginShiftERKNS_6PxVec3E
zUa:__ZThn9568_N13GfxDeviceGLES26EnableScissorRectsPlatformEv
B5a:__ZN10Matrix3x3f15InvertTransposeEv
jCq:_GUILayoutGroup_SetHorizontal_m996475327
nwm:_Text_get_cachedTextGenerator_m2506989875
iog:__ZNSt3__213__vector_baseIN6il2cpp2vm17TypeNameParseInfoENS_9allocatorIS3_EEED2Ev
Srd:__ZN14EmissionModule8TransferI19StreamedBinaryWriteILb0EEEEvRT_
xdl:_QNameValueType_Equals_m3273451138
Wec:__Z11IsBatchmodev
ARe:__ZN5physx2Gu19_gjkRelativeRayCastINS0_9TriangleVENS0_11ConvexHullVEEEbRT_RT0_RKNS_6shdfnd3aos15PsMatTransformVERKNS9_6FloatVERKNS9_5Vec3VESI_RSD_RSG_SK_f
iXb:__Z29Transfer_Blittable_ArrayFieldI14SafeBinaryRead8Vector3fEvRT_R9ArrayInfoRK23StaticTransferFieldInfo
U7h:__ZL87Animation_t3648466861_CustomAttributesCacheGenerator_Animation_Play_m577412913____mode0P21CustomAttributesCache
iCn:_CompareInfo_internal_compare_managed_m718834345
bp:FUNCTION_TABLE_vfii
XEb:__ZN26SkinnedMeshRendererManager31HandlePreparationBreakingChangeER19SkinnedMeshRenderer
ZDf:__ZN20TextRenderingPrivate8FontImpl18ResetCachedTextureEv
t0:__Z56Register_UnityEngine_Animator_INTERNAL_get_deltaPositionv
hRl:_PropertyDescriptorCollection_System_Collections_IDictionary_set_Item_m2869069084
OOk:_InternalEnumerator_1_System_Collections_IEnumerator_get_Current_m3316753690_AdjustorThunk
slg:__ZN6il2cpp6icalls8mscorlib6SystemL16GetFieldFromTypeINS_5utils10functional6FilterINSt3__212basic_stringIcNS7_11char_traitsIcEENS7_9allocatorIcEEEENS4_13VmStringUtils21CaseSensitiveComparerEEEEEP21Il2CppReflectionFieldP11Il2CppClassSK_iRKT_
NWe:__ZNK5physx19ActorAABBUpdateTask7getNameEv
j3g:_X509KeyUsageExtension_Decode_m3150759625
tBm:_RawImage_OnPopulateMesh_m1115858855
Yca:__ZN9AudioClip15CreateUserSoundERKN4core12basic_stringIcNS0_20StringStorageDefaultIcEEEEjsjb
aCd:__ZNK12b2WheelJoint10GetAnchorBEv
fDq:_GUITargetAttribute_GetGUITargetAttrValue_m2954410352
ZSc:__Z53Register_UnityEngine_Behaviour_get_isActiveAndEnabledv
qGl:_SimpleEnumerator_get_Current_m72361444
bv:__ZNSt3__26vectorIN4core12basic_stringIcNS1_20StringStorageDefaultIcEEEENS_9allocatorIS5_EEE8__appendEj
zca:__ZN13ProduceHelperI10SampleClipLb0EE7ProduceE10MemLabelId18ObjectCreationMode
TJb:__ZN26PlayerSettingsSplashScreen8TransferI17RemapPPtrTransferEEvRT_
LMn:_ASN1_set_Value_m2803403806
zlg:__ZN6il2cpp6icalls8mscorlib6SystemL17CollectTypeFieldsINS_5utils10functional10TrueFilterEEEvP11Il2CppClassPKS7_iRNSt3__26vectorIP9FieldInfoNSB_9allocatorISE_EEEERKT_
t5d:__ZN5physx3Scb5Scene20addArticulationJointERNS0_17ArticulationJointE
kGe:__ZN5physx7NpScene14resetFilteringERNS_12PxRigidActorEPKPNS_7PxShapeEj
Ozc:__Z13GetTagManagerv
v6o:_LTSpline_placeLocal2d_m1627593543
RBi:_CookieCollection_CopyTo_m4238450065
Ajo:_UTF8Encoding_GetChars_m1433288684
pqm:_KeyCollection_System_Collections_Generic_ICollectionU3CTKeyU3E_Remove_m2555909644_gshared
Bag:__ZL10roundUp128PyS_
Dfa:__ZN11UnityEngine15CloudWebService17CloudJobSchedulerD0Ev
Vef:__ZN15CapsuleCollider23VirtualRedirectTransferER14SafeBinaryRead
ZLb:__ZN18LoadSceneOperation7PerformEv
MLe:__ZN5physx2Sc5Scene26setSimulationEventCallbackEPNS_25PxSimulationEventCallbackEh
vhq:_XmlReaderBinarySupport_Reset_m4149730773
TJc:__Z18CalculateWorldAABBR10GameObject
dOi:__Z96RuntimeInvoker_Boolean_t97287965_RuntimeObject_RuntimeObject_Int32_t2950945753_Int32_t2950945753PFvvEPK10MethodInfoPvPS4_
VOm:_Array_IndexOf_TisUICharInfo_t75501106_m3198896198_gshared
XIf:__ZNK2UI11CanvasGroup22GetTypeVirtualInternalEv
E4f:_Ball__ctor_m3634588897
uOd:__ZL30GeomMTDCallback_CapsuleCapsuleRN5physx6PxVec3ERfRKNS_10PxGeometryERKNS_11PxTransformES5_S8_
QGe:__ZN5physx7NpScene23forceDynamicTreeRebuildEbb
DJd:__ZN10ClipperLib7Clipper14IntersectEdgesEPNS_5TEdgeES2_RNS_8IntPointE
LWd:__ZL18intersectAnyVsMeshILi0EEbPKN5physx2Gu6SphereEPKNS1_7CapsuleEPKNS1_3BoxERKNS1_13RTreeMidphaseERKNS0_11PxTransformERKNS0_11PxMeshScaleEP14LimitedResults
CPm:_Array_InternalArray__IndexOf_TisKeyValuePair_2_t3568047141_m2344037164_gshared
P5c:__Z21CleanupGlobalGUIStatev
bpo:_Type_IsContextfulImpl_m3693603908
P5p:_ReadOnlyCollection_1_System_Collections_Generic_IListU3CTU3E_RemoveAt_m3451694569_gshared
jce:__ZN5physx14NpArticulation6wakeUpEv
Fc:invoke_viiiiifiifi
_6a:__ZN22VertexDeclarationCache5ClearEv
kTj:_CspParameters__ctor_m3852972821
wVo:_List_1_System_Collections_IList_Insert_m562138403_gshared
Ttc:__ZN17PersistentManager12SetPathRemapERKN4core12basic_stringIcNS0_20StringStorageDefaultIcEEEES6_
wQ:__Z27ProcessRootMotionEmptyMixerP35AnimationPlayableEvaluationConstantP32AnimationPlayableEvaluationInputP33AnimationPlayableEvaluationOutput
poc:__ZN6Camera24PrepareCullingParametersERK23CameraCullingParameters13RenderingPathR11CullResults
zNc:__Z12SetIUISystemP9IUISystem
kMb:__ZN19RuntimeSceneManager22EndIntegrateMainThreadEP10UnitySceneNS_11LoadingModeE
Lfm:_Enumerator_VerifyCurrent_m1647774450_AdjustorThunk
Hzl:_Uri_FromHex_m1876907924
KYb:__Z26Transfer_UnityEngineObjectI17RemapPPtrTransferLb0EEvRK29SerializationCommandArgumentsR31RuntimeSerializationCommandInfo
H5n:_QuickSearch_GetShiftDistance_m2542665852
Hdp:_LTRect_setUseSimpleScale_m109579037
b3o:_Array_InternalArray__get_Item_TisCustomAttributeTypedArgument_t2723150157_m2639399822_gshared
Kyo:_ValueCollection_System_Collections_Generic_ICollectionU3CTValueU3E_Add_m3320824985_gshared
aLn:_BigInteger_GenerateRandom_m3141592944
d$b:__Z29Transfer_Blittable_ArrayFieldI24GenerateTypeTreeTransfer4AABBEvRT_R9ArrayInfoRK23StaticTransferFieldInfo
Z$d:__ZN5physx3Ext5JointINS_15PxDistanceJointENS_30PxDistanceJointGeneratedValuesEE17setConstraintFlagENS_16PxConstraintFlag4EnumEb
STg:_GC_adj_bytes_allocd
Uhk:_Graphic_CacheCanvas_m1120385152
T_:__ZN26AnimatorOverrideController15InitializeClassEv
N8e:__ZN5physx20InternalTriangleMesh16allocateVerticesEj
MKe:__ZN5physx2Sc16InteractionScene18releaseConstraintsEb
fnd:__Z15GetPositionMeshIL20MeshDistributionMode1ELb0E11ColorRGBA32EvRN4math8floatNx3ES4_RNS2_4pix4ERK13dynamic_arrayIS1_Lj4EERK14StrideIteratorI8Vector3fESF_RKSB_IT1_ERKS7_I16MeshTriangleDataLj4EERKS7_I11MeshAreaLUTLj4EERKfRKiST_R5RandNP12SkinMeshInfo
zCd:__ZN13b2PulleyJoint24SolveVelocityConstraintsERK12b2SolverData
VUe:__ZN5physx6shdfnd5ArrayINS_17PxcBroadPhasePairENS0_19ReflectionAllocatorIS2_EEE8recreateEj
S3q:_emscripten_GetProcAddress
WDg:__ZN6il2cpp6icalls8mscorlib6System10Reflection10MonoMethod19get_base_definitionEP22Il2CppReflectionMethod
Wa:invoke_fiiifii
n5q:_modff
XUd:__ZThn4_N16RayRTreeCallbackILi1ELb0EED1Ev
TPk:_InternalEnumerator_1_get_Current_m900209398_gshared
mpb:__ZN20SphericalHarmonicsL219AddDirectionalLightERKN4math7_float3ERKNS0_7_float4E
v7e:__ZN5physx13BigConvexDataD2Ev
fFa:__Z26ScheduleJobForEachInternalR8JobFencePFvPvjES1_iPFvS1_E11JobPriority
Hec:__ZZ23InitPlayerLoopCallbacksvEN41PostLateUpdateProfilerEndFrameRegistrator7ForwardEv
JOc:__ZN9Scripting18RaiseMonoExceptionEPKcz
xIf:__ZN2UI13UIInstruction19ClearSharedMeshDataER8JobFence
jhq:_XmlNodeReaderImpl_GetXmlDeclarationAttribute_m3181105048
vHc:__ZN10GameObject17WillHandleMessageERK17MessageIdentifier
Mrn:_StrongNamePublicKeyBlob_Equals_m3655422942
y1l:_SecurityContext__ctor_m1730177197
r0q:_RectTransformUtility_GetTransposed_m3952754222
JEc:__ZN9ShaderLab16FastPropertyName15InitBy28BitHashEj
bBp:_List_1_System_Collections_IList_set_Item_m4182383657_gshared
Lz:__ZN14NavMeshManager17UnloadNavMeshDataEi
sWo:_List_1_System_Collections_IList_Add_m2937161398_gshared
uqn:_ReflectionPermission_Copy_m274021237
Tjm:_Enumerator_System_Collections_IEnumerator_get_Current_m110270567_AdjustorThunk
pmq:_XmlValidatingReader_get_Value_m2511111829
RUi:__Z96RuntimeInvoker_Void_t1185182177_Int32_t2950945753_Single_t1397266774_RuntimeObject_RuntimeObjectPFvvEPK10MethodInfoPvPS4_
owk:_RSAManaged_get_PublicOnly_m405847294
nwq:_AuthorityKeyIdentifierExtension_Decode_m1082741678
ahm:_Enumerator_System_Collections_IDictionaryEnumerator_get_Key_m195047678_AdjustorThunk
HCq:_GUIStyleState_GetGUIStyleState_m74106824
RCb:__ZN17PackedFloatVector12UnpackFloatsEPfiiii
Bmd:__Z16EmitterStoreDataRKN4math8float3x3ERKNS_8float4x4ER23ParticleSystemParticlesRK19ParticleSystemStatejRNS_8floatNx3ESC_R5RandNfffbb
BT:__ZN17AnimationPlayable28UpdateInternalStateRecursiveILi3ELb0EEEvPK35AnimationPlayableEvaluationConstant
xTa:__ZN13GfxDeviceGLES21DestroyComputeProgramER12ObjectHandleI18ComputeProgram_TagPvE
X7n:_PatternCompiler_EmitIfDefined_m2075050865
Fkh:_XsdValidationContext_get_Element_m3113801807
wvn:_Decimal_System_IConvertible_ToInt64_m1446427516_AdjustorThunk
UCa:__ZN17UniqueIDGenerator16DestroyPureIndexEj
J9k:_NotImplementedException__ctor_m3095902440
hqa:__ZL21AppendNestedClassName17ScriptingClassPtrRN4core17string_with_labelILi1EEE
pJa:__ZN14SafeBinaryRead21TransferSTLStyleArrayINSt3__26vectorIN9ShaderLab20SerializedSubProgram12UAVParameterENS1_9allocatorIS5_EEEEEEvRT_17TransferMetaFlags
wmh:_XmlTextReader_set_CharacterChecking_m824755556
gSh:__ZL123WebRequestModuleElement_t1406085120_CustomAttributesCacheGenerator_WebRequestModuleElement_t1406085120____Type_PropertyInfoP21CustomAttributesCache
vvm:_InputField_set_inputType_m424695295
lqf:__Z32Joint_CUSTOM_INTERNAL_set_anchorP12Il2CppObjectRK8Vector3f
Nga:__ZN24TextDOMTransferWriteBaseI9JSONWriteE12PushMetaFlagEi
T6j:_BaseInput_get_compositionCursorPos_m2836042364
Rqe:__ZN5physx7NpCloth22removeCollisionCapsuleEj
vCh:__ZL59_PropertyBuilder_t1366136710_CustomAttributesCacheGeneratorP21CustomAttributesCache
Sfp:_Array_InternalArray__ICollection_CopyTo_TisMouseState_t2297408031_m150388946_gshared
c0a:__ZN6prcoreL26RemapGenericIntegerToFloatI17TexFormatARGB888815TexFormatRFloatEEvPKNS_9InnerInfoE
d0c:__Z60Register_UnityEngine_RenderTexture_Internal_SetSRGBReadWritev
Q0n:_Convert_ToSingle_m835189399
_ng:__ZN6il2cpp2vm17TypeNameParseInfoD2Ev
gKo:_PrimeHelper_ToPrime_m3704362632_gshared
Z2e:__ZN5physx18PxsSolverStartTask16articulationTaskEv
Ila:__ZNK8Renderer8GetLayerEv
D6d:__ZN5physx6shdfnd4sortIPvNS0_4LessIS2_EENS0_19ReflectionAllocatorINS_2Cm5BlockIS2_Lj16EEEEEEEvPT_jRKT0_RKT1_j
$ic:__ZNK6Camera20GetReplacementShaderEv
rke:__ZN18MultiQueryCallbackIN5physx12PxRaycastHitEE6invokeERfPKNS0_2Sq13PrunerPayloadEj
sXg:__ZNSt3__26__treeINS_12__value_typeINS_12basic_stringIcNS_11char_traitsIcEENS_9allocatorIcEEEEPFvvEEENS_19__map_value_compareIS7_SA_NS_4lessIS7_EELb1EEENS5_ISA_EEE4findIS7_EENS_15__tree_iteratorISA_PNS_11__tree_nodeISA_PvEEiEERKT_
IFn:_Guid_ToString_m3279186591
rZa:__ZL23stbir__calculate_memoryP11stbir__info
yZg:__ZN6il2cpp6icalls8mscorlib6System10Reflection4Emit13DynamicMethod21create_dynamic_methodEP29Il2CppReflectionDynamicMethodS7_
flq:_XmlTextWriter_WriteDocType_m3875009899
M5n:_Interpreter_Close_m126356671
oNe:__ZN5physx18PxcNpThreadContextD2Ev
GWi:__Z67RuntimeInvoker_Void_t1185182177_OpCode_t123070264_SByte_t1669577662PFvvEPK10MethodInfoPvPS4_
Pfq:_Enumerator__ctor_m618683170
sWl:_ChunkStream_Write_m284437954
kCb:__ZNK6Camera18GetRenderRectangleEv
GAb:__ZN13sorted_vectorIN4core12basic_stringIcNS0_20StringStorageDefaultIcEEEENSt3__24lessIS4_EE13stl_allocatorIS4_L18MemLabelIdentifier81ELi16EEE4findIS4_EENS5_11__wrap_iterIPS4_EERKT_
L8n:_Parser_HandleExplicitNumericGroups_m1412234891
Ull:_CustomAttributeNamedArgument_Equals_m1414002036
Edd:__ZL26Transfer_SimpleNativeClassI8JSONRead10RectOffsetLb1EEvRK29SerializationCommandArgumentsR31RuntimeSerializationCommandInfo
_$m:_Material_SetInt_m475299667
gMf:__Z44CanvasRenderer_CUSTOM_INTERNAL_CALL_SetColorP12Il2CppObjectRK10ColorRGBAf
xKi:_NetworkStream_get_Length_m2134439603
pPo:_Enumerator_System_Collections_IEnumerator_Reset_m959124362_AdjustorThunk
n1j:_CrossContextDelegate_Invoke_m3121381558
Kqq:_ConfigurationElementCollection_CompareKeys_m3416592437
Edk:_CanvasScaler_HandleScaleWithScreenSize_m3848620697
$$p:_ReadOnlyCollection_1_System_Collections_IList_set_Item_m1832413230_gshared
iAn:_Enum_ToObject_m121831801
Abf:__ZN5physx2Gu27computeBoundsAroundVerticesERNS_9PxBounds3EjPKNS_6PxVec3E
tad:__Z18Transfer_BlittableI9JSONWriteLb1EsEvRK29SerializationCommandArgumentsR31RuntimeSerializationCommandInfo
vJd:__ZN10ClipperLib8JoinHorzEPNS_5OutPtES1_S1_S1_NS_8IntPointEb
qFe:__ZNK5physx7NpScene9getLimitsEv
GPc:__ZN9Transform16SetLocalRotationERK11Quaternionf
UPq:_AudioClip_GetData_m1251334845
WRe:__ZNK5physx2Gu29EPASupportMapPairRelativeImplINS0_9TriangleVENS0_8CapsuleVEE9doSupportERKNS_6shdfnd3aos5Vec3VERS7_SA_SA_
yKd:__ZN10Collider2DD0Ev
Sdh:_XdtAnyAtomicType__ctor_m730254766
qfc:__ZN13RenderManager37RenderCamerasWithScriptableRenderLoopEi
OVe:__ZN3MBP12updateObjectEjRK5IAABB
a1c:__Z40Transform_CUSTOM_INTERNAL_get_lossyScaleP12Il2CppObjectP8Vector3f
qUm:_Color_get_white_m332174077
F9d:__ZN5physx6shdfnd5ArrayINS_6PxVec3ENS0_19ReflectionAllocatorIS2_EEE15growAndPushBackERKS2_
sSa:__ZN13GfxDeviceGLES22ReleaseThreadOwnershipEv
kpj:__Z37RuntimeInvoker_Enumerator_t3123848928PFvvEPK10MethodInfoPvPS4_
zHg:__ZN6il2cpp2os19ReleaseSocketHandleEj
Fkm:_Enumerator_get_Current_m2442191994_AdjustorThunk
rba:__ZN11AudioModule16GetDSPSampleRateEv
Amk:_XmlSchemaUtil_CheckAnyUri_m1406321190
eWc:__Z39Graphics_CUSTOM_ClearRandomWriteTargetsv
gcc:__ZN15InstancingProps11NewConstantERKN9ShaderLab16FastPropertyNameEj15ShaderParamTypehhjjP6Object
nJe:__ZN5physx2Sc5Scene20fireTriggerCallbacksEv
Gbp:_LTDescrImpl_set_onCompleteObject_m755074097
v1f:_TiltShift__ctor_m4188253826
Cjd:__ZN14ParticleSystem4EmitEPS_RK21SubEmitterEmitCommand
YIf:__ZN2UI11CanvasGroup23VirtualRedirectTransferER19StreamedBinaryWriteILb0EE
jRe:__ZN5physx2Gu18GJKRelativeRayCastERNS0_8CapsuleVERNS0_4BoxVERKNS_6shdfnd3aos15PsMatTransformVERKNS6_6FloatVERKNS6_5Vec3VESF_RSA_RSD_SH_fb
F$f:_DepthOfField_CheckResources_m2653141750
Fyl:_Array_GetUpperBound_m4018715963
yzq:_X509Store__ctor_m2736551756
cKg:__ZN6il2cpp2os5posix15PosixWaitObjectC2ENS2_4TypeE
mhc:__ZN6Camera21PostMultiCustomRenderENS_10RenderFlagEb
vip:_Array_InternalArray__Insert_TisMonoResource_t4103430009_m1997865927_gshared
qXn:_ListValues_Contains_m2155846063
fmn:_SHA512Managed_HashFinal_m2173184560
Wxm:_LayoutRebuilder_ValidController_m2315321132
k4a:__ZN12_GLOBAL__N_112UploadImagesEP7ApiGLESjji14GraphicsFormatPKhjS2_iiii16TextureUsageModePh
Wbc:__ZN23ShaderVariantCollection13WarmupShadersEv
cSf:__ZN11UnityEngine15PlatformWrapper20GetPlayerPrefsUInt64ERKN4core12basic_stringIcNS1_20StringStorageDefaultIcEEEEy
ygm:_Enumerator_System_Collections_IDictionaryEnumerator_get_Entry_m1355283127_AdjustorThunk
Nzj:_UpdateBroadcaster__cctor_m2407156288
dZj:_Marshal_copy_from_unmanaged_m2834266824
Rpa:__Z25GetCommonScriptingClassesv
Dgn:_XmlSchemaObjectEnumerator_System_Collections_IEnumerator_get_Current_m3269053736
feh:_XmlSchemaUri_HasValidScheme_m2569374488
IMb:__Z27scripting_gc_collect_unsafei
Cvk:_MD5SHA1_HashFinal_m4115488658
wba:__ZN11AudioModule20SuspendVideoTexturesEv
Cep:_Array_InternalArray__ICollection_Add_TisKeyValuePair_2_t71524366_m3468275433_gshared
iRq:_AudioSettings_InvokeOnAudioManagerUpdate_m4044425648
iea:__Z59Register_UnityEngine_AudioExtensionManager_GetAudioListenerv
xrf:__Z59Register_UnityEngine_CharacterController_INTERNAL_CALL_Movev
cBe:__ZN5physx13NpRigidStaticC2ERKNS_11PxTransformE
n6o:_LTBezierPath_place2d_m2706612255
w_b:__Z26Transfer_UnityEngineObjectI24GenerateTypeTreeTransferLb0EEvRK29SerializationCommandArgumentsR31RuntimeSerializationCommandInfo
l$n:_Convert_ToDouble_m278900635
Luf:_UNITY_FT_GlyphLoader_CheckPoints
W1k:_Stream_BeginRead_m2233539237
qcp:_LTDescrImpl_setOnComplete_m1947855011
vRe:__ZN5physxL20PxcSweepBoxTrianglesERKNS_11PxsCCDShapeES2_RKNS_11PxTransformES5_S5_S5_fRNS_6PxVec3ES7_RNS_10PxcNpCacheERNS_18PxcNpThreadContextERKNS_2Cm23FastVertex2ShapeScalingERNS_2Gu9TriangleVEf
eSj:_SByte_ToString_m3584531119
EZd:__ZN5physx3Cct15ObstacleContextD0Ev
yjb:__ZN15SharedLightData7PrecalcEv
_ra:__ZN10Matrix4x4fmLERKS_
T6f:_Vector2__ctor_m3970636864
U1b:__Z35Transfer_Blittable_FixedBufferFieldI18StreamedBinaryReadILb1EEsEvRK29SerializationCommandArgumentsR31RuntimeSerializationCommandInfo
PAn:_Environment_InternalGetFolderPath_m468390978
Wmq:_XmlWriter_WriteElementString_m1817387795
Tcb:__ZN15ArchiveReadFileD0Ev
ow:__ZN14NavMeshManager13RegisterAgentER12NavMeshAgentRi
wKd:__ZN23ColliderTilingExtension9GetBoundsEP10Collider2DR4AABB
ky:__ZN11DynamicMesh24RemoveDegeneratePolygonsEv
eKe:__ZN5physx3Scb9Aggregate9syncStateERNS0_5SceneE
vBn:_Calendar__ctor_m106290643
ibr:dynCall_iiiiifiiii
nsh:__ZL62ParamArrayAttribute_t3664765590_CustomAttributesCacheGeneratorP21CustomAttributesCache
yhk:_FontUpdateTracker_RebuildForFont_m3134452007
Nal:_NumberFormatter_FormatDecimal_m1921932981
Glg:__ZN6il2cpp6icalls8mscorlib6System8MonoType19GetGenericArgumentsEP20Il2CppReflectionType
O_a:__ZN6prcoreL17RemapGenericFloatI15TexFormatRFloat18TexFormatRGBAFloatEEvPKNS_9InnerInfoE
Vbk:_TouchInputModule_ProcessTouchPress_m3504077560
hhd:__ZN22ParticleSystemRenderer13BoundsChangedEv
qFm:_Selectable_IsInteractable_m2611421038
ouf:_FT_MSB
E_:__ZN29AnimationStateNetworkProvider24SetNetworkAnimationStateER9AnimationPK24AnimationStateForNetworki
_yg:__ZN15dense_hashtableINSt3__24pairIK10KeyWrapperINS1_IP11Il2CppClassjEEES4_EES6_N6il2cpp8metadata14ArrayClassHashEN14dense_hash_mapIS6_S4_SB_NS6_14EqualsComparerINSA_17ArrayClassCompareEEENS0_9allocatorIS8_EEE9SelectKeyESF_SH_E3endEv
XFc:__ZZL23RegisterLightPropertiesR22GenericPropertyBindingEN29Wrapper_LightShadowNormalBias13GetFloatValueEPv
IXg:__ZN6il2cpp6icalls8mscorlib4Mono8Security12Cryptography18KeyPairPersistence10_CanSecureEP12Il2CppString
tih:_XsdKeyEntryField_FillAttributeFieldValue_m73639554
Wel:_XmlSchemaAttributeGroupRef_Read_m3714796484
TIm:_Array_InternalArray__ICollection_Contains_TisParameterModifier_t1461694466_m1000453323_gshared
Nfe:__ZN5physx7NpActor17resolveReferencesERNS_24PxDeserializationContextE
apf:__ZN9Rigidbody15InitializeClassEv
w9f:_Toggle_SetToggleGroup_m1839040161
ssj:_Collider_AteStart_m182908412
mng:__ZN6il2cpp2os4File11GetFileStatERKNSt3__212basic_stringIcNS2_11char_traitsIcEENS2_9allocatorIcEEEEPNS0_8FileStatEPi
J0g:_WebConnectionStream_get_WriteBuffer_m815304309
GPg:__ZNSt3__212basic_stringIDsNS_11char_traitsIDsEENS_9allocatorIDsEEE9push_backEDs
Qrd:__ZN13InitialModule8TransferI19StreamedBinaryWriteILb0EEEEvRT_
wEc:__ZN9TransformC2E10MemLabelId18ObjectCreationMode
JPa:__ZN13GfxDeviceGLES14SetRasterStateEPK17DeviceRasterState
jb:invoke_iiiifffi
ekl:_Assembly_ToString_m2053237013
G8f:_Vector4_Equals_m1779210055
b2d:__ZN5physx6shdfnd8internal8HashBaseINS0_4PairIKPKNS_2Sc8ShapeSimENS4_10NPhaseCore16ClothListElementEEES7_NS0_4HashIS7_EENS1_11HashMapBaseIS7_SA_SD_NS0_9AllocatorEE6GetKeyESF_Lb1EE5eraseERS8_
Fwf:_otv_Coverage_get_count
I1d:__ZN5physx5Elems17setStaticAABBDataEjRKNS_17PxcAABBDataStaticE
opo:_Type_MakeGenericType_m2479309691
don:_PermissionBuilder_Create_m2704032924
Rsa:__ZN14SafeBinaryRead11EndTransferEv
iVb:__ZN14SafeBinaryRead8TransferI8MonoPPtrEEvRT_PKc17TransferMetaFlags
Yzn:_Enum_System_IConvertible_ToUInt16_m4216751959
Xsd:__ZN11MinMaxCurve11ResetCurvesEv
S2b:__ZN8GUIStyle8TransferI18StreamedBinaryReadILb1EEEEvRT_
j2g:_WebRequest_set_Credentials_m1430198380
Zpo:_UInt16_System_IConvertible_ToSByte_m2219828332_AdjustorThunk
hkn:_RNGCryptoServiceProvider_RngClose_m3915778345
QAg:__ZNSt3__26vectorIcNS_9allocatorIcEEEC2Ej
kFk:_Callback_2_BeginInvoke_m3836313423_gshared
Psl:_ModuleBuilder_DefineType_m2262733165
wXc:__Z40Register_UnityEngine_Input_GetKeyDownIntv
pYa:__ZN4crnd12crn_unpacker10unpack_dxnEPPhjjj
Loq:_Configuration_ReadData_m2766524176
zqa:__ZN14SerializedFileD2Ev
y6c:__Z30Event_Get_Custom_PropModifiersP12Il2CppObject
Q7d:__ZN5physx6shdfnd5ArrayIPvNS0_16AlignedAllocatorILj64ENS0_9AllocatorEEEE15growAndPushBackERKS2_
e2q:_Physics2D_Raycast_m2858866636
$re:__ZN5physx6shdfnd5ArrayINS_35PxClothParticleSeparationConstraintENS0_19ReflectionAllocatorIS2_EEE6resizeEjRKS2_
gO:__ZN7mecanim9animation16CreateClipOutputEPKNS0_4ClipERNS_6memory9AllocatorE
nBm:_RawImage_get_mainTexture_m2396337033
yqd:__ZN27ParticleSystemEmissionBurst8TransferI24GenerateTypeTreeTransferEEvRT_
Tap:_LTDescrImpl_set_useManualTime_m1239411448
TYd:__ZN5physx3Cct12SweptCapsuleC2Ev
Js:__ZN14NavMeshCarving17ApplyCarveResultsEv
THa:__ZN6Shader21AwakeFromLoadThreadedEv
_il:_ObjectDisposedException_GetObjectData_m2330532076
e$a:__ZN6prcoreL17RemapGenericFloatI17TexFormatRGBFloat17TexFormatRGBAHalfEEvPKNS_9InnerInfoE
XKn:_BigInteger__ctor_m3991350270
Uzl:_BasicConstraintsExtension__ctor_m2701583586
i7f:_Vector2_GetHashCode_m3916089713_AdjustorThunk
jmf:__ZN5physx24PxcContactBoxHeightFieldERKNS_2Gu13GeometryUnionES3_RKNS_11PxTransformES6_RKfRNS_10PxcNpCacheERNS0_13ContactBufferE
YYg:__ZN6il2cpp2os9SemaphoreC2Eii
e3o:_Array_InternalArray__get_Item_TisILTokenInfo_t2325775114_m3110830457_gshared
kVb:__ZNSt3__26vectorI8MonoPPtr13stl_allocatorIS1_L18MemLabelIdentifier1ELi16EEE8__appendEj
Rhc:__ZN14qsort_internal30FindAndMovePivotToLastPositionIP17RODataReplacementi19ROSorterReplacementEEvT_S4_T0_T1_
t5a:__ZN15UniformTFMethod20IsBoneCountSupportedEi
EWe:__ZNK5physx23AggregateAABBUpdateTask7getNameEv
ytj:_DestroyAfterDuration__ctor_m3024404456
qKc:__Z25SetRenderTargetFromScriptjPK21ScriptingRenderBufferS1_iiiPKiS3_ii
diq:_XmlParserInput_PeekChar_m2826906097
rHk:_BasicFSM_1_AttemptUpdateAndSwitch_m803326409_gshared
xfg:__ZN14dense_hash_setI10KeyWrapperIPK19Il2CppGenericMethodEN6il2cpp8metadata23Il2CppGenericMethodHashENS4_14EqualsComparerINS6_26Il2CppGenericMethodCompareEEENSt3__29allocatorIS4_EEEC2EjRKS7_RKSA_
mar:dynCall_viidi
tOq:_WindowsConsoleDriver__ctor_m141100690
jpm:_KeyCollection__ctor_m1356492051_gshared
fpa:__ZN24ScriptingMethodFiltering17FilterOnSignatureENS_18MethodSearchFilterE
isd:__ZN11TrailModule8TransferI19StreamedBinaryWriteILb0EEEEvRT_
z6e:__ZN5physx13NpClothFabric16scaleRestlengthsEf
rtc:__ZN18ScreenManagerWebGL13SetLockCursorE14CursorLockMode
Mtf:_cf2_arrstack_finalize
myq:_X509Certificate_VerifySignature_m3538124832
mQk:_InternalEnumerator_1_System_Collections_IEnumerator_get_Current_m1299065558_AdjustorThunk
_Jj:_GeneralAdvancedTechniques__ctor_m730202013
pwd:__ZL37ParticleGeomBillboardFacingOrVelocityIL25ParticleSystemRenderSpace4ELb0EEvRKN4math8floatNx3ES4_S4_S4_S4_RKNS1_8float3x3ES4_S4_S4_RKNS1_8floatNx2ES4_RS2_SB_PS2_
SVf:_RigidbodyFirstPersonController__ctor_m3911662097
Ieh:_XsdAnyURI_ParseValue_m3192832390
yco:_CharacterClass_GetIntervalCost_m4036989868
Mhn:_XmlSchemaReader_GetAttribute_m1816052303
YBc:__ZN13MonoBehaviour19HandleNotificationsEPviR11MessageData
W6m:_RectOffset_Init_m2028508611
LCe:__ZN5physx6shdfnd5ArrayIPNS_2Sc17ParticleSystemSimENS0_19ReflectionAllocatorIS4_EEE8recreateEj
cvj:_ExtGameObject_GetDir_To_m2080775374
LJp:_List_1_System_Collections_IList_Remove_m4226673807_gshared
Nwk:_Alert__ctor_m3135936936
gIn:_Int64_System_IConvertible_ToInt32_m772105781
cvq:_TlsClientSettings__ctor_m3220697265
ygo:_Encoding_get_ASCII_m3595602635
s4g:_X509Certificate2_get_Version_m2534012675
Xsg:__ZNK15dense_hashtableINSt3__24pairIK10KeyWrapperINS1_IPK9EventInfoP11Il2CppClassEEEjEES9_17ReflectionMapHashIS8_EN14dense_hash_mapIS9_jSD_NS9_14EqualsComparerINS0_8equal_toIS8_EEEENS0_9allocatorISB_EEE9SelectKeyESI_SK_E23find_position_with_hashERSA_j
a5q:_copysignl
r3m:_Object_Instantiate_m2682941528
trp:_Dictionary_2_make_pair_m2250450206_gshared
bho:_ForwardingDecoder_GetChars_m4228908854
ufc:__ZN25CameraStackRenderingState18EndStereoRenderingEv
f6n:_InterpreterFactory_get_GroupCount_m2226373271
fer:b53
HTh:__ZL62g_System_Configuration_Assembly_CustomAttributesCacheGeneratorP21CustomAttributesCache
der:b51
z_e:__ZN5physx9PxTaskMgrD0Ev
ger:b54
ier:b55
Hff:__ZN19CharacterController8TransferI14SafeBinaryReadEEvRT_
RGk:_BasicFSM_1_AttemptUpdateAndSwitch_m3886271695_gshared
b3p:_ReadOnlyCollection_1_System_Collections_Generic_IListU3CTU3E_set_Item_m88350439_gshared
RJn:_SimpleCollator_IsSafe_m310268646
V1g:_WebProxy_System_Runtime_Serialization_ISerializable_GetObjectData_m430220241
eBl:_X509Certificate_get_RawData_m2387471414
Lgr:_glDetachShader__wrapper
xGl:_ArrayTypeMismatchException__ctor_m3375008173
Hso:_Transform_1_BeginInvoke_m1757796657_gshared
xnp:_Dictionary_2_System_Collections_IDictionary_Contains_m2320726292_gshared
Xzl:_BasicConstraintsExtension_Decode_m2413524265
Rfj:__Z88RuntimeInvoker_Int32_t2950945753_UIVertex_t4057497605_UIVertex_t4057497605_RuntimeObjectPFvvEPK10MethodInfoPvPS4_
OGc:__ZN10GameObject12CleanupClassEv
sfh:_XsdBoolean_ParseValueType_m4171155103
Aae:__ZN5physx3Scb5Scene13addRigidNoSimINS0_11RigidStaticELb0ELb1EEEvRT_RNS0_13ObjectTrackerE
b$g:_WebAsyncResult_get_IsCompleted_m4071146637
xQa:__ZN9GfxDevice25SetShaderPropertiesSharedERK19ShaderPropertySheet
dA:__ZN14NavMeshManager11RemoveTilesEiRK13dynamic_arrayIiLj4EE
Jck:_BaseMeshEffect_get_graphic_m1852367505
TSn:_CaseInsensitiveHashCodeProvider_GetHashCode_m2168170016
Drq:_ConfigurationManager__cctor_m3679384302
emk:_XmlSchemaTotalDigitsFacet_get_ThisFacet_m740239825
szc:__ZN19SpriteMeshGenerator4path9clip_edgeEi
tFc:__ZL25InitializeDefaultMaterialv
HMf:__Z53Register_UnityEngine_CanvasRenderer_get_materialCountv
eoh:_XmlTextReader_CheckAttributeEntityReferenceWFC_m2457931471
Rtl:_PropertyBuilder_GetCustomAttributes_m3798356764
tcn:_XmlSchemaReader_get_LinePosition_m2272047151
mbm:_Comparer_1_System_Collections_IComparer_Compare_m4179495191_gshared
tVl:_DeflateStream_get_CanRead_m1715247727
ebb:__ZN17PersistentManager12UnloadStreamERKN4core12basic_stringIcNS0_20StringStorageDefaultIcEEEEb
UUf:_FreeLookCam_OnDisable_m3214271705
jCk:_RecordProtocol_SendAlert_m1931708341
SId:__ZN10ClipperLib11ClipperBase7AddPathERKNSt3__26vectorINS_8IntPointENS1_9allocatorIS3_EEEENS_8PolyTypeEb
lF:__ZN15SerializeTraitsI9OffsetPtrIN7mecanim9animation17BlendTreeConstantEEE8TransferI19StreamedBinaryWriteILb0EEEEvRS4_RT_
S7g:_CILCompiler_EmitOpNegateReverse_m3909685076
VQm:_MonoProperty_GetterAdapterFrame_TisRuntimeObject_TisRuntimeObject_m458718082_gshared
Qgd:__Z43ParticleSystemRenderer_RenderMultipleMeshesIL21SpriteMaskInteraction2EEvRK15RenderNodeQueueRK18RenderMultipleData17ShaderChannelMask
kph:__ZL64String_t_CustomAttributesCacheGenerator_String_Split_m3580120853P21CustomAttributesCache
dxg:_il2cpp_unity_liveness_calculation_from_statics
PR:__ZNK26AnimatorControllerPlayable11DerivesFromE17ScriptingClassPtr
O0m:_Mathf_DeltaAngle_m1993880167
wlh:_XsdValidatingReader_ValidateEndSimpleContentCore_m3614724376
pao:_RxCompiler_EmitUntil_m991963760
RIk:_List_1_GetHashCode_m741203153_gshared
lwa:__ZN8Renderer8TransferI17RemapPPtrTransferEEvRT_
OHk:_PairPod_1__ctor_m3064208114_gshared
Gff:__ZN5physx23PxCapsuleControllerDesc12setToDefaultEv
PXl:_DefaultProxySection_get_Properties_m3411111483
Xvf:_otv_MATH_validate
Ygm:_Enumerator_System_Collections_IDictionaryEnumerator_get_Entry_m522483686_gshared
Kv:__ZN15NavMeshSettings23VirtualRedirectTransferER24GenerateTypeTreeTransfer
Wko:_Thread_get_CurrentContext_m1695017876
UWc:__Z22Input_CUSTOM_GetKeyInti
DMo:_KeyValuePair_2_set_Value_m257398634_AdjustorThunk
Wyi:__ZL64g_AssemblyU2DUnityScript_Assembly_CustomAttributesCacheGeneratorP21CustomAttributesCache
GNi:__Z68RuntimeInvoker_Int32_t2950945753_Int16_t2552820387_Int32_t2950945753PFvvEPK10MethodInfoPvPS4_
Zre:__ZNK5physx2Sc9ClothCore16getCollisionDataEPNS_22PxClothCollisionSphereEPjPNS_21PxClothCollisionPlaneES4_PNS_24PxClothCollisionTriangleE
prc:__Z24LookRotationToQuaternionRK8Vector3fS1_P11Quaternionf
nrc:__ZN16ReflectionProbes9GetCameraEv
cwe:__ZNK5physx2Sc18ParticleSystemCore20getMaxMotionDistanceEv
Xnd:__ZN22ParticleSystemRenderer8TransferI14SafeBinaryReadEEvRT_
jeh:_XmlSchemaUri_GetHashCode_m1503774718
hLf:__ZN2UI6Canvas17SetSortingLayerIDEi
$Jg:__ZN6il2cpp2vm11MethodStack23CleanupForCurrentThreadEv
Y_p:_Collection_1_ConvertItem_m618594517_gshared
oeq:_XmlNamespaceManager_GrowScopes_m2659812079
S1n:_Convert_ToUInt64_m388601487
ukb:__ZN20TierGraphicsSettings8TransferI24GenerateTypeTreeTransferEEvRT_
Ggg:__ZN15dense_hashtableINSt3__24pairIK10KeyWrapperIN6il2cpp5utils13dynamic_arrayIPK10Il2CppTypeLj4EEEEPFvvEEESA_NS3_8metadata19Il2CppSignatureHashEN14dense_hash_mapISA_SD_SG_NSA_14EqualsComparerINSF_22Il2CppSignatureCompareEEENS0_9allocatorISE_EEE9SelectKeyESK_SM_E16reset_thresholdsEv
N1m:_Mesh_get_vertices_m3585684815
HXn:_Stack_Clone_m2625073663
zmq:_XmlValidatingReader_MoveToAttribute_m3515077069
ZWb:__ZN14SafeBinaryRead21TransferSTLStyleArrayI13dynamic_arrayI4AABBLj4EEEEvRT_17TransferMetaFlags
O4f:_TouchScreenKeyboard_get_text_m1797464608
xsc:__ZN26CustomRenderTextureManager25UpdateCustomRenderTextureEP19CustomRenderTexturei
jGa:__ZNSt3__26__treeINS_12__value_typeIiN11TypeManager18TypeCallbackStructEEENS_19__map_value_compareIiS4_NS_4lessIiEELb1EEENS_9allocatorIS4_EEE7destroyEPNS_11__tree_nodeIS4_PvEE
JSl:_UInt32Converter_ConvertFromString_m2704775787
t6j:_RemotingProxy_get_TypeName_m4085898624
dKd:__ZN16PhysicsManager2D42RegisterTransformChangeInterestForColliderEP10Collider2D
JIc:__ZNK14PlayableOutput23GetSourcePlayableUnsafeEv
uOf:__ZN11UnityEngine7Connect17XRDeviceInfoEventD0Ev
a9j:_ExecuteEvents_Execute_m3936726821
FEh:__ZL60SoapTypeAttribute_t1750930817_CustomAttributesCacheGeneratorP21CustomAttributesCache
Vzl:_X509Extension__ctor_m3078826471
sid:__ZN14ParticleSystem8Update1bER24ParticleSystemUpdateDatafNS_11UpdateFlagsEi
pAi:_WebProxyScriptElement__cctor_m3464241387
cA:__ZN11NavMeshData11UpdateTilesERK13dynamic_arrayIiLj4EERNSt3__26vectorI15NavMeshTileData13stl_allocatorIS6_L18MemLabelIdentifier76ELi16EEEERS1_
aka:__ZN21UnityDefaultAllocatorI17LowLevelAllocatorE10DeallocateEPv
Ver:b86
Jfq:_XmlNodeChangedEventHandler_Invoke_m550244302
p0l:_Publisher_get_Certificate_m2493494743
Tmb:__ZN15SharedLightData22UpdateCookieTextureRefEv
DK:__ZN15PackedIntVector8TransferI14SafeBinaryReadEEvRT_
A7f:_Vector3__ctor_m3353183577_AdjustorThunk
KRk:_InternalEnumerator_1_System_Collections_IEnumerator_get_Current_m1514266661_gshared
JJm:_Array_InternalArray__ICollection_Remove_TisMouseState_t2297408031_m224315250_gshared
Sde:__ZNK5physx19NpArticulationJoint20getTangentialDampingEv
G4i:__Z71RuntimeInvoker_Void_t1185182177_Int32_t2950945753_Matrix4x4_t1817901843PFvvEPK10MethodInfoPvPS4_
Bvk:_MD5SHA1_Initialize_m675470944
xfp:_Array_InternalArray__ICollection_Add_TisKeyframe_t4206410242_m442111799_gshared
gHp:_List_1_CheckMatch_m3263549496_gshared
r4m:_PropertyNameUtils_PropertyNameFromString_Injected_m1259736140
Isn:_ZoneIdentityPermission_Intersect_m1214162400
X2:__ZN13AudioListener8DoUpdateEv
GNd:__ZN5physx3Cct10Controller22setUpDirectionInternalERKNS_6PxVec3E
Yen:_XmlSchemaGroupBase_ValidateRecurse_m3621635736
H8c:__ZN5Unity9rapidjson13GenericReaderINS0_4UTF8IcEES3_13JSONAllocatorE9ParseTrueILj1ENS0_25GenericInsituStringStreamIS3_EENS0_15GenericDocumentIS3_S4_S4_EEEEvRT0_RT1_
d7k:__Z13bankers_roundd
IJb:__ZN14SafeBinaryRead8TransferI5RectTIfEEEvRT_PKc17TransferMetaFlags
Qj:_emscripten_glGenFramebuffers
D0:__Z48Register_UnityEngine_Animator_SetFloatStringDampv
dGa:__ZN17BaseObjectManager16StaticInitializeEPv
pu:__ZL19MakeDetailEdgeSlabsP8Vector2fPK8Vector3fii
ual:_NumberFormatter_Append_m269678094
JHa:__ZN13TrailRenderer18TransferDeprecatedI14SafeBinaryReadEEvRT_
D8o:_LeanTween_resume_m2182757466
wLi:_Socket_Shutdown_internal_m4083092300
fjl:_OperatingSystem_GetObjectData_m1571196722
TYo:_List_1_CheckCollection_m2602703205_gshared
ATp:_Collection_1_Add_m2909689359_gshared
$ad:__Z18Transfer_BlittableI9JSONWriteLb0EyEvRK29SerializationCommandArgumentsR31RuntimeSerializationCommandInfo
arb:__ZN13RenderTexture15ThreadedCleanupEv
jCi:_CookieException__ctor_m3096844272
Z3g:_X509BasicConstraintsExtension__ctor_m3721156175
zub:__ZN12CubemapArray23VirtualRedirectTransferER14SafeBinaryRead
Lse:__ZNK5physx2Sc9ClothCore23getNbCollisionTrianglesEv
Gg:___cxa_free_exception
j0k:_Path_GetFileName_m1354558116
Vgq:_XmlNodeReaderImpl_get_HasValue_m431051532
Voe:__ZN5physx7NpShape16setFlagsInternalENS_7PxFlagsINS_11PxShapeFlag4EnumEhEE
Hfr:_emscripten_glUniform3i__wrapper
kzo:_ValueCollection_System_Collections_Generic_ICollectionU3CTValueU3E_Add_m3566094860_gshared
E6m:_Rect_Contains_m1232228501_AdjustorThunk
BWl:_ChunkStream_WriteAndReadBack_m2960632715
mZc:__Z43RectTransform_CUSTOM_INTERNAL_set_sizeDeltaP12Il2CppObjectRK13Vector2fIcall
NVd:__ZN5physx2Gu30distanceSegmentTriangleSquaredERKNS_6shdfnd3aos5Vec3VES5_S5_S5_S5_RS3_S6_
C7k:_MissingMemberException_GetObjectData_m2957220379
pIn:_Int64_System_IConvertible_ToType_m3223988955_AdjustorThunk
gFg:__ZN15dense_hashtableINSt3__24pairIK10KeyWrapperINS1_IPKcS4_EEEiEES6_24NamespaceAndNamePairHashN14dense_hash_mapIS6_iS9_NS6_14EqualsComparerI26NamespaceAndNamePairEqualsEENS0_9allocatorIS8_EEE9SelectKeyESD_SF_E6insertERKS8_
iwa:__ZN24GenerateTypeTreeTransfer18BeginArrayTransferEPKcS1_Ri17TransferMetaFlags
I3o:_Array_InternalArray__get_Item_TisPlayableBinding_t354260709_m3837494573_gshared
Qn:___syscall51
z5l:_String_CreateString_m4016935005
G5o:_LeanTween_init_m1175845803
n7n:_MatchCollection_get_FullList_m1829231879
Un:___syscall54
mFl:_Array_GetValue_m2528415604
Sre:__ZN5physx2Sc9ClothCore14updateBulkDataERNS0_13ClothBulkDataE
oqk:_XmlDocument_CreateAttribute_m125953371
WSo:_List_1_CheckMatch_m1136191606_gshared
j6f:_Transform_INTERNAL_CALL_TransformPoint_m4261269221
EFn:_Guid_AppendShort_m791023083
f1p:_ReadOnlyCollection_1_System_Collections_IList_set_Item_m1197072532_gshared
tr:FUNCTION_TABLE_vifffffi
hRh:__ZL121DefaultProxySection_t4167594595_CustomAttributesCacheGenerator_DefaultProxySection_t4167594595____BypassList_PropertyInfoP21CustomAttributesCache
mml:_AssemblyBuilder_basic_init_m1526438565
QYf:_TiltInput_Update_m223364922
UOa:__ZN9ShaderLab9SubShader19CreateFromSubShaderERKS0_
o0m:_Mathf_Acos_m3996105394
Muf:_cff_builder_add_point1
pGg:__ZN6il2cpp2vm5Image21GetCachedResourceDataEPK11Il2CppImageRKNSt3__212basic_stringIcNS5_11char_traitsIcEENS5_9allocatorIcEEEE
TTb:__Z18Transfer_BlittableI14SafeBinaryReadLb0E10ColorRGBAfEvRK29SerializationCommandArgumentsR31RuntimeSerializationCommandInfo
eCm:_Scrollbar__ctor_m1852189877
Ftd:__ZN21InheritVelocityModuleD2Ev
ib:invoke_iiiiiiiiii
zda:__ZN11AudioSource25GetNumExtensionPropertiesEv
shp:_Array_InternalArray__ICollection_CopyTo_TisUILineInfo_t4195266810_m104406798_gshared
YJl:_Char_ToLowerInvariant_m1926695830
Z0c:__Z31Transform_CUSTOM_DetachChildrenP12Il2CppObject
$Vm:_Debug_LogErrorFormat_m3558239521
_Lb:__ZN18LoadSceneOperation19IntegrateTimeSlicedEi
hwm:_InputField_ActivateInputFieldInternal_m3360893886
C1:__ZN4FMOD7SystemI11createSoundEPKcjP22FMOD_CREATESOUNDEXINFOPPNS_5SoundE
zvc:__ZN10FileSystem19SetCurrentDirectoryERKN4core12basic_stringIcNS0_20StringStorageDefaultIcEEEE
Eap:_LeanTween_easeOutQuad_m3328736983
EUm:_Component_get_gameObject_m442555142
iqa:__ZN16ScriptingManager24NotifyScriptCacheReleaseEi
epd:__ZN13dynamic_arrayIN9SubModule14SubEmitterDataELj4EE9push_backERKS1_
RSc:__Z47Register_UnityEngine_Coroutine_ReleaseCoroutinev
yae:__ZN10ScSceneFnsIN5physx3Scb11RigidStaticEE6insertERNS0_2Sc5SceneERS2_
I3:__ZN15AudioReverbZone13SetFMODValuesEv
Tna:__ZN14SafeBinaryRead4InitERK16TypeTreeIteratorxx24TransferInstructionFlags10MemLabelId
oHa:__ZL19StaticDestroyShaderPv
wf:_glRenderbufferStorageMultisample
sIc:__ZN8Playable4PlayEv
tCi:_DefaultCertificatePolicy_CheckValidationResult_m3811448269
Ncp:_LTDescrImpl_setPoint_m1153689798
uVn:_SyncHashtable_Clone_m3726939774
_S:__ZN23AnimationPlayableOutput17SetTargetAnimatorEP8Animator
wcd:__ZN9JSONWrite8TransferI13dynamic_arrayIN4math12int3_storageELj4EEEEvRT_PKc17TransferMetaFlags
MWf:_VirtualAxis_Remove_m3159277484
nXb:__Z35Transfer_Blittable_SingleValueFieldI14SafeBinaryReadfEvRT_R17GeneralMonoObjectRK23StaticTransferFieldInfo
qjj:__Z67RuntimeInvoker_Void_t1185182177_Int32_t2950945753_Touch_t1921856868PFvvEPK10MethodInfoPvPS4_
_sj:_CollisionArea_OnCollisionEnded_m974388726
eWd:__ZN5physx2Gu20sweepCCTBoxTrianglesEjPKNS_10PxTriangleEbRKNS_13PxBoxGeometryERKNS_11PxTransformERKNS_6PxVec3EfRSA_SD_RfRjPKjfNS_7PxFlagsINS_9PxHitFlag4EnumEtEE
Dqn:_RegistryPermission_AddPathList_m2434130390
DPd:__ZN5physx2Gu15OBBTriangleTestC2ERKNS0_3BoxE
c0m:_Material_SetMatrix_m4094650785
Vkd:__Z25EvaluateRandomGradientHDRIL12GradientMode0ELS0_0EEN4math8floatNx4ERK14MinMaxGradientRKNS1_7_float4ES8_
lRd:__ZN5physx2Gu21computeMTD_SphereMeshERNS_6PxVec3ERfRKNS0_6SphereERKNS_22PxTriangleMeshGeometryERKNS_11PxTransformE
kep:_Array_InternalArray__ICollection_Add_TisClientCertificateType_t1004704908_m2622721177_gshared
WL:__ZN17PackedFloatVector8TransferI18StreamedBinaryReadILb0EEEEvRT_
qdn:_XmlSchemaObjectCollection_Add_m1142549045
k2d:__ZN5physx2Sc10NPhaseCore15fetchFilterPairEPv
hcf:__ZN5physx12SubSortQuick5sort4EPjjRNS_6shdfnd5ArrayINS_11RTreeNodeNQENS2_19ReflectionAllocatorIS4_EEEERjRNS_10PxBounds3VEj
t2c:__Z37Register_UnityEngine_Screen_get_widthv
Q8d:__ZN5physx6shdfnd5ArrayIPNS_2Sc8BodyCoreENS0_19ReflectionAllocatorIS4_EEE15growAndPushBackERKS4_
ceo:_Uri_get_Authority_m3816772302
GRg:__ZNSt3__26vectorIPN6il2cpp2os6HandleENS_9allocatorIS4_EEE18__construct_at_endEj
Htk:_BigInteger_op_Division_m3713793389
Vbn:_Touch_get_position_m3109777936
TUe:__ZN5physx16PxsBroadPhaseMBPC2ERNS_19PxcScratchAllocatorERNS_2Cm13EventProfilerERKNS_11PxSceneDescEPNS_14PxsAABBManagerE
YUj:_ParameterInfo__ctor_m3269320476
kLg:__ZN6il2cpp2os7ConsoleL11SetPropertyEib
Qgf:__ZN14PhysicsManager23VirtualRedirectTransferER14SafeBinaryRead
HY:__ZN6Avatar23VirtualRedirectTransferER14SafeBinaryRead
f7g:_X509SubjectKeyIdentifierExtension_FromHexChars_m3244835916
g3l:_Single_CompareTo_m2785801815
BMq:_UInt64_System_IConvertible_ToInt32_m949522652_AdjustorThunk
P_i:__Z88RuntimeInvoker_RuntimeObject_RuntimeObject_RuntimeObject_SByte_t1669577662_RuntimeObjectPFvvEPK10MethodInfoPvPS4_
ppq:_PropertyInformation_get_Value_m546584587
Xhe:__ZN5physx7NpActor14onActorReleaseEPNS_7PxActorE
gZd:__ZN5physx3Cct26CharacterControllerManager19computeInteractionsEfPNS_26PxControllerFilterCallbackE
Qr:stackAlloc
g7d:__ZN5physx6shdfnd8PoolBaseINS_2Cm5BlockIhLj256EEENS0_19ReflectionAllocatorIS4_EEE12allocateSlabEv
wTc:__Z44Camera_CUSTOM_INTERNAL_CALL_ScreenPointToRayP12Il2CppObjectRK8Vector3fR3Ray
ceb:__ZN25SingleBlockMemoryFileData4LockEPPv
rmo:_WaitHandle_WaitOne_m2577152516
ZOp:_Collection_1_IsSynchronized_m4060786576_gshared
Ona:__ZN17PersistentManager23PostReadActivationQueueEiPK8TypeTreeb
pgd:__ZN15ParticleEmitter9TimedEmitEf
Gzj:_UpdateBroadcaster_SystemUpdate_m1970766096
CWc:__Z32RectOffset_Get_Custom_PropBottomP12Il2CppObject
YVm:_Debug_LogError_m2850623458
C5q:_stat
Dua:__ZN9ShaderLab10SubProgram7CompileEv
oOh:__ZL113XmlSchemaNotation_t2664560277_CustomAttributesCacheGenerator_XmlSchemaNotation_t2664560277____Public_PropertyInfoP21CustomAttributesCache
U_g:_WebAsyncResult__ctor_m3529977349
Ktl:_PropertyBuilder_get_CanRead_m3783190070
HQq:_AudioSource_AddAmbisonicExtension_m304476911
VBm:_Raycast2DCallback_Invoke_m1500574149
Eep:_Array_InternalArray__ICollection_Add_TisKeyValuePair_2_t3699644050_m4052349323_gshared
Wxk:_CipherSuiteCollection_System_Collections_IList_get_Item_m2175128671
iDd:__ZN15b2DistanceJoint23InitVelocityConstraintsERK12b2SolverData
wcc:__ZNSt3__218__insertion_sort_3IRNS_4lessIN22BuiltinResourceManager8ResourceEEEPS3_EEvT0_S7_T_
$Xe:__ZN5physx2Gu21findUniqueConvexEdgesEjPNS0_10ConvexEdgeEjPKNS0_15HullPolygonDataEPKh
Vih:_XsdNegativeInteger_ParseValueType_m1954670175
Jhm:_Enumerator_get_CurrentKey_m2790302967_AdjustorThunk
ZAe:__ZN5physx20NpRigidActorTemplateINS_14PxRigidDynamicEED0Ev
ua:invoke_iiiiiiiiiiii
T2n:_DateTime_System_IConvertible_ToType_m1242864300_AdjustorThunk
n2g:_WebRequest_get_RequestUri_m2259001472
MSe:__ZN5physx43solveContactCoulombPreBlock_WriteBackStaticEPKNS_23PxcSolverConstraintDescEjRNS_16PxcSolverContextEPNS_25PxcThresholdStreamElementEjPi
bso:_Transform_1_BeginInvoke_m3774422199_gshared
a7l:_InternalEnumerator_1_get_Current_m2446410893_AdjustorThunk
dlb:__Z29CalculateDefaultChannelsToAdd17ShaderChannelMaskS_
eGl:_Array_Sort_m870838517
e7d:__ZN5physx2Sc5Scene23allocateConstraintBlockEj
S$q:_CanvasRenderer_SetMaterial_m633746949
a7:__ZN10AudioMixer12RebindOutputEv
$2j:_MethodCall_InitMethodProperty_m1333573177
yyg:__ZNK15dense_hashtableINSt3__24pairIK10KeyWrapperIP11Il2CppClassES4_EES5_N6il2cpp8metadata16SZArrayClassHashEN14dense_hash_mapIS5_S4_SA_NS5_14EqualsComparerINS9_19SZArrayClassCompareEEENS0_9allocatorIS7_EEE9SelectKeyESE_SG_E5beginEv
lzm:_LayoutRebuilder_PerformLayoutControl_m4241054021
Zbg:__ZN6il2cpp2vm17SetupFieldsLockedEP11Il2CppClassRKNS_2os12FastAutoLockE
Hzi:_RequestCachingSection_get_Properties_m165858074
Wac:__ZNK9GfxDevice20IsViewportFullscreenEv
Y8:__ZN11AudioSourceD0Ev
T1a:__ZN18GlslGpuProgramGLES13SwitchProgramEj
u8d:__ZN5physx2Sc5Actor15onElementDetachERNS0_7ElementE
Reb:__ZN20ArchiveStorageReaderC2E10MemLabelId
cAj:_TextObject__ctor_m1014100874
dAp:_RC2_set_KeySize_m2968816949
g8o:_LTRect_get_id_m1170499463
DNi:__Z132RuntimeInvoker_Int32_t2950945753_RuntimeObject_Int32_t2950945753_Int32_t2950945753_RuntimeObject_Int32_t2950945753_Int32_t2950945753PFvvEPK10MethodInfoPvPS4_
ctn:_PermissionSet_get_IsSynchronized_m3994495346
pvd:__ZN27TrailModulePropertyBindings13SetFloatValueER14ParticleSystemif
kSb:__ZN16MemoryFileSystem4NameEv
_wd:__Z20UpdateWholeSheet2TplIL27ParticleSystemCurveEvalMode2ELS0_0EEvfRK11MinMaxCurveS3_RK23ParticleSystemParticlesPf
nDg:__ZN6il2cpp2vm14PlatformInvoke7ResolveERK16PInvokeArguments
lNf:__Z37Canvas_Set_Custom_PropOverrideSortingP12Il2CppObjecth
A2g:_WebRequest_ClearPrefixes_m3562991615
L8o:_LeanTween_options_m348280153
b2c:__Z13SetCopyBufferRKN4core12basic_stringIcNS_20StringStorageDefaultIcEEEE
WVo:_List_1_CheckIndex_m498115329_gshared
kNd:__ZN5physx3Cct13BoxController13setHalfHeightEf
fKe:__ZN5physx3Scb13ObjectTracker5clearEv
ABl:_X509CertificateEnumerator_System_Collections_IEnumerator_get_Current_m418791713
jFf:_UNITY_FT_New_Size
OQc:__Z42ScriptingGetComponentsOfTypeFromGameObjectRK26ScriptingGetComponentsArgs
rOd:__ZL28GeomMTDCallback_PlaneCapsuleRN5physx6PxVec3ERfRKNS_10PxGeometryERKNS_11PxTransformES5_S8_
yjd:__Z10RecordEmitR27ParticleSystemEmissionStateRK28ParticleSystemSubEmitterDataR24ParticleSystemUpdateDataRK23ParticleSystemParticles21ParticleSystemSubTypeijffff
zld:__Z9UpdateTplIL27ParticleSystemCurveEvalMode4EEvRK11MinMaxCurveS3_S3_R23ParticleSystemParticlesjjRKN4math8float3x3ERKNS6_7_float4E
Brf:__Z51Register_UnityEngine_CharacterController_get_heightv
BOd:__ZL23GeomMTDCallback_BoxMeshRN5physx6PxVec3ERfRKNS_10PxGeometryERKNS_11PxTransformES5_S8_
meq:_XmlNamespaceManager_InitData_m1052880898
u5h:__ZL73ArgumentCache_t2187958399_CustomAttributesCacheGenerator_m_ObjectArgumentP21CustomAttributesCache
L_o:_Array_swap_TisRaycastResult_t3360306849_TisRaycastResult_t3360306849_m3400922624_gshared
NQq:_AudioListener_ReadExtensionName_m929423100
jTj:_CspParameters__ctor_m2741097571
lud:__ZN35ClampVelocityModulePropertyBindings13SetFloatValueER14ParticleSystemif
FYn:_ConsoleDriver_CreateWindowsConsoleDriver_m3110600268
Sqe:__ZNK5physx7NpCloth22getNbCollisionCapsulesEv
Htb:__ZNSt3__27__sort4IRPFbRKNS_4pairIN9ShaderLab16FastPropertyNameEN18UnityPropertySheet11UnityTexEnvEEES8_EPS6_EEjT0_SD_SD_SD_T_
Ktf:_cf2_hintmap_build
ibn:_Texture_get_width_m888163864
O6q:_tcflush
TCf:_Line_Up
tNf:__Z44Canvas_CUSTOM_GetETC1SupportedCanvasMaterialv
$rl:_MethodBuilder__ctor_m3664913099
UZq:_Physics_INTERNAL_CALL_CapsuleCastAll_m4102462563
Df:_emscripten_glBufferSubData
lYc:__Z51AnimationCurve_CUSTOM_INTERNAL_CALL_GetKey_InternalP12Il2CppObjectiR11KeyframeTplIfE
x$g:_WebConnection_Connect_m2850066444
NEi:_FtpDataStream_Write_m4109720742
Lbe:__ZN5physx6shdfnd5ArrayIPvNS0_15InlineAllocatorILj256ENS0_19ReflectionAllocatorINS_7NpShapeEEEEEE15growAndPushBackERKS2_
Tcl:_DTDReader_CreateNameString_m1971255704
$iq:_XmlReader_XmlError_m363506509
fVm:_ContextMenu__ctor_m2004453717
g_a:__ZN6prcoreL12RemapGenericI15TexFormatRGB88817TexFormatARGB8888EEvPKNS_9InnerInfoE
iu:__Z17CalculateGlobalRS23TransformAccessReadOnly
GCi:_Socket_get_SupportsIPv6_m1296530017
Ehp:_Array_InternalArray__Insert_TisGOType_t2877542885_m4076218197_gshared
XVg:__ZNSt3__210__list_impIPN6il2cpp5utils10MemoryPool6RegionENS_9allocatorIS5_EEE5clearEv
_No:_LinkedList_1_OnDeserialization_m3201462664_gshared
wem:_Enumerator_System_Collections_IDictionaryEnumerator_get_Entry_m2526097781_AdjustorThunk
XYk:_InternalEnumerator_1_get_Current_m1523142935_gshared
Jza:__ZN33InstancedMeshIntermediateRenderer13StaticDestroyEPv
wce:__ZNK5physx14NpArticulation22computeImpulseResponseEPNS_18PxArticulationLinkERNS_6PxVec3ES4_RKNS_24PxArticulationDriveCacheERKS3_S9_
M3d:__ZN5physx2Sc19ContactReportBuffer23reallocateNotThreadSafeEjRjjj
q6d:__ZN5physx2Sc5Actor19registerInteractionEPNS0_11InteractionE
VWb:__ZN14SafeBinaryRead21TransferSTLStyleArrayI13dynamic_arrayI9BoundsIntLj4EEEEvRT_17TransferMetaFlags
COb:__ZN22MemoryCacherReadBlocks14LockCacheBlockEjPPhS1_
fCb:__ZNK9GfxDevice26GetSinglePassStereoEyeMaskEv
jno:_TimeSpan_FromHours_m1109641064
vPm:_Array_InternalArray__IndexOf_TisKeyValuePair_2_t1640487534_m1111965385_gshared
jWm:_DebugLogHandler_Internal_Log_m4175774469
cgi:__ZL54EventSystem_t1003666588_CustomAttributesCacheGeneratorP21CustomAttributesCache
WPq:_AudioClip_Create_m255819841
PPg:__ZN4utf88internal15increase_safelyIPKcEENS0_9utf_errorERT_S5_
yEf:__ZN20TextRenderingPrivate8FontImpl16CacheFontForTextEPtiifjPK13dynamic_arrayINS_16TextFormatChangeELj4EE
vol:_DynamicMethod__ctor_m3668890714
Dof:__ZN13PhysicsModule19CreateNxHeightFieldEPv
iqf:__Z43Rigidbody_Set_Custom_PropMaxAngularVelocityP12Il2CppObjectf
INo:_Enumerator_Dispose_m2375640141_AdjustorThunk
IVf:__Z21ArrayElementTypeCheckP11Il2CppArrayPv
Fir:_emscripten_glTexSubImage2D__wrapper
edm:_Enumerator_get_CurrentValue_m60334065_AdjustorThunk
hA:__ZNSt3__26__sortIR9SortIndexIPKhEPjEEvT0_S7_T_
Nxh:__ZL69DebuggerBrowsableAttribute_t1026244177_CustomAttributesCacheGeneratorP21CustomAttributesCache
M3g:_PublicKey_DecodeRSA_m1824703659
A7q:__ZNSt3__212basic_stringIcNS_11char_traitsIcEENS_9allocatorIcEEE6appendEjc
ZLd:__ZN16PhysicsManager2D20WorldContactFilter2D13ShouldCollideEP9b2FixtureS2_
xca:__ZN13ProduceHelperI15AudioMixerGroupLb0EE7ProduceE10MemLabelId18ObjectCreationMode
TYc:__Z27Random_Get_Custom_PropValuev
hVb:__Z14resize_trimmedINSt3__26vectorI8MonoPPtr13stl_allocatorIS2_L18MemLabelIdentifier1ELi16EEEEEvRT_j
Onq:_ConfigInfoCollection_set_Item_m2145766890
kg:_TTF_RenderText_Solid
L7i:__Z175RuntimeInvoker_Void_t1185182177_Rect_t2360479859_RuntimeObject_Int32_t2950945753_SByte_t1669577662_Single_t1397266774_Color_t2555686324_Vector4_t3319028937_Vector4_t3319028937PFvvEPK10MethodInfoPvPS4_
lXo:_List_1__ctor_m3947764094_gshared
sxc:__ZN13TrailRenderer27PrepareSingleRendererUpdateER13RendererSceneRS_10MemLabelId
clh:_XsdValidatingReader_get_XmlLang_m1277834378
Pam:_Comparer_1__cctor_m1068705901_gshared
Wco:_Parser_IsIgnorePatternWhitespace_m2107132682
MGi:_HttpRequestCreator_Create_m400548686
Z8o:_LeanTween_alphaText_m3692961886
eSf:__ZN11UnityEngine7Connect16PersistentValuesC2Ev
j8p:_ReadOnlyCollection_1_System_Collections_IList_Insert_m134149130_gshared
Fad:__Z18Transfer_BlittableI9JSONWriteLb0E5RectTIiEEvRK29SerializationCommandArgumentsR31RuntimeSerializationCommandInfo
Kag:__ZL7log2_32j
nKm:_Array_InternalArray__ICollection_Remove_TisDateTime_t3738529785_m2250893026_gshared
UQo:_Enumerator_System_Collections_IEnumerator_Reset_m1024162038_AdjustorThunk
j2a:__Z15IsIEEE754Format14GraphicsFormat
PYb:__Z19TransferField_ArrayI17RemapPPtrTransfer27Converter_UnityEngineObjectEvRK23StaticTransferFieldInfoR31RuntimeSerializationCommandInfoRT0_
Ab:invoke_iifiii
JTn:_KeyNotFoundException__ctor_m541499307
wlc:__ZN19ShaderPropertySheet24SetTextureFromTextureRefERK23FastTexturePropertyNamePK10TextureRef
VLm:_SetPropertyUtility_SetStruct_TisSpriteState_t1362986479_m665096788_gshared
YNi:__Z61RuntimeInvoker_Single_t1397266774_RuntimeObject_RuntimeObjectPFvvEPK10MethodInfoPvPS4_
poh:_XmlTextReader_get_State_m1728015442
Oy:__ZNK11DynamicMesh13MergePolygonsER13dynamic_arrayI8Vector3fLj4EERKS2_S5_
tKm:_Array_InternalArray__ICollection_Remove_TisIntPtr_t_m3807208150_gshared
Ogf:__ZN14PhysicsManager23VirtualRedirectTransferER17RemapPPtrTransfer
gVk:_InternalEnumerator_1_get_Current_m2316281569_AdjustorThunk
C_n:_DateTime__ctor_m1095105629
SRa:__ZN13GfxDeviceGLES15UploadTexture2DE9TextureID16TextureDimensionPKhiii14GraphicsFormati18TextureUploadFlags16TextureUsageMode
xR:__ZN7mecanim9animation25CreateControllerWorkspaceEPKNS0_18ControllerConstantERNS_6memory9AllocatorE
RHf:__Z37Register_UnityEngine_GUIText_set_textv
Kzq:_Event_Cleanup_m2477919477
A5:__ZN4FMOD6System9createDSPEP20FMOD_DSP_DESCRIPTIONPPNS_3DSPE
hKh:__ZL87Thread_t2300836069_CustomAttributesCacheGenerator_Thread_GetCompressedStack_m2923422412P21CustomAttributesCache
cDk:_SslClientStream_get_ClientCertificates_m998716871
xS:__ZN7mecanim9animation26DestroyControllerWorkspaceEPNS0_19ControllerWorkspaceERNS_6memory9AllocatorE
k3m:_Object_DestroyObject_m3543774005
DUl:_TraceListenerCollection_System_Collections_IList_Add_m4265856600
A1:__ZN4FMOD8ChannelI11EndCallbackEv
CNq:_UnitySerializationHolder_GetDBNullData_m714211970
b6c:__ZN8GUIStyle14SetDefaultFontEPN13TextRendering4FontE
hyb:__ZN15QualitySettings23VirtualRedirectTransferER24GenerateTypeTreeTransfer
jNj:_ObjectReader_ReadValue_m3145979203
Djh:_XsdPositiveInteger_ParseValueType_m1977437600
NYe:__ZN5physx2Gu32PCMConvexVsMeshContactGeneration35generateTriangleFullContactManifoldERNS0_9TriangleVEjPKjhRKNS0_13PolygonalDataEPNS0_16SupportLocalImplIS2_EEPNS0_12SupportLocalEPNS0_21MeshPersistentContactERjRKNS_6shdfnd3aos6FloatVERNSI_5Vec3VE
HMq:_UInt64_System_IConvertible_ToSingle_m925613075_AdjustorThunk
$1j:_Lease_set_RenewOnCallTime_m1737118470
gng:__ZN6il2cpp2os10FileHandleC2Ev
lgl:_XmlSchemaAnyAttribute_get_HasValueLocal_m1152318798
pJi:_SslStream_get_WriteTimeout_m111948981
Rki:__ZL68Scrollbar_t1494447233_CustomAttributesCacheGenerator_m_NumberOfStepsP21CustomAttributesCache
Kpk:_XmlDeclaration_get_InnerText_m3135515065
uD:__ZN14SafeBinaryRead21TransferSTLStyleArrayI22OffsetPtrArrayTransferI9OffsetPtrIN7mecanim12statemachine17ConditionConstantEEEEEvRT_17TransferMetaFlags
Y_k:_BinaryWriter_Dispose_m1020700223
Veg:__ZN30dense_hashtable_const_iteratorINSt3__24pairIK10KeyWrapperIPK19Il2CppGenericMethodEPK26Il2CppGenericMethodIndicesEES6_N6il2cpp8metadata23Il2CppGenericMethodHashEN14dense_hash_mapIS6_SA_SE_NS6_14EqualsComparerINSD_26Il2CppGenericMethodCompareEEENS0_9allocatorISB_EEE9SelectKeyESI_SK_EppEv
Whq:_XmlParserContext_PopScope_m4042017474
DOe:__ZNK16OBBAABBTest_SIMDclERKN5physx2Sq9BucketBoxE
xsf:_UNITY_FT_Request_Metrics
aEg:__ZN6il2cpp6icalls8mscorlib6System10Reflection10MonoMethod29get_IsGenericMethodDefinitionEP22Il2CppReflectionMethod
Xzg:__ZN6il2cpp2vm6Thread21AllocThreadStaticDataEi
C4j:_MonoMethodMessage_get_CallType_m3702481004
yBi:_Cookie_set_Version_m3274352061
nll:_Default_SelectMethod_m469311730
j_m:_Input_get_mousePosition_m1616496925
zOg:__ZN30dense_hashtable_const_iteratorINSt3__24pairIK10KeyWrapperIPK19Il2CppGenericMethodEP10MethodInfoEES6_N6il2cpp8metadata23Il2CppGenericMethodHashEN14dense_hash_mapIS6_S9_SD_NS6_14EqualsComparerINSC_26Il2CppGenericMethodCompareEEENS0_9allocatorISA_EEE9SelectKeyESH_SJ_EppEv
wro:_UInt32_ToString_m2066897296_AdjustorThunk
oca:__Z13RegisterClassI13AudioListenerEvv
_Ob:__ZN24GenerateTypeTreeTransfer19TransferSTLStyleMapINSt3__23mapI4PPtrI6ShaderEN4core12basic_stringIcNS6_20StringStorageDefaultIcEEEENS1_4lessIS5_EENS1_9allocatorINS1_4pairIKS5_SA_EEEEEEEEvRT_17TransferMetaFlags
gUn:_Enumerator_Reset_m4274366540
cad:__Z18Transfer_BlittableI9JSONWriteLb0E8Vector3fEvRK29SerializationCommandArgumentsR31RuntimeSerializationCommandInfo
ih:_emscripten_glUniform4i
Jzd:__ZNSt3__227__insertion_sort_incompleteIRN10vector_mapIi22ParticleModulePropertyNS_4lessIiEENS_9allocatorINS_4pairIiS2_EEEEE13value_compareEPS7_EEbT0_SD_T_
Hwf:_otv_FeatureList_validate
fcl:_DTDReader_GenerateDTDObjectModel_m1793782479
Ygd:__ZN22ParticleSystemRenderer5ResetEv
Q4o:_LeanAudio_createAudioWave_m3466871537
FXd:__ZN16RayRTreeCallbackILi0ELb1EED2Ev
vg:_emscripten_glUniform4f
Bab:__ZN6Object22CheckInstanceIDsLoadedEPii
Xk:___unlock
iCj:_PoolableObject_Unpool_m4083543524
MYl:_CodeGroup_AddChild_m2906100427
Uhf:__ZN14SphereCollider10SmartResetEv
Pvf:_otv_validate
Vtc:__ZN13sorted_vectorINSt3__24pairIN4core12basic_stringIcNS2_20StringStorageDefaultIcEEEES6_EEN10vector_mapIS6_S6_27compare_tstring_insensitiveIS6_E13stl_allocatorIS7_L18MemLabelIdentifier38ELi16EEE13value_compareESD_E9erase_oneIS6_EEjRKT_
$ym:_U3CDelayedSetDirtyU3Ec__Iterator0_Reset_m160466733
Dnn:_X509Certificate_Equals_m3784196370
z$c:__Z46RenderTexture_CUSTOM_Internal_SetSRGBReadWriteP12Il2CppObjecth
hyo:_ValueCollection__ctor_m1199252616_gshared
QHk:_PairPod_1__ctor_m312244898_gshared
J9:__ZN20SoundChannelInstance19setReverbPropertiesEP29FMOD_REVERB_CHANNELPROPERTIES
vRo:_Enumerator_MoveNext_m1446151600_gshared
TAq:_GUI_DrawTextureWithTexCoords_m3866511520
xhh:_XsdIdentityPath_get_IsAttribute_m2126795200
oln:_SHA1Internal_ProcessFinalBlock_m1403775421
XUm:_ComputeBuffer_Dispose_m705931068
$rk:_XmlException__ctor_m1595962343
ZEk:_Callback_2_Invoke_m178457350_gshared
C1c:__Z40Register_UnityEngine_Transform_IsChildOfv
JYd:__ZN5physx3Cct17CapsuleController15setClimbingModeENS_21PxCapsuleClimbingMode4EnumE
EQe:__ZN5physx6shdfnd9atomicAddEPVii
w9l:_InternalEnumerator_1_get_Current_m2356858238_AdjustorThunk
XUc:__Z45Register_UnityEngine_Display_GetSystemExtImplv
uP:__ZN7mecanim14ValueArrayLoopILb1EEEvRKNS_10ValueArrayES3_RKNS_14ValueArrayMaskERS1_f
IPn:_RSAManaged_ImportParameters_m1844641996
GHi:_HttpWebRequest_SetWriteStreamError_m336408989
oLe:__ZN5physx6shdfnd5ArrayINS_3Scb13MaterialEventENS0_19ReflectionAllocatorIS3_EEE6resizeEjRKS3_
dhm:_Enumerator_System_Collections_IDictionaryEnumerator_get_Value_m3325938730_AdjustorThunk
kP:__ZN7mecanim9animation23TransformValuesFromClipEiiiRKNS_10ValueArrayERKNS0_10ClipOutputERKNS0_12ClipBindingsERS1_RNS_14ValueArrayMaskEb
pxd:__Z19UpdateSingleRow2TplIL27ParticleSystemCurveEvalMode4ELS0_4EEvfRK11MinMaxCurveS3_RK23ParticleSystemParticlesPfbiii
AWe:__ZNK5physx14SingleAABBTask25updateNumFastMovingShapesEv
XAo:_ValueCollection_System_Collections_ICollection_get_SyncRoot_m1114275063_gshared
uFn:_Guid_Equals_m1866984197
wac:__Z11StringToKeyRKN4core12basic_stringIcNS_20StringStorageDefaultIcEEEE
Bbf:__ZN5physx17ConvexMeshBuilder16computeGaussMapsEv
sjl:_PlatformNotSupportedException__ctor_m1787918017
bEa:__ZN13RuntimeStaticI15DirectorManagerLb0EE16StaticInitializeEPv
xdo:_Uri_HexEscape_m1589417657
N4p:_ReadOnlyCollection_1_System_Collections_ICollection_CopyTo_m2643246984_gshared
uIb:__ZN11TimeManager6UpdateEv
Nbc:__ZN6Shader18LoadDefaultShadersEv
zce:__ZNK5physx2Sc16ArticulationCore22computeImpulseResponseERNS0_8BodyCoreERNS_6PxVec3ES5_RKNS_9PxcFsDataERKS4_SA_
b_e:__ZN5physx21PxsBodyTransformVaultC2Ev
w_g:_SocketAsyncResult_set_IsCompleted_m3899558286
bun:_DateTimeFormatInfo_ReadOnly_m890935083
YXe:__ZL6IsInYZffPPK10VertexInfo
vcf:__ZN5physx19TriangleMeshBuilderD0Ev
J5q:_fflush
Tta:__ZN17LightProbeContext4InitERK16LightmapSettingsRK14RenderSettings
mnc:__ZN18DeferredRenderLoop14RenderLightingER21ActiveLightingContextP13RenderTexture9TextureIDPS3_iRK8Vector4fRK14LightingLayersR10MinMaxAABBb12ObjectHandleI17RenderSurface_TagP17RenderSurfaceBaseE
J9m:_SceneManager_Internal_ActiveSceneChanged_m3676176255
ZZg:__GLOBAL__sub_I_Error_cpp
ofl:_XmlSchema_IsNamespaceAbsent_m3899863769
vJg:__ZN6il2cpp2vm6Object15AllocatePtrFreeEjP11Il2CppClass
qBb:__ZN9Texture3DD2Ev
MYp:_Collection_1_set_Item_m4280581817_gshared
hAd:__Z39ParticleSystem_Set_Custom_PropStartSizeP12Il2CppObjectf
iQl:_MemberDescriptor_CreateAttributeCollection_m277886455
ewq:_TlsStream_Seek_m895611617
VJg:__ZN6il2cpp2vm11MethodStack17GetStackFramesRawEv
bjp:_Array_InternalArray__Insert_TisContentType_t1787303396_m3566390691_gshared
Qoe:__ZN5physx2CmlsERNS0_12RenderOutputERKNS0_10DebugArrowE
qD:__ZN14SafeBinaryRead21TransferSTLStyleArrayI22OffsetPtrArrayTransferI9OffsetPtrIN7mecanim12statemachine21SelectorStateConstantEEEEEvRT_17TransferMetaFlags
gld:__Z18MagnitudeUpdateTplIL27ParticleSystemCurveEvalMode2EEvRK11MinMaxCurveR23ParticleSystemParticlesjjRKN4math7_float4E
BTg:_GC_reclaim_uninit
Epc:__Z34ProcessIndexListIsNodeVisibleStep2RK22SceneCullingParametersPK9SceneNodePK4AABBR9IndexList
N8b:__ZN10MonoScriptD2Ev
YNl:_BooleanConverter_ConvertFrom_m3588195169
g6a:__ZN19ConstantBuffersGLES8UpdateCBE5CbKeyPKvj
AL:__ZN18StreamedBinaryReadILb0EE8TransferINSt3__26vectorIN13AnimationClip12Vector3CurveE13stl_allocatorIS5_L18MemLabelIdentifier26ELi16EEEEEEvRT_PKc17TransferMetaFlags
d1m:_Matrix4x4_get_Item_m567451091
dXc:__Z39Input_CUSTOM_INTERNAL_get_mousePositionP8Vector3f
BNj:_SerializationCallbacks_GetMethodsByAttribute_m2095490433
uyf:_tt_cmap13_char_next
hgi:__ZL117EventSystem_t1003666588_CustomAttributesCacheGenerator_EventSystem_t1003666588____lastSelectedGameObject_PropertyInfoP21CustomAttributesCache
ROa:__ZN9ShaderLab4Pass16SetupPassOptionsEv
TZf:_WaterHoseParticles__ctor_m3456900009
xok:_XmlAttributeCollection_Remove_m1901737198
KQm:_Array_InternalArray__IndexOf_TisVector3_t3722313464_m426050001_gshared
Bi:_JS_Sound_ReleaseInstance
I2g:_WebResponse_GetMustImplement_m3276739230
PQa:__ZN13GfxDeviceGLES19DrawBuffersIndirectEP9GfxBufferPK18VertexStreamSourceiP17VertexDeclaration17ShaderChannelMask16GfxPrimitiveType15ComputeBufferIDj
YEn:_Guid_CheckArray_m921056615
mVi:__Z33RuntimeInvoker_Single_t1397266774PFvvEPK10MethodInfoPvPS4_
s$j:_ConfigHandler_ReadLifetine_m208994800
kZi:__Z96RuntimeInvoker_IntPtr_t_SByte_t1669577662_SByte_t1669577662_RuntimeObject_BooleanU26_t4125257963PFvvEPK10MethodInfoPvPS4_
$4e:__ZN5physx16PxsCCDBlockArrayINS_13PxsCCDOverlapELi128EE8pushBackEv
Chd:__ZL25CalculateCurveRangesValueRKN4math7_float2ERK17AnimationCurveTplIfE
Btp:_Dictionary_2_U3CCopyToU3Em__2_m2984774875_gshared
$_n:_Convert_ToDecimal_m996138310
i6m:_Rect_get_max_m350137314_AdjustorThunk
eo:FUNCTION_TABLE_diddi
pAg:__ZN6il2cpp6icalls8mscorlib6System5Array8FastCopyEP11Il2CppArrayiS5_ii
QZc:__Z26Material_CUSTOM_SetIntImplP12Il2CppObjectii
A1q:_Animator_set_speed_m1181320995
PWc:__Z42Register_UnityEngine_RectOffset_get_bottomv
ugq:_XmlNodeReader_GetAttribute_m4026636697
F3f:_TimedObjectActivator__ctor_m928140018
HNe:__ZN5physx14PxsAABBManagerD2Ev
tIq:_AesTransform__ctor_m3143546745
WWb:__ZN9BoundsInt8TransferI14SafeBinaryReadEEvRT_
VWi:__Z155RuntimeInvoker_Void_t1185182177_RuntimeObject_RuntimeObject_Int32_t2950945753_RuntimeObject_RuntimeObject_Int32_t2950945753_Int32_t2950945753_RuntimeObjectPFvvEPK10MethodInfoPvPS4_
Hyj:_HoldableInput_FSM_Switch_DownToUp_m692980189
pKc:__Z18QuaternionToMatrixRK11QuaternionfR10Matrix4x4f
wgr:_emscripten_glUniform1f__wrapper
_gq:_XmlNodeReaderImpl_get_NamespaceURI_m2992493840
WWm:_BaseInvokableCall_AllowInvoke_m878393606
rNe:__ZN5physx16PxsIslandManagerD2Ev
U3i:__Z77RuntimeInvoker_Quaternion_t2301928331_Vector3_t3722313464_Vector3_t3722313464PFvvEPK10MethodInfoPvPS4_
irn:_SiteIdentityPermission__ctor_m1960307132
L9c:__Z28RegisterModule_JSONSerializev
USe:__ZN5physx21solveFriction_BStaticERKNS_23PxcSolverConstraintDescERNS_16PxcSolverContextE
sPb:__ZN2UI13RectTransform8TransferI14SafeBinaryReadEEvRT_
Xad:__Z35Transfer_Blittable_FixedBufferFieldI9JSONWriteaEvRK29SerializationCommandArgumentsR31RuntimeSerializationCommandInfo
sud:__ZN34ColorBySpeedModulePropertyBindings13GetFloatValueERK14ParticleSystemi
sSm:_Behaviour_get_enabled_m753527255
kNc:__Z20IsHumanControllingUsv
rsq:_ProtectedConfigurationSection_InstantiateProvider_m2127899050
H3o:_Array_InternalArray__get_Item_TisParticleCollisionEvent_t4055032941_m3588807245_gshared
X9n:_RxCompiler_EmitUniCat_m3809873485
Thf:__ZN14SphereCollider5ResetEv
EJ:__ZN7mecanim5human9HumanGoal8TransferI14SafeBinaryReadEEvRT_
jar:dynCall_viiiiiiiiiiiiiiiiiiiiiiiiiiiiiiiiii
ryh:__ZL51TextInfo_t3810425522_CustomAttributesCacheGeneratorP21CustomAttributesCache
tbb:__ZN10systeminfo21GetPersistentDataPathEv
CQa:__ZN13GfxDeviceGLES17DestroyGpuProgramEPK10GpuProgram
idr:_emscripten_glDepthRangef__wrapper
Ekp:_Array_InternalArray__set_Item_TisRaycastResult_t3360306849_m730888808_gshared
qTb:__Z44InitializeTransferFunctionScriptingTraitsForI18StreamedBinaryReadILb0EEEvR31TransferFunctionScriptingTraits
Ilc:__ZNSt3__218__insertion_sort_3IR23CompareReflectionProbesP31RuntimeReflectionProbeBlendInfoEEvT0_S5_T_
ZYb:__ZN12NativeBufferI27Converter_SimpleNativeClassI8GradientEE15SetupForWritingER9ArrayInfo
Zuf:_cff_index_get_sid_string
Rni:__ZL48Shadow_t773074319_CustomAttributesCacheGeneratorP21CustomAttributesCache
Fya:__ZN12_GLOBAL__N_113StaticDestroyEPv
Z4c:__ZNK8GUIStyle4DrawER8GUIStateRK5RectTIfER10GUIContentbbbb
ojr:_glTexParameteriv__wrapper
yCl:_SmallXmlParser_Read_m3485223434
Gbn:_Texture3D_SetPixels_m2093018475
Llr:_glUnmapBuffer__wrapper
oWf:_ThirdPersonCharacter_HandleGroundedMovement_m2574081560
MVc:__Z32Gizmos_CUSTOM_INTERNAL_get_colorP10ColorRGBAf
Ded:__ZN8JSONRead21TransferSTLStyleArrayINSt3__26vectorI8Gradient13stl_allocatorIS3_L18MemLabelIdentifier1ELi16EEEEEEvRT_17TransferMetaFlags
RIb:__ZNSt3__218__insertion_sort_3IRNS_6__lessINS_4pairIPKN5Unity4TypeE7Hash128EES8_EEPS8_EEvT0_SC_T_
lvm:_InputField_set_onValueChanged_m3658917578
hyd:__Z9UpdateTplIL22MinMaxGradientEvalMode0EL12GradientMode0ELS1_1EEvRK23ParticleSystemParticlesP11ColorRGBA32RK14MinMaxGradientRK23OptimizedMinMaxGradientRK8Vector2f
H_b:__ZN10RectOffset8TransferI24GenerateTypeTreeTransferEEvRT_
Ixk:__ZN21InterfaceFuncInvoker5IiP22ByteU5BU5D_t4116647657iiS1_iE6InvokeEjP11Il2CppClassP12Il2CppObjectS1_iiS1_i
KFd:__ZN22b2EdgeAndCircleContact8EvaluateEP10b2ManifoldRK11b2TransformS4_
jLd:__ZNK10Collider2D15GetAttachedBodyEv
GPo:_Enumerator_VerifyState_m3047769867_AdjustorThunk
TZb:__Z18Transfer_BlittableI24GenerateTypeTreeTransferLb1E5RectTIiEEvRK29SerializationCommandArgumentsR31RuntimeSerializationCommandInfo
Xy:__ZNSt3__27__sort3IR17DetailNodeYSorterP16DetailMeshBVNodeEEjT0_S5_S5_T_
CJf:__ZN2UI13CanvasManager19RemoveDirtyRendererEPNS_6CanvasEPNS_14CanvasRendererE
foe:__ZN5physx7NpShape18setQueryFilterDataERKNS_12PxFilterDataE
sy:__ZNK11DynamicMesh20BuildEdgeConnectionsER13dynamic_arrayINS_4EdgeELj2EE
Usm:_Transform_1_BeginInvoke_m62842467_gshared
i4q:_isspace
Ufg:__ZN15dense_hashtableI10KeyWrapperIPK17Il2CppGenericInstES4_N6il2cpp8metadata21Il2CppGenericInstHashEN14dense_hash_setIS4_S7_NS4_14EqualsComparerINS6_24Il2CppGenericInstCompareEEENSt3__29allocatorIS4_EEE8IdentityESB_SE_E12resize_deltaEjj
Vsd:__ZN14MinMaxGradient5ResetE26ParticleSystemGradientMode
ZOl:_DecimalConverter_ConvertFromString_m1156094578
Iie:__ZN5physx2Sc8ShapeSim18onRestOffsetChangeEv
Ngl:_XmlSchemaAttribute_CompileCommon_m2311318635
O$e:__ZN5physx20PxcNpCacheStreamPair5resetEv
Bhl:_XmlSchemaComplexContent__ctor_m3163037867
yja:__ZN11UnityEngine15CloudWebService17WebFileDownloaderINS0_20WebRequestRestClientENS0_23WebRequestRestHeaderMapEED2Ev
NJ:__ZNSt3__26vectorIN13AnimationClip9PPtrCurveE13stl_allocatorIS2_L18MemLabelIdentifier26ELi16EEE7reserveEj
Zxj:_HudText_Initialize_m1775497179
WJd:__ZNSt3__26vectorINS0_IN10ClipperLib8IntPointENS_9allocatorIS2_EEEENS3_IS5_EEE7reserveEj
ohd:__ZN14ParticleSystem17RemoveFromManagerEv
kcd:__ZN9JSONWrite8TransferI13dynamic_arrayI9BoundsIntLj4EEEEvRT_PKc17TransferMetaFlags
Sc:invoke_vd
fc:invoke_vf
eLq:_PathSpline2d_Start_m3093915239
k7n:_Regex_get_RightToLeft_m2317867572
I$k:_CStreamWriter_Write_m2721888638
Cta:__ZNK10GameObject8IsActiveEv
mUc:__Z34Component_Get_Custom_PropTransformP12Il2CppObject
Hsd:__ZN21InheritVelocityModule5ResetEv
AUm:_Color32_ToString_m403383053
I1a:__ZN18GfxFramebufferGLES23SetupDefaultFramebufferEPP17RenderSurfaceBaseS2_N2gl6HandleILNS3_10ObjectTypeE9EEE
asn:_SNIP_IsNameSubsetOf_m3700450608_AdjustorThunk
b8d:__ZN5physx2Sq16computeWorldAABBERKNS_3Scb5ShapeERKNS1_5ActorE
Q$g:_WebConnectionStream_ForceCompletion_m543651373
gLj:_TrackingServices_NotifyDisconnectedObject_m1755566214
lzb:__ZN13ScreenManager18RequestOrientationE17ScreenOrientation
wcg:__ZN6il2cpp2vm5Class12SetupMethodsEP11Il2CppClass
iWe:__ZN5physx14PxsAABBManager31updateAggregateBPOverlapRecordsEv
q2d:__ZN5physx6shdfnd8PoolBaseINS_2Sc24ElementInteractionMarkerENS0_19ReflectionAllocatorIS3_EEE17releaseEmptySlabsEv
YPc:__Z39DeleteLastPathNameComponentWithAnySlashRKN4core12basic_stringIcNS_20StringStorageDefaultIcEEEE
$4c:__ZN10GUIManager14InitGUIManagerEv
XPm:_Array_InternalArray__IndexOf_TisLabel_t2281661643_m716850685_gshared
jqo:_UInt16_Equals_m642257745
OEl:_Array_System_Collections_IList_IndexOf_m3301661616
jen:_XmlSchemaException__ctor_m1475206260
LJm:_Array_InternalArray__ICollection_Remove_TisPoolID_t885761356_m3340393661_gshared
ybh:_DTDObjectModel_get_Errors_m2671149940
tAc:__Z18GetApplicationInfov
I7c:__Z37Register_UnityEngine_GUIStyle_Cleanupv
MFk:_EventSystem_2_Unregister_m3341874511_gshared
lb:invoke_iiifii
GFm:_SliderEvent__ctor_m3149452941
B0c:__Z39Register_UnityEngine_Time_set_timeScalev
Koo:_Type_IsAssignableFrom_m3195021585
eik:_Graphic_OnDisable_m1097930217
hHi:_HttpWebRequest_get_TransferEncoding_m1718199537
Paq:_Comparison_1_Invoke_m2738752991_gshared
jmg:__ZN6il2cpp6icalls8mscorlib6System8MonoType13IsPointerImplEP20Il2CppReflectionType
cnd:__Z15GetPositionMeshIL20MeshDistributionMode0ELb0E11ColorRGBA32EvRN4math8floatNx3ES4_RNS2_4pix4ERK13dynamic_arrayIS1_Lj4EERK14StrideIteratorI8Vector3fESF_RKSB_IT1_ERKS7_I16MeshTriangleDataLj4EERKS7_I11MeshAreaLUTLj4EERKfRKiST_R5RandNP12SkinMeshInfo
nk:_emscripten_glFramebufferRenderbuffer
roc:__ZN19CullingGroupManager17CullAndSendEventsERK22SceneCullingParametersiRK13CullingOutputRK8JobFence
Yvp:_DefaultComparer_GetHashCode_m142252408_gshared
Cx:__ZNSt3__213__vector_baseINS_4pairIiN14NavMeshManager15SurfaceInstanceEEE13stl_allocatorIS4_L18MemLabelIdentifier76ELi16EEED2Ev
Vpm:_KeyCollection_System_Collections_ICollection_get_SyncRoot_m229702029_gshared
cgb:__ZN9Transform30EnsureTransformHierarchyExistsEv
Zno:_Type_FilterName_impl_m2651733559
XKe:__ZN5physx2Sc14ConstraintCore15getPxConstraintEv
tdf:__ZNK8Collider12GetRigidbodyEv
wq:FUNCTION_TABLE_viiiiiiii
oSc:__Z46Register_UnityEngine_Application_get_isPlayingv
_h:___cxa_find_matching_catch_4
Jtc:__ZNSt3__26vectorINS_4pairIN4core12basic_stringIcNS2_20StringStorageDefaultIcEEEEPK17MessageIdentifierEENS_9allocatorISA_EEE12__move_rangeEPSA_SE_SE_
ihd:__ZThn32_N22ParticleSystemRendererD1Ev
Shc:__ZN14qsort_internal17MedianOfThreeSwapIP17RODataReplacement19ROSorterReplacementEEvT_S4_S4_T0_
B0l:_String_Split_m3646115398
Psd:__ZN15CollisionModule5ResetEv
i7m:_RectOffset_ToString_m2007443979
lbg:__ZNK15dense_hashtableINSt3__24pairIK10KeyWrapperIPK22Il2CppGenericParameterEP11Il2CppClassEES6_N6il2cpp5utils11PointerHashIS4_EEN14dense_hash_mapIS6_S9_SE_NS6_14EqualsComparerINS0_8equal_toIS5_EEEENS0_9allocatorISA_EEE9SelectKeyESJ_SL_E3endEv
TPc:__ZN17TransformInternal36OnScaleChangedCalculateTransformTypeE15TransformAccess
Lkp:_Array_InternalArray__set_Item_TisRect_t2360479859_m2624460458_gshared
fcb:__ZN17ArchiveFileSystem10ToAbsoluteEPKc
Pdm:_Enumerator_VerifyCurrent_m1681792775_gshared
F0n:_Convert_ToSByte_m4075629912
kCq:_GUILayoutGroup_CalcHeight_m1669391299
XPf:__ZN19UnityConnectService15GetPlayerUserIdEv
z3j:_LogicalCallContext_GetObjectData_m841612502
dQm:_Array_InternalArray__IndexOf_TisSByte_t1669577662_m4156538463_gshared
CF:__ZN7mecanim6CRCKeyENS_7eStringE
XKc:__ZL12SetPrefValueRKN4core12basic_stringIcNS_20StringStorageDefaultIcEEEERK9PrefValue
UBb:__ZN19ShaderPropertySheet20ReservePropertyCountEj
vPg:__ZN6il2cpp5utils11StringUtils6PrintfEPKcz
Oyg:__ZNSt3__26vectorIN6il2cpp8metadata18GenericArrayMethodENS_9allocatorIS3_EEE7reserveEj
vNa:__ZN15NameToObjectMapI6ShaderNSt3__23mapI4PPtrIS0_EN4core12basic_stringIcNS5_20StringStorageDefaultIcEEEENS1_4lessIS4_EENS1_9allocatorINS1_4pairIKS4_S9_EEEEEENS1_8multimapIS9_S4_NSA_IS9_EENSC_INSD_IKS9_S4_EEEEEEE4FindERSK_
Sqm:_ShimEnumerator_get_Current_m3626055852_gshared
Zub:__ZN24GenerateTypeTreeTransfer21TransferResourceImageE19ActiveResourceImagePKcR13StreamingInfoPvjiPKN5Unity4TypeE
l_o:_Array_Sort_TisVector3_t3722313464_m1030213405_gshared
Iid:__ZN13InitialModule18GenerateProceduralERK27ParticleSystemReadOnlyStateR23ParticleSystemParticlesRK10Matrix4x4fRK8Vector3fRK24ParticleSystemEmitReplayRj
BJg:__ZN6il2cpp2vm6Object5CloneEP12Il2CppObject
qIk:_List_1_System_Collections_Generic_ICollectionU3CTU3E_Add_m104373483_gshared
zpm:_KeyCollection_System_Collections_Generic_ICollectionU3CTKeyU3E_Clear_m708383503_gshared
Vrd:__ZN11ColorModule8TransferI19StreamedBinaryWriteILb0EEEEvRT_
klf:__ZN5physx6shdfnd8PoolBaseINS_24NpPtrTableStorageManager8PtrBlockILi16EEENS0_19ReflectionAllocatorIS4_EEED2Ev
GXg:__ZN6il2cpp6icalls8mscorlib6System9Threading5Mutex20CreateMutex_internalEbP12Il2CppStringPb
flr:_emscripten_glLinkProgram__wrapper
rcg:__ZN6il2cpp2vm5Class12GetFinalizerEP11Il2CppClass
nVm:_Coroutine_Finalize_m1957108547
boh:_XmlTextReader_SetTokenProperties_m3990861784
MHq:_KeyBuilder_Key_m2503211157
sob:__ZNSt3__212__deque_baseI18ReflectionProbeJobNS_9allocatorIS1_EEED2Ev
DT:__ZN11UnityEngine9Animation27DestroyAnimationSetBindingsEPNS0_20AnimationSetBindingsERN7mecanim6memory9AllocatorE
eJa:__ZN15dense_hashtableINSt3__24pairIKiN4core17string_with_labelILi1EEEEEi18SInt32HashFunctionN14dense_hash_mapIiS5_S7_NS0_8equal_toIiEE13stl_allocatorIS6_L18MemLabelIdentifier1ELi16EEE9SelectKeyESA_SD_E13set_empty_keyERKS6_
yie:__ZN5physx2Sc9ShapeCore23setSimulationFilterDataERKNS_12PxFilterDataE
HUm:_Component_GetComponentInChildren_m388868270
c$:__ZN8Animator12CleanupClassEv
Bed:__Z13TransferFieldI8JSONReadLb0E27Converter_SimpleNativeClassI10RectOffsetEEvRK23StaticTransferFieldInfoR31RuntimeSerializationCommandInfoRT1_
v8o:_LeanTween_pause_m2516953053
Sv:__ZN19NavMeshBuildManagerD0Ev
cIl:_Byte_System_IConvertible_ToBoolean_m2888023769
vGg:__GLOBAL__sub_I_GenericMetadata_cpp
vkf:__ZN5physx7profile12MemoryBufferINS0_21WrapperNamedAllocatorEE5writeIyEEvRKT_
p4p:_ReadOnlyCollection_1_System_Collections_IList_Insert_m2797533731_gshared
_Ki:_NetworkStream_Write_m172181053
RLl:_NameObjectCollectionBase_GetEnumerator_m3677320185
$Eo:_Dictionary_2_ToTKey_m757189879_gshared
m4c:__ZNK8GUIStyle4DrawER8GUIStateRK5RectTIfER10GUIContentib
fpc:__Z24CalculateSpotLightBoundsffRK10Matrix4x4fR15SpotLightBounds
Fzl:_Char_ToString_m3588025615
Tti:__ZL60NoiseAndScratches_t1457296845_CustomAttributesCacheGeneratorP21CustomAttributesCache
Lfa:__ZN23CloudWebServicesManager23VirtualRedirectTransferER14SafeBinaryRead
UAl:_PKCS12_AddCertificate_m3857004455
Old:__ZNK11NoiseModule14CalculateNoiseILi3ELb1ELb0EEEvR23ParticleSystemParticlesRK27ParticleSystemReadOnlyStatejjRKN4math7_float4E
TLj:_WellKnownClientTypeEntry_ToString_m1119458503
t8b:__Z19ShouldTransferFieldR32SerializationCommandQueueBuilder17ScriptingClassPtriR18TransferField_InfoRK20CoreScriptingClasses
f7k:_Math_Cos_m1874044299
Xx:__Z16CarveNavMeshTilePPhPiPKhiPK17NavMeshCarveShapeifffRK8Vector3fRK11Quaternionf
tSj:_CodeAccessPermission_Union_m3795231427
S0f:_PostEffectsBase_CheckResources_m1900499029
SNo:_LinkedList_1_VerifyReferencedNode_m3460801984_gshared
wyj:_InputManager_FSM_Enter_Stopped_m581454125
GZl:_SecurityElement_IsValidText_m1346599242
G6a:__ZN26SinglePassStereoSupportExt21SetStereoMatrixCommonE21MonoOrStereoscopicEye24BuiltinShaderMatrixParamRK10Matrix4x4f
G6:__ZN5audio5mixer22UpdateAudioMixerMemoryERKNS0_18AudioMixerConstantERNS0_16AudioMixerMemoryEfPN4FMOD6SystemEf
XZg:__ZN6il2cpp6icalls6System6System3Net7Sockets15SocketException15WSAGetLastErrorEv
Krf:__ZL21InitializeCachedStripPv
BQg:__ZN6il2cpp6icalls8mscorlib6System7Convert24InternalFromBase64StringEP12Il2CppStringb
rBg:__ZN6il2cpp6icalls8mscorlib6System9Threading6Thread23GetCachedCurrentCultureEP12Il2CppThread
ssd:__ZN25IParticleSystemProperties8PropertyI8Vector3fNS_3MinILi0EEEE8TransferI19StreamedBinaryWriteILb0EEEEvRT_PKc
K_q:_Rigidbody_get_rotation_m3610554181
tma:__ZNK6Camera22GetWorldToCameraMatrixEv
H8q:runPostSets
RJg:__ZN6il2cpp2vm12GenericClass11IsValueTypeEP18Il2CppGenericClass
cin:_XmlSchemaReader_Skip_m2121585260
o7b:__ZN13MonoBehaviour7SetNameEPKc
h7k:_Math_Acos_m2076003797
oxc:__ZN13TrailRenderer18PrepareRenderNodesILb0EEEvR35RenderNodeQueuePrepareThreadContext
ieg:__ZN15dense_hashtableINSt3__24pairIK10KeyWrapperIPKcEP11Il2CppClassEES5_N6il2cpp5utils11StringUtils12StringHasherIS4_EEN14dense_hash_mapIS5_S8_SE_NS5_14EqualsComparerINSB_13VmStringUtils21CaseSensitiveComparerEEENS0_9allocatorIS9_EEE9SelectKeyESJ_SL_E15set_deleted_keyERKS9_
RNe:__ZN5physx6shdfnd8PoolBaseINS_2Sc26ActorPairContactReportDataENS0_19ReflectionAllocatorIS3_EEE15disposeElementsEv
PGq:_U3CStartU3Ec__Iterator0_MoveNext_m4270440387_gshared
jcc:__ZN17InstancingBatcher22FindCBUpperBoundKonstsEv
gCi:_CookieContainer_Add_m3856922447
rya:__GLOBAL__sub_I_runtime_shaders_shaderimpl_0_cpp
nMb:__ZN18AwakeFromLoadQueue5ClearEv
q2k:_FileStream_SetLength_m99749826
P6e:__ZN5physx6shdfnd5ArrayIfNS0_19ReflectionAllocatorIfEEE8recreateEj
Inc:__ZNSt3__27__sort5IR15ReflProbeSorterPP15ReflectionProbeEEjT0_S6_S6_S6_S6_T_
QEa:__ZN8Playable10DisconnectEPS_i
Q9n:_RxInterpreterFactory__ctor_m1761248169
F$n:_Convert_ToInt16_m4174439391
Vl:_glGenTransformFeedbacks
Wab:__ZN13LoadOperationD2Ev
T$l:_SecurityManager_set_ResolvingPolicyLevel_m2117409379
wSe:__ZN5physx20PxsSolverCoreGeneral6createEv
qvd:__ZN29TriggerModulePropertyBindings13AddPropertiesER10vector_mapIi22ParticleModulePropertyNSt3__24lessIiEENS2_9allocatorINS2_4pairIiS1_EEEEE
cDl:_AttrListImpl_GetValue_m3657391095
b4d:__ZL29GeomOverlapCallback_SphereBoxRKN5physx10PxGeometryERKNS_11PxTransformES2_S5_PNS_2Gu12TriggerCacheE
Vxq:_X509Certificate_get_Hash_m410033711
gMp:_List_1_CheckIndex_m3933537097_gshared
Neo:_ASCIIEncoding_GetBytes_m2264249800
Itb:__ZNSt3__27__sort5IRPFbRKNS_4pairIN9ShaderLab16FastPropertyNameEN18UnityPropertySheet11UnityTexEnvEEES8_EPS6_EEjT0_SD_SD_SD_SD_T_
ggq:_XmlNodeReader_get_IsDefault_m4155263088
agf:__ZN9Rigidbody6WakeUpEv
VVa:__ZNK7ApiGLES18GetExtensionStringEv
xgr:_emscripten_glVertexAttrib1f__wrapper
tQb:__ZNK12HandlerChain4SizeERK13FileEntryData
Or:FUNCTION_TABLE_iiiiiiiii
mqe:__ZN5physx7NpCloth15setInertiaScaleEf
k5p:_ReadOnlyCollection_1_System_Collections_Generic_ICollectionU3CTU3E_Remove_m4177779688_gshared
_Ad:__Z22GetPhysicsGroundBody2Dv
ozl:_Char_IsLetter_m3996985877
ZMp:_Queue_1_Peek_m2302800625_gshared
V$l:_PolicyLevel_CreateDefaultFullTrustAssemblies_m2687686518
z$g:_WebConnection_EnsureSSLStreamAvailable_m768122312
aaf:__ZN5physx6shdfnd4sortIPvNS0_4LessIS2_EENS0_19ReflectionAllocatorIN17PxcPoolMallocData10PoolData16EEEEEvPT_jRKT0_RKT1_j
$Rd:__Z19sweepBox_SphereGeomRKN5physx10PxGeometryERKNS_11PxTransformERKNS_2Gu3BoxERKNS_6PxVec3EfRNS_10PxSweepHitENS_7PxFlagsINS_9PxHitFlag4EnumEtEEf
pSg:_GC_allochblk
Tze:__ZN5physx14NpRigidDynamic17setAngularDampingEf
ihp:_Array_InternalArray__ICollection_CopyTo_TisKeyframe_t4206410242_m2132255743_gshared
Glr:_glCheckFramebufferStatus__wrapper
V7e:__ZNK5physx13GuMeshFactory15getHeightFieldsEPPNS_13PxHeightFieldEjj
tLb:__ZNSt3__26vectorIN30RuntimeInitializeOnLoadManager15ClassMethodInfoE13stl_allocatorIS2_L18MemLabelIdentifier13ELi16EEE7reserveEj
Aop:_Dictionary_2_System_Collections_ICollection_CopyTo_m3143696177_gshared
sv:__ZN22NavMeshProjectSettings8TransferI24GenerateTypeTreeTransferEEvRT_
zxp:_EqualityComparer_1__cctor_m2375305537_gshared
dff:__ZN15CapsuleCollider9SetRadiusEf
mqg:__ZN15dense_hashtableINSt3__24pairIK10KeyWrapperIPK10Il2CppTypeEjEES6_N6il2cpp8metadata14Il2CppTypeHashEN14dense_hash_mapIS6_jSB_NS6_14EqualsComparerINSA_26Il2CppTypeEqualityComparerEEENS0_9allocatorIS8_EEE9SelectKeyESF_SH_E3endEv
$Pi:__Z103RuntimeInvoker_Void_t1185182177_Int32_t2950945753_Int32_t2950945753_Int32_t2950945753_SByte_t1669577662PFvvEPK10MethodInfoPvPS4_
k9p:_ReadOnlyCollection_1_System_Collections_IEnumerable_GetEnumerator_m3203429155_gshared
gDe:__ZN5physx2Cm20visualizeJointFramesERNS0_12RenderOutputEfRKNS_11PxTransformES5_
SOq:__EqualityComparer_Equals_m2225820911
Ctj:_EnemyShipFiring__ctor_m1502445113
iyo:_ValueCollection_System_Collections_Generic_ICollectionU3CTValueU3E_Add_m772885466_gshared
GXe:__ZN5physx22PxcContactPlaneCapsuleERKNS_2Gu13GeometryUnionES3_RKNS_11PxTransformES6_RKfRNS_10PxcNpCacheERNS0_13ContactBufferE
h3c:__Z36Renderer_Get_Custom_PropSortingOrderP12Il2CppObject
X7m:_Renderer_get_enabled_m3482452518
rqg:__ZNK15dense_hashtableINSt3__24pairIK10KeyWrapperIPK10Il2CppTypeEjEES6_N6il2cpp8metadata14Il2CppTypeHashEN14dense_hash_mapIS6_jSB_NS6_14EqualsComparerINSA_26Il2CppTypeEqualityComparerEEENS0_9allocatorIS8_EEE9SelectKeyESF_SH_E13find_positionERS7_
WBb:__ZN8Material10SetTextureEN9ShaderLab16FastPropertyNameEP7Texture
urj:_GameManager_get_ObjectTracker_m1490876822
GTj:_DESTransform_BSwap_m2723001589
OCj:_ScenePersistent_SystemObjects_AteAwake_m2853529609
XEd:__ZNK14b2CapsuleShape7RayCastEP15b2RayCastOutputRK14b2RayCastInputRK11b2Transformi
A0j:_Context_get_HasDynamicSinks_m3952434387
dho:_Latin1Encoding_GetByteCount_m1145650505
iZb:__Z18Transfer_BlittableI24GenerateTypeTreeTransferLb1EhEvRK29SerializationCommandArgumentsR31RuntimeSerializationCommandInfo
c4b:__Z13TransferFieldI18StreamedBinaryReadILb1EELb0E16Converter_StringEvRK23StaticTransferFieldInfoR31RuntimeSerializationCommandInfoRT1_
FYd:__ZN5physx3Cct17CapsuleController9setRadiusEf
ZRc:__ZNK16TypeTreeIterator10ByteOffsetEv
llk:_XmlDocument_ParseName_m551725517
sar:dynCall_iiifii
MDa:__ZnwjRKSt9nothrow_t
OW:__ZN8Animator11ClearObjectEv
vom:_KeyCollection__ctor_m3355896191_gshared
Tbq:_Nullable_1_GetHashCode_m4232053575_gshared
WKo:_KeyValuePair_2_ToString_m1175727602_gshared
whf:__ZN9Rigidbody17MainThreadCleanupEv
dEl:_ApplicationException__ctor_m2557611022
Bsb:__ZN14SafeBinaryRead19TransferSTLStyleMapINSt3__23mapI39DeprecatedFastPropertyNameSerializationN18UnityPropertySheet11UnityTexEnvENS1_4lessIS3_EENS1_9allocatorINS1_4pairIKS3_S5_EEEEEEEEvRT_17TransferMetaFlags
cBj:_PlatformGenerator_Infinite_Direct_Start_m2569945073
eJp:_List_1_CheckMatch_m579516778_gshared
Jgh:_XsdGDay_get_TypeCode_m1152122453
_Hl:_Buffer_ByteLengthInternal_m1388208719
_me:__ZN5physx9NpPhysics26unregisterDeletionListenerERNS_18PxDeletionListenerE
TRc:__Z35UnregisterSerializationCacheBuilderPFv17ScriptingClassPtrR23CachedSerializationDataRbE
Ydk:_CanvasUpdateRegistry_InternalUnRegisterCanvasElementForGraphicRebuild_m1305837035
tIn:_Int64_System_IConvertible_ToUInt32_m109903525_AdjustorThunk
jTk:_InternalEnumerator_1_get_Current_m3900374024_gshared
kua:__Z30GetBuiltinVectorParamArraySize24BuiltinShaderVectorParam
Gsh:__ZL67DecimalConstantAttribute_t1976047975_CustomAttributesCacheGeneratorP21CustomAttributesCache
Upb:__ZN13RenderTextureC2E10MemLabelId18ObjectCreationMode
CFk:_EventSystem_2__ctor_m3669513437_gshared
fzn:_Int32_GetFormatException_m519586683
hJh:__ZL46StringBuilder_t_CustomAttributesCacheGeneratorP21CustomAttributesCache
ZHp:_List_1_AddEnumerable_m1284696147_gshared
Skq:_XmlTextReader_ResolveEntity_m1104020615
IOh:__ZL147XmlSchemaSimpleContentRestriction_t2746076865_CustomAttributesCacheGenerator_XmlSchemaSimpleContentRestriction_t2746076865____BaseType_PropertyInfoP21CustomAttributesCache
M1k:_FileStream_set_Position_m196127886
T0j:_Context_CreateNewContext_m3053563976
T3o:_Array_InternalArray__get_Item_TisVector2_t2156229523_m2502961026_gshared
Kwa:__ZN21RendererUpdateManager11AddRendererER8Renderer
jBc:__Z13RegisterClassI15ResourceManagerEvv
Cfe:__ZNK5physx18NpArticulationLink15getArticulationEv
hRq:_AudioConfigurationChangeHandler_Invoke_m1233557945
sGj:_TriggeredBehaviour_ModifySequencer_SetBundleActivity_m2299982863
$Tb:__Z35Transfer_Blittable_FixedBufferFieldI14SafeBinaryReadsEvRK29SerializationCommandArgumentsR31RuntimeSerializationCommandInfo
XCb:__ZN14SafeBinaryRead21TransferSTLStyleArrayI13dynamic_arrayIfLj4EEEEvRT_17TransferMetaFlags
YZn:_Convert_ToDateTime_m3802186295
wPg:__ZN6il2cpp5utils11StringUtils11Utf16ToUtf8EPKDs
YKb:__ZN18StreamedBinaryReadILb0EE21TransferSTLStyleArrayINSt3__26vectorIN15ResourceManager10DependencyE13stl_allocatorIS5_L18MemLabelIdentifier52ELi16EEEEEEvRT_17TransferMetaFlags
UMq:_UInt64_CompareTo_m1614517204_AdjustorThunk
l0c:__Z45Register_UnityEngine_RenderTexture_set_activev
Pec:__ZZ23InitPlayerLoopCallbacksvEN52PreLateUpdateScriptRunBehaviourLateUpdateRegistrator7ForwardEv
GIm:_Array_InternalArray__ICollection_Contains_TisInt32_t2950945753_m2907032710_gshared
SKq:_PathLocalCurveJS_Update_m4217781680
apc:__Z33IntersectAABBPlaneBoundsOptimizedRK4AABBPKN4math7_float4Ei
FDn:_DateTimeFormatInfo_FillAllDateTimePatterns_m2683124783
lHi:_HttpWebRequest_get_ProxyQuery_m4235226594
TQa:__ZN9GfxDevice19EndGeometryJobFrameEv
dBq:_GUILayoutUtility_Layout_m1159951704
uum:_InputField_get_shouldActivateOnSelect_m3055465770
cZb:__ZN27Converter_SimpleNativeClassI17AnimationCurveTplIfEE17ScriptingToNativeER18ScriptingObjectPtrPS1_
I0d:__ZThn12_N5physx3Ext5JointINS_15PxDistanceJointENS_30PxDistanceJointGeneratedValuesEE11prepareDataEv
Yno:_Type__cctor_m2371893800
dge:__ZN5physx2Sc15CoreInteraction17isCoreInteractionEPNS0_11InteractionE
vYg:__ZN6il2cpp8metadata24Il2CppGenericInstCompare7CompareERK10KeyWrapperIPK17Il2CppGenericInstES8_
okf:__ZThn132_N5physx7profile8ZoneImplINS_28PxProfileNameProviderForwardEED0Ev
lNd:__ZN5physx3Cct13BoxController17setHalfSideExtentEf
Seg:__ZNK15dense_hashtableINSt3__24pairIK10KeyWrapperIPK19Il2CppGenericMethodEPK26Il2CppGenericMethodIndicesEES6_N6il2cpp8metadata23Il2CppGenericMethodHashEN14dense_hash_mapIS6_SA_SE_NS6_14EqualsComparerINSD_26Il2CppGenericMethodCompareEEENS0_9allocatorISB_EEE9SelectKeyESI_SK_E5beginEv
M8j:_ExecuteEvents_Execute_m3049310229
wN:__ZN27AnimationLayerMixerPlayable21UpdateLayerParametersEv
LNh:__ZL121XmlSchemaExternal_t3074890143_CustomAttributesCacheGenerator_XmlSchemaExternal_t3074890143____SchemaLocation_PropertyInfoP21CustomAttributesCache
$Sc:__Z33Camera_Set_Custom_PropFieldOfViewP12Il2CppObjectf
zod:__ZN21InheritVelocityModule8TransferI14SafeBinaryReadEEvRT_
Fwc:__ZNK17AnimationCurveTplIfE8EvaluateEfPNS0_5CacheE
Tdc:__Z31ManagerContextInitializeClassesv
t5p:_ReadOnlyCollection_1_System_Collections_IList_Contains_m2650112051_gshared
Yzf:_UNITY_FT_List_Finalize
Zwq:_PKCS12_ReadSafeBag_m3435973087
X$i:__Z85RuntimeInvoker_Void_t1185182177_Int64_t3736567304_Int64_t3736567304_Int64_t3736567304PFvvEPK10MethodInfoPvPS4_
Vic:__Z20LightAttenuateApproxRKfS0_
Kxa:__ZN9Scripting30SetCachedPtrOnScriptingWrapperE18ScriptingObjectPtrP6Object
k2m:_Mesh_GetIndices_m2873123901
Hgh:_XsdGDay__ctor_m1563377709
DYk:_InternalEnumerator_1_get_Current_m1232221964_gshared
nzn:_Double_ToString_m1229922074_AdjustorThunk
